
ComponentTester:     Dateiformat elf32-avr

Sektionen:
Idx Name          Size      VMA       LMA       File off  Algn
  0 .data         00000000  00800100  00005c22  00005cd6  2**0
                  CONTENTS, ALLOC, LOAD, DATA
  1 .text         00005c22  00000000  00000000  000000b4  2**1
                  CONTENTS, ALLOC, LOAD, READONLY, CODE
  2 .bss          000000d8  00800100  00800100  00005cd6  2**0
                  ALLOC
  3 .eeprom       000002e4  00810000  00810000  00005cd6  2**0
                  CONTENTS, ALLOC, LOAD, READONLY, DATA
  4 .comment      00000011  00000000  00000000  00005fba  2**0
                  CONTENTS, READONLY
  5 .note.gnu.avr.deviceinfo 00000040  00000000  00000000  00005fcc  2**2
                  CONTENTS, READONLY
  6 .avr.prop     0000002c  00000000  00000000  0000600c  2**0
                  CONTENTS, READONLY
  7 .debug_aranges 000004d8  00000000  00000000  00006038  2**3
                  CONTENTS, READONLY, DEBUGGING
  8 .debug_info   000162fb  00000000  00000000  00006510  2**0
                  CONTENTS, READONLY, DEBUGGING
  9 .debug_abbrev 00002d9b  00000000  00000000  0001c80b  2**0
                  CONTENTS, READONLY, DEBUGGING
 10 .debug_line   00007529  00000000  00000000  0001f5a6  2**0
                  CONTENTS, READONLY, DEBUGGING
 11 .debug_frame  00000f1c  00000000  00000000  00026ad0  2**2
                  CONTENTS, READONLY, DEBUGGING
 12 .debug_str    000018b0  00000000  00000000  000279ec  2**0
                  CONTENTS, READONLY, DEBUGGING
 13 .debug_loc    000082ea  00000000  00000000  0002929c  2**0
                  CONTENTS, READONLY, DEBUGGING
 14 .debug_ranges 000000e8  00000000  00000000  00031586  2**0
                  CONTENTS, READONLY, DEBUGGING

Disassembly of section .text:

00000000 <__vectors>:
       0:	0c 94 5a 00 	jmp	0xb4	; 0xb4 <__ctors_end>
       4:	0c 94 6c 00 	jmp	0xd8	; 0xd8 <__bad_interrupt>
       8:	0c 94 6c 00 	jmp	0xd8	; 0xd8 <__bad_interrupt>
       c:	0c 94 6c 00 	jmp	0xd8	; 0xd8 <__bad_interrupt>
      10:	0c 94 6c 00 	jmp	0xd8	; 0xd8 <__bad_interrupt>
      14:	0c 94 6c 00 	jmp	0xd8	; 0xd8 <__bad_interrupt>
      18:	0c 94 6c 00 	jmp	0xd8	; 0xd8 <__bad_interrupt>
      1c:	0c 94 5d 09 	jmp	0x12ba	; 0x12ba <__vector_7>
      20:	0c 94 6c 00 	jmp	0xd8	; 0xd8 <__bad_interrupt>
      24:	0c 94 6c 00 	jmp	0xd8	; 0xd8 <__bad_interrupt>
      28:	0c 94 6c 00 	jmp	0xd8	; 0xd8 <__bad_interrupt>
      2c:	0c 94 6c 00 	jmp	0xd8	; 0xd8 <__bad_interrupt>
      30:	0c 94 6c 00 	jmp	0xd8	; 0xd8 <__bad_interrupt>
      34:	0c 94 6c 00 	jmp	0xd8	; 0xd8 <__bad_interrupt>
      38:	0c 94 6c 00 	jmp	0xd8	; 0xd8 <__bad_interrupt>
      3c:	0c 94 6c 00 	jmp	0xd8	; 0xd8 <__bad_interrupt>
      40:	0c 94 6c 00 	jmp	0xd8	; 0xd8 <__bad_interrupt>
      44:	0c 94 6c 00 	jmp	0xd8	; 0xd8 <__bad_interrupt>
      48:	0c 94 6c 00 	jmp	0xd8	; 0xd8 <__bad_interrupt>
      4c:	0c 94 6c 00 	jmp	0xd8	; 0xd8 <__bad_interrupt>
      50:	0c 94 6c 00 	jmp	0xd8	; 0xd8 <__bad_interrupt>
      54:	0c 94 6c 00 	jmp	0xd8	; 0xd8 <__bad_interrupt>
      58:	0c 94 6c 00 	jmp	0xd8	; 0xd8 <__bad_interrupt>
      5c:	0c 94 6c 00 	jmp	0xd8	; 0xd8 <__bad_interrupt>
      60:	0c 94 6c 00 	jmp	0xd8	; 0xd8 <__bad_interrupt>
      64:	0c 94 6c 00 	jmp	0xd8	; 0xd8 <__bad_interrupt>
      68:	0c 94 6c 00 	jmp	0xd8	; 0xd8 <__bad_interrupt>
      6c:	0c 94 6c 00 	jmp	0xd8	; 0xd8 <__bad_interrupt>
      70:	0c 94 6c 00 	jmp	0xd8	; 0xd8 <__bad_interrupt>
      74:	0c 94 6c 00 	jmp	0xd8	; 0xd8 <__bad_interrupt>
      78:	0c 94 6c 00 	jmp	0xd8	; 0xd8 <__bad_interrupt>
      7c:	0c 94 6c 00 	jmp	0xd8	; 0xd8 <__bad_interrupt>
      80:	0c 94 6c 00 	jmp	0xd8	; 0xd8 <__bad_interrupt>
      84:	0c 94 6c 00 	jmp	0xd8	; 0xd8 <__bad_interrupt>
      88:	0c 94 6c 00 	jmp	0xd8	; 0xd8 <__bad_interrupt>
      8c:	0c 94 6c 00 	jmp	0xd8	; 0xd8 <__bad_interrupt>
      90:	0c 94 6c 00 	jmp	0xd8	; 0xd8 <__bad_interrupt>
      94:	0c 94 6c 00 	jmp	0xd8	; 0xd8 <__bad_interrupt>
      98:	0c 94 6c 00 	jmp	0xd8	; 0xd8 <__bad_interrupt>
      9c:	0c 94 6c 00 	jmp	0xd8	; 0xd8 <__bad_interrupt>
      a0:	0c 94 6c 00 	jmp	0xd8	; 0xd8 <__bad_interrupt>
      a4:	0c 94 6c 00 	jmp	0xd8	; 0xd8 <__bad_interrupt>
      a8:	0c 94 6c 00 	jmp	0xd8	; 0xd8 <__bad_interrupt>
      ac:	0c 94 6c 00 	jmp	0xd8	; 0xd8 <__bad_interrupt>
      b0:	0c 94 6c 00 	jmp	0xd8	; 0xd8 <__bad_interrupt>

000000b4 <__ctors_end>:
      b4:	11 24       	eor	r1, r1
      b6:	1f be       	out	0x3f, r1	; 63
      b8:	cf ef       	ldi	r28, 0xFF	; 255
      ba:	d8 e0       	ldi	r29, 0x08	; 8
      bc:	de bf       	out	0x3e, r29	; 62
      be:	cd bf       	out	0x3d, r28	; 61

000000c0 <__do_clear_bss>:
      c0:	21 e0       	ldi	r18, 0x01	; 1
      c2:	a0 e0       	ldi	r26, 0x00	; 0
      c4:	b1 e0       	ldi	r27, 0x01	; 1
      c6:	01 c0       	rjmp	.+2      	; 0xca <.do_clear_bss_start>

000000c8 <.do_clear_bss_loop>:
      c8:	1d 92       	st	X+, r1

000000ca <.do_clear_bss_start>:
      ca:	a8 3d       	cpi	r26, 0xD8	; 216
      cc:	b2 07       	cpc	r27, r18
      ce:	e1 f7       	brne	.-8      	; 0xc8 <.do_clear_bss_loop>
      d0:	0e 94 3e 2b 	call	0x567c	; 0x567c <main>
      d4:	0c 94 0f 2e 	jmp	0x5c1e	; 0x5c1e <_exit>

000000d8 <__bad_interrupt>:
      d8:	0c 94 00 00 	jmp	0	; 0x0 <__vectors>

000000dc <Get_SemiPinDesignator>:
uint8_t Get_SemiPinDesignator(uint8_t Probe)
{
  uint8_t           Char;          /* designator / return value */

  /* looking for matching probe ID */
  if (Probe == Semi.A)             /* matches pin A */
      dc:	90 91 9a 01 	lds	r25, 0x019A	; 0x80019a <Semi>
      e0:	98 13       	cpse	r25, r24
      e2:	03 c0       	rjmp	.+6      	; 0xea <Get_SemiPinDesignator+0xe>
  {
    Char = Semi.DesA;              /* designator for pin A */
      e4:	80 91 9d 01 	lds	r24, 0x019D	; 0x80019d <Semi+0x3>
      e8:	08 95       	ret
  }
  else if (Probe == Semi.B)        /* matches pin B */
      ea:	90 91 9b 01 	lds	r25, 0x019B	; 0x80019b <Semi+0x1>
      ee:	98 13       	cpse	r25, r24
      f0:	03 c0       	rjmp	.+6      	; 0xf8 <Get_SemiPinDesignator+0x1c>
  {
    Char = Semi.DesB;              /* designator for pin B */
      f2:	80 91 9e 01 	lds	r24, 0x019E	; 0x80019e <Semi+0x4>
      f6:	08 95       	ret
  }
  else                             /* matches pin C */
  {
    Char = Semi.DesC;              /* designator for pin C */
      f8:	80 91 9f 01 	lds	r24, 0x019F	; 0x80019f <Semi+0x5>
  }

  return Char;
}
      fc:	08 95       	ret

000000fe <Show_SemiPinout>:
  uint8_t           n;             /* counter */

  /* display: 123 */
  for (n = 0; n <= 2; n++)         /* loop through probe pins */
  {
    Display_ProbeNumber(n);        /* display probe ID */
      fe:	80 e0       	ldi	r24, 0x00	; 0
     100:	0e 94 1e 11 	call	0x223c	; 0x223c <Display_ProbeNumber>
     104:	81 e0       	ldi	r24, 0x01	; 1
     106:	0e 94 1e 11 	call	0x223c	; 0x223c <Display_ProbeNumber>
     10a:	82 e0       	ldi	r24, 0x02	; 2
     10c:	0e 94 1e 11 	call	0x223c	; 0x223c <Display_ProbeNumber>
  }

  /* display: = */
  Display_Char('=');
     110:	8d e3       	ldi	r24, 0x3D	; 61
     112:	0e 94 fe 2a 	call	0x55fc	; 0x55fc <LCD_Char>

  /* display pin designators */
  for (n = 0; n <= 2; n++)         /* loop through probe pins */
  {
    Display_SemiPinDesignator(n);  /* display pin designator */
     116:	80 e0       	ldi	r24, 0x00	; 0
     118:	0e 94 22 11 	call	0x2244	; 0x2244 <Display_SemiPinDesignator>
     11c:	81 e0       	ldi	r24, 0x01	; 1
     11e:	0e 94 22 11 	call	0x2244	; 0x2244 <Display_SemiPinDesignator>
     122:	82 e0       	ldi	r24, 0x02	; 2
     124:	0e 94 22 11 	call	0x2244	; 0x2244 <Display_SemiPinDesignator>
  }
}
     128:	08 95       	ret

0000012a <Show_SimplePinout>:
 *  - DesX: designators for probes #1, #2 and #3
 *    0 -> not displayed
 */

void Show_SimplePinout(uint8_t Des1, uint8_t Des2, uint8_t Des3)
{
     12a:	a3 e0       	ldi	r26, 0x03	; 3
     12c:	b0 e0       	ldi	r27, 0x00	; 0
     12e:	eb e9       	ldi	r30, 0x9B	; 155
     130:	f0 e0       	ldi	r31, 0x00	; 0
     132:	0c 94 78 2d 	jmp	0x5af0	; 0x5af0 <__prologue_saves__+0x18>

  Color = UI.PenColor;             /* save current color */
  #endif

  /* copy probe pin designators */
  Des[0] = Des1;
     136:	89 83       	std	Y+1, r24	; 0x01
  Des[1] = Des2;
     138:	6a 83       	std	Y+2, r22	; 0x02
  Des[2] = Des3;
     13a:	4b 83       	std	Y+3, r20	; 0x03
     13c:	ce 01       	movw	r24, r28
     13e:	01 96       	adiw	r24, 0x01	; 1
     140:	7c 01       	movw	r14, r24

  for (n = 0; n <= 2; n++)         /* loop through probe pins */
     142:	10 e0       	ldi	r17, 0x00	; 0
  {
    if (Des[n] != 0)               /* display this one */
     144:	f7 01       	movw	r30, r14
     146:	01 91       	ld	r16, Z+
     148:	7f 01       	movw	r14, r30
     14a:	00 23       	and	r16, r16
     14c:	51 f0       	breq	.+20     	; 0x162 <Show_SimplePinout+0x38>
    {
      Display_ProbeNumber(n);
     14e:	81 2f       	mov	r24, r17
     150:	0e 94 1e 11 	call	0x223c	; 0x223c <Display_ProbeNumber>
      Display_Colon();
     154:	0e 94 2f 11 	call	0x225e	; 0x225e <Display_Colon>

      #ifdef UI_PROBE_COLORS
      UI.PenColor = ProbeColors[n];     /* set probe color */
      #endif

      Display_Char(Des[n]);
     158:	80 2f       	mov	r24, r16
     15a:	0e 94 fe 2a 	call	0x55fc	; 0x55fc <LCD_Char>

      #ifdef UI_PROBE_COLORS
      UI.PenColor = Color;              /* restore old color */
      #endif

      Display_Space();
     15e:	0e 94 27 11 	call	0x224e	; 0x224e <Display_Space>
  /* copy probe pin designators */
  Des[0] = Des1;
  Des[1] = Des2;
  Des[2] = Des3;

  for (n = 0; n <= 2; n++)         /* loop through probe pins */
     162:	1f 5f       	subi	r17, 0xFF	; 255
     164:	13 30       	cpi	r17, 0x03	; 3
     166:	71 f7       	brne	.-36     	; 0x144 <Show_SimplePinout+0x1a>
      #endif

      Display_Space();
    }
  }
}
     168:	23 96       	adiw	r28, 0x03	; 3
     16a:	e6 e0       	ldi	r30, 0x06	; 6
     16c:	0c 94 94 2d 	jmp	0x5b28	; 0x5b28 <__epilogue_restores__+0x18>

00000170 <Show_Fail>:
  #ifdef UI_CENTER_ALIGN
    Display_CenterLine(2);                        /* center block: 2 lines */
    Display_EEString_Center(Failed1_str);         /* display: No component */
    Display_NL_EEString_Center(Failed2_str);      /* display: found! */
  #else
    Display_EEString(Failed1_str);      /* display: No component */
     170:	8d e9       	ldi	r24, 0x9D	; 157
     172:	92 e0       	ldi	r25, 0x02	; 2
     174:	0e 94 0f 11 	call	0x221e	; 0x221e <Display_EEString>
    Display_NL_EEString(Failed2_str);   /* display: found! */
     178:	86 e9       	ldi	r24, 0x96	; 150
     17a:	92 e0       	ldi	r25, 0x02	; 2
     17c:	0e 94 38 11 	call	0x2270	; 0x2270 <Display_NL_EEString>
      Display_FancySemiPinout(3);       /* show symbol starting in line #3 */
    #endif
  #endif

  #if CYCLE_MAX < 255
  MissedParts++;              /* increase counter */
     180:	80 91 93 01 	lds	r24, 0x0193	; 0x800193 <MissedParts>
     184:	8f 5f       	subi	r24, 0xFF	; 255
     186:	80 93 93 01 	sts	0x0193, r24	; 0x800193 <MissedParts>
  #endif
}
     18a:	08 95       	ret

0000018c <Show_Error>:
 *  show error
 */

void Show_Error()
{
  if (Check.Type == TYPE_DISCHARGE)          /* discharge failed */
     18c:	80 91 02 01 	lds	r24, 0x0102	; 0x800102 <Check+0x1>
     190:	81 30       	cpi	r24, 0x01	; 1
     192:	c9 f4       	brne	.+50     	; 0x1c6 <Show_Error+0x3a>
  {
    /* possibly a voltage source */
    Display_EEString(DischargeFailed_str);   /* display: Battery? */
     194:	82 e4       	ldi	r24, 0x42	; 66
     196:	92 e0       	ldi	r25, 0x02	; 2
     198:	0e 94 0f 11 	call	0x221e	; 0x221e <Display_EEString>

    /* display probe number and remaining voltage */
    Display_NextLine();
     19c:	0e 94 ed 10 	call	0x21da	; 0x21da <Display_NextLine>
    Display_ProbeNumber(Check.Probe);
     1a0:	80 91 07 01 	lds	r24, 0x0107	; 0x800107 <Check+0x6>
     1a4:	0e 94 1e 11 	call	0x223c	; 0x223c <Display_ProbeNumber>
    Display_Colon();
     1a8:	0e 94 2f 11 	call	0x225e	; 0x225e <Display_Colon>
    Display_Space();
     1ac:	0e 94 27 11 	call	0x224e	; 0x224e <Display_Space>
    Display_Value(Check.U, -3, 'V');
     1b0:	60 91 08 01 	lds	r22, 0x0108	; 0x800108 <Check+0x7>
     1b4:	70 91 09 01 	lds	r23, 0x0109	; 0x800109 <Check+0x8>
     1b8:	90 e0       	ldi	r25, 0x00	; 0
     1ba:	80 e0       	ldi	r24, 0x00	; 0
     1bc:	26 e5       	ldi	r18, 0x56	; 86
     1be:	4d ef       	ldi	r20, 0xFD	; 253
     1c0:	0e 94 74 11 	call	0x22e8	; 0x22e8 <Display_Value>
     1c4:	08 95       	ret
  }
  else if (Check.Type == TYPE_DETECTION)     /* detection error */
     1c6:	82 30       	cpi	r24, 0x02	; 2
     1c8:	11 f4       	brne	.+4      	; 0x1ce <Show_Error+0x42>
  {
    /* simply display: No component found! */
    Show_Fail();
     1ca:	0e 94 b8 00 	call	0x170	; 0x170 <Show_Fail>
  }
}
     1ce:	08 95       	ret

000001d0 <Show_SingleResistor>:
 *  - ID1: pin ID #1 character
 *  - ID2: pin ID #2 character
 */

void Show_SingleResistor(uint8_t ID1, uint8_t ID2)
{
     1d0:	cf 93       	push	r28
     1d2:	c6 2f       	mov	r28, r22
  Resistor_Type     *Resistor;     /* pointer to resistor */

  Resistor = &Resistors[0];        /* pointer to first resistor */

  /* show pinout */
  Display_Char(ID1);
     1d4:	0e 94 fe 2a 	call	0x55fc	; 0x55fc <LCD_Char>
  Display_EEString(Resistor_str);
     1d8:	82 ed       	ldi	r24, 0xD2	; 210
     1da:	90 e0       	ldi	r25, 0x00	; 0
     1dc:	0e 94 0f 11 	call	0x221e	; 0x221e <Display_EEString>
  Display_Char(ID2); 
     1e0:	8c 2f       	mov	r24, r28
     1e2:	0e 94 fe 2a 	call	0x55fc	; 0x55fc <LCD_Char>

  /* show resistance value */
  Display_Space();
     1e6:	0e 94 27 11 	call	0x224e	; 0x224e <Display_Space>
  Display_Value(Resistor->Value, Resistor->Scale, LCD_CHAR_OMEGA);
     1ea:	ea e0       	ldi	r30, 0x0A	; 10
     1ec:	f1 e0       	ldi	r31, 0x01	; 1
     1ee:	63 81       	ldd	r22, Z+3	; 0x03
     1f0:	74 81       	ldd	r23, Z+4	; 0x04
     1f2:	85 81       	ldd	r24, Z+5	; 0x05
     1f4:	96 81       	ldd	r25, Z+6	; 0x06
     1f6:	24 e0       	ldi	r18, 0x04	; 4
     1f8:	42 81       	ldd	r20, Z+2	; 0x02
     1fa:	0e 94 74 11 	call	0x22e8	; 0x22e8 <Display_Value>
}
     1fe:	cf 91       	pop	r28
     200:	08 95       	ret

00000202 <Show_Resistor>:
/*
 *  show resistor(s)
 */

void Show_Resistor(void)
{
     202:	b0 e0       	ldi	r27, 0x00	; 0
     204:	a0 e0       	ldi	r26, 0x00	; 0
     206:	e7 e0       	ldi	r30, 0x07	; 7
     208:	f1 e0       	ldi	r31, 0x01	; 1
     20a:	0c 94 76 2d 	jmp	0x5aec	; 0x5aec <__prologue_saves__+0x14>
  Resistor_Type     *R2;           /* pointer to resistor #2 */
  uint8_t           Pin;           /* ID of common pin */

  R1 = &Resistors[0];              /* pointer to first resistor */

  if (Check.Resistors == 1)        /* single resistor */
     20e:	80 91 05 01 	lds	r24, 0x0105	; 0x800105 <Check+0x4>
     212:	81 30       	cpi	r24, 0x01	; 1
     214:	09 f0       	breq	.+2      	; 0x218 <Show_Resistor+0x16>
     216:	3f c0       	rjmp	.+126    	; 0x296 <Show_Resistor+0x94>
  {
    R2 = NULL;                     /* disable second resistor */
    Pin = R1->A;                   /* make A the first pin */
     218:	f0 90 0a 01 	lds	r15, 0x010A	; 0x80010a <Resistors>

  R1 = &Resistors[0];              /* pointer to first resistor */

  if (Check.Resistors == 1)        /* single resistor */
  {
    R2 = NULL;                     /* disable second resistor */
     21c:	10 e0       	ldi	r17, 0x00	; 0
     21e:	00 e0       	ldi	r16, 0x00	; 0
{
  Resistor_Type     *R1;           /* pointer to resistor #1 */
  Resistor_Type     *R2;           /* pointer to resistor #2 */
  uint8_t           Pin;           /* ID of common pin */

  R1 = &Resistors[0];              /* pointer to first resistor */
     220:	ca e0       	ldi	r28, 0x0A	; 10
     222:	d1 e0       	ldi	r29, 0x01	; 1
  #ifdef UI_COLORED_TITLES
  Display_UseTitleColor();         /* use title color */
  #endif

  /* first resistor */
  if (R1->A != Pin)           /* A is not common pin */
     224:	88 81       	ld	r24, Y
     226:	8f 15       	cp	r24, r15
     228:	09 f4       	brne	.+2      	; 0x22c <Show_Resistor+0x2a>
     22a:	92 c0       	rjmp	.+292    	; 0x350 <Show_Resistor+0x14e>
  {
    Display_ProbeNumber(R1->A);    /* display pin A */
  }
  else                        /* single resistor or A is common pin */
  {
    Display_ProbeNumber(R1->B);    /* display pin B */
     22c:	0e 94 1e 11 	call	0x223c	; 0x223c <Display_ProbeNumber>
  }

  Display_EEString(Resistor_str);
     230:	82 ed       	ldi	r24, 0xD2	; 210
     232:	90 e0       	ldi	r25, 0x00	; 0
     234:	0e 94 0f 11 	call	0x221e	; 0x221e <Display_EEString>
  Display_ProbeNumber(Pin);       /* display common pin */
     238:	8f 2d       	mov	r24, r15
     23a:	0e 94 1e 11 	call	0x223c	; 0x223c <Display_ProbeNumber>

  if (R2)           /* second resistor */
     23e:	01 15       	cp	r16, r1
     240:	11 05       	cpc	r17, r1
     242:	59 f0       	breq	.+22     	; 0x25a <Show_Resistor+0x58>
  {
    Display_EEString(Resistor_str);
     244:	82 ed       	ldi	r24, 0xD2	; 210
     246:	90 e0       	ldi	r25, 0x00	; 0
     248:	0e 94 0f 11 	call	0x221e	; 0x221e <Display_EEString>

    if (R2->A != Pin)         /* A is not common pin */
     24c:	f8 01       	movw	r30, r16
     24e:	80 81       	ld	r24, Z
     250:	8f 15       	cp	r24, r15
     252:	09 f4       	brne	.+2      	; 0x256 <Show_Resistor+0x54>
     254:	7f c0       	rjmp	.+254    	; 0x354 <Show_Resistor+0x152>
    {
      Display_ProbeNumber(R2->A);  /* display pin A */
    }
    else                      /* A is common pin */
    {
      Display_ProbeNumber(R2->B);  /* display pin B */
     256:	0e 94 1e 11 	call	0x223c	; 0x223c <Display_ProbeNumber>
   *  - optionally inductance
   *  - optionally E-series norm values
   */

  /* first resistor */
  Display_NextLine();
     25a:	0e 94 ed 10 	call	0x21da	; 0x21da <Display_NextLine>
  Display_Value(R1->Value, R1->Scale, LCD_CHAR_OMEGA);
     25e:	6b 81       	ldd	r22, Y+3	; 0x03
     260:	7c 81       	ldd	r23, Y+4	; 0x04
     262:	8d 81       	ldd	r24, Y+5	; 0x05
     264:	9e 81       	ldd	r25, Y+6	; 0x06
     266:	24 e0       	ldi	r18, 0x04	; 4
     268:	4a 81       	ldd	r20, Y+2	; 0x02
     26a:	0e 94 74 11 	call	0x22e8	; 0x22e8 <Display_Value>

  if (R2)                /* second resistor */
     26e:	01 15       	cp	r16, r1
     270:	11 05       	cpc	r17, r1
     272:	09 f4       	brne	.+2      	; 0x276 <Show_Resistor+0x74>
     274:	71 c0       	rjmp	.+226    	; 0x358 <Show_Resistor+0x156>
  {
    Display_Space();
     276:	0e 94 27 11 	call	0x224e	; 0x224e <Display_Space>
    Display_Value(R2->Value, R2->Scale, LCD_CHAR_OMEGA);
     27a:	f8 01       	movw	r30, r16
     27c:	63 81       	ldd	r22, Z+3	; 0x03
     27e:	74 81       	ldd	r23, Z+4	; 0x04
     280:	85 81       	ldd	r24, Z+5	; 0x05
     282:	96 81       	ldd	r25, Z+6	; 0x06
     284:	24 e0       	ldi	r18, 0x04	; 4
     286:	42 81       	ldd	r20, Z+2	; 0x02
  {
    /* get inductance and display if relevant */
    if (MeasureInductor(R1) == 1)       /* inductor */
    {
      Display_Space();
      Display_Value(Inductor.Value, Inductor.Scale, 'H');
     288:	0e 94 74 11 	call	0x22e8	; 0x22e8 <Display_Value>
    /* show E series norm value EIA-96 codes for E96 1% */
    Show_ENormEIA96(R1->Value, R1->Scale);
    #endif
  }
  #endif
}
     28c:	cd b7       	in	r28, 0x3d	; 61
     28e:	de b7       	in	r29, 0x3e	; 62
     290:	e8 e0       	ldi	r30, 0x08	; 8
     292:	0c 94 92 2d 	jmp	0x5b24	; 0x5b24 <__epilogue_restores__+0x14>
    Pin = R1->A;                   /* make A the first pin */
  }
  else                             /* multiple resistors */
  {
    R2 = R1;
    R2++;                          /* pointer to second resistor */
     296:	01 e1       	ldi	r16, 0x11	; 17
     298:	11 e0       	ldi	r17, 0x01	; 1
{
  Resistor_Type     *R1;           /* pointer to resistor #1 */
  Resistor_Type     *R2;           /* pointer to resistor #2 */
  uint8_t           Pin;           /* ID of common pin */

  R1 = &Resistors[0];              /* pointer to first resistor */
     29a:	ca e0       	ldi	r28, 0x0A	; 10
     29c:	d1 e0       	ldi	r29, 0x01	; 1
    #ifdef UI_SERIAL_COMMANDS
    /* set data for remote commands */
    Info.Quantity = 2;             /* got two */
    #endif

    if (Check.Resistors == 3)      /* three resistors */
     29e:	83 30       	cpi	r24, 0x03	; 3
     2a0:	09 f0       	breq	.+2      	; 0x2a4 <Show_Resistor+0xa2>
     2a2:	45 c0       	rjmp	.+138    	; 0x32e <Show_Resistor+0x12c>
       */

      Rmax = R1;                   /* starting point */
      for (Pin = 1; Pin <= 2; Pin++)
      {
        if (CmpValue(R2->Value, R2->Scale, Rmax->Value, Rmax->Scale) == 1)
     2a4:	00 91 0d 01 	lds	r16, 0x010D	; 0x80010d <Resistors+0x3>
     2a8:	10 91 0e 01 	lds	r17, 0x010E	; 0x80010e <Resistors+0x4>
     2ac:	20 91 0f 01 	lds	r18, 0x010F	; 0x80010f <Resistors+0x5>
     2b0:	30 91 10 01 	lds	r19, 0x0110	; 0x800110 <Resistors+0x6>
     2b4:	60 91 14 01 	lds	r22, 0x0114	; 0x800114 <Resistors+0xa>
     2b8:	70 91 15 01 	lds	r23, 0x0115	; 0x800115 <Resistors+0xb>
     2bc:	80 91 16 01 	lds	r24, 0x0116	; 0x800116 <Resistors+0xc>
     2c0:	90 91 17 01 	lds	r25, 0x0117	; 0x800117 <Resistors+0xd>
     2c4:	e0 90 0c 01 	lds	r14, 0x010C	; 0x80010c <Resistors+0x2>
     2c8:	40 91 13 01 	lds	r20, 0x0113	; 0x800113 <Resistors+0x9>
     2cc:	0e 94 a6 06 	call	0xd4c	; 0xd4c <CmpValue>
    Pin = R1->A;                   /* make A the first pin */
  }
  else                             /* multiple resistors */
  {
    R2 = R1;
    R2++;                          /* pointer to second resistor */
     2d0:	21 e1       	ldi	r18, 0x11	; 17
     2d2:	c2 2e       	mov	r12, r18
     2d4:	21 e0       	ldi	r18, 0x01	; 1
     2d6:	d2 2e       	mov	r13, r18
       */

      Rmax = R1;                   /* starting point */
      for (Pin = 1; Pin <= 2; Pin++)
      {
        if (CmpValue(R2->Value, R2->Scale, Rmax->Value, Rmax->Scale) == 1)
     2d8:	81 30       	cpi	r24, 0x01	; 1
     2da:	21 f0       	breq	.+8      	; 0x2e4 <Show_Resistor+0xe2>
       *  3 resistors mean 2 single resistors and both resistors in series.
       *  So we have to single out that series resistor by finding the
       *  largest resistor.
       */

      Rmax = R1;                   /* starting point */
     2dc:	9a e0       	ldi	r25, 0x0A	; 10
     2de:	c9 2e       	mov	r12, r25
     2e0:	91 e0       	ldi	r25, 0x01	; 1
     2e2:	d9 2e       	mov	r13, r25
      for (Pin = 1; Pin <= 2; Pin++)
      {
        if (CmpValue(R2->Value, R2->Scale, Rmax->Value, Rmax->Scale) == 1)
     2e4:	f6 01       	movw	r30, r12
     2e6:	03 81       	ldd	r16, Z+3	; 0x03
     2e8:	14 81       	ldd	r17, Z+4	; 0x04
     2ea:	25 81       	ldd	r18, Z+5	; 0x05
     2ec:	36 81       	ldd	r19, Z+6	; 0x06
     2ee:	60 91 1b 01 	lds	r22, 0x011B	; 0x80011b <Resistors+0x11>
     2f2:	70 91 1c 01 	lds	r23, 0x011C	; 0x80011c <Resistors+0x12>
     2f6:	80 91 1d 01 	lds	r24, 0x011D	; 0x80011d <Resistors+0x13>
     2fa:	90 91 1e 01 	lds	r25, 0x011E	; 0x80011e <Resistors+0x14>
     2fe:	e2 80       	ldd	r14, Z+2	; 0x02
     300:	40 91 1a 01 	lds	r20, 0x011A	; 0x80011a <Resistors+0x10>
     304:	0e 94 a6 06 	call	0xd4c	; 0xd4c <CmpValue>
     308:	81 30       	cpi	r24, 0x01	; 1
     30a:	e9 f0       	breq	.+58     	; 0x346 <Show_Resistor+0x144>

        R2++;                 /* next one */
      }

      /* get the two smaller resistors */
      if (R1 == Rmax) R1++;
     30c:	c1 e1       	ldi	r28, 0x11	; 17
     30e:	d1 e0       	ldi	r29, 0x01	; 1
     310:	fa e0       	ldi	r31, 0x0A	; 10
     312:	cf 16       	cp	r12, r31
     314:	f1 e0       	ldi	r31, 0x01	; 1
     316:	df 06       	cpc	r13, r31
     318:	11 f0       	breq	.+4      	; 0x31e <Show_Resistor+0x11c>
{
  Resistor_Type     *R1;           /* pointer to resistor #1 */
  Resistor_Type     *R2;           /* pointer to resistor #2 */
  uint8_t           Pin;           /* ID of common pin */

  R1 = &Resistors[0];              /* pointer to first resistor */
     31a:	ca e0       	ldi	r28, 0x0A	; 10
     31c:	d1 e0       	ldi	r29, 0x01	; 1
      }

      /* get the two smaller resistors */
      if (R1 == Rmax) R1++;
      R2 = R1;
      R2++;
     31e:	8e 01       	movw	r16, r28
     320:	09 5f       	subi	r16, 0xF9	; 249
     322:	1f 4f       	sbci	r17, 0xFF	; 255
      if (R2 == Rmax) R2++;
     324:	c0 16       	cp	r12, r16
     326:	d1 06       	cpc	r13, r17
     328:	11 f4       	brne	.+4      	; 0x32e <Show_Resistor+0x12c>
     32a:	09 5f       	subi	r16, 0xF9	; 249
     32c:	1f 4f       	sbci	r17, 0xFF	; 255
    }

    /* find common pin of both resistors */
    if ((R1->A == R2->A) || (R1->A == R2->B))
     32e:	88 81       	ld	r24, Y
     330:	f8 01       	movw	r30, r16
     332:	f0 80       	ld	r15, Z
     334:	8f 15       	cp	r24, r15
     336:	09 f4       	brne	.+2      	; 0x33a <Show_Resistor+0x138>
     338:	75 cf       	rjmp	.-278    	; 0x224 <Show_Resistor+0x22>
     33a:	f1 80       	ldd	r15, Z+1	; 0x01
     33c:	8f 15       	cp	r24, r15
     33e:	09 f4       	brne	.+2      	; 0x342 <Show_Resistor+0x140>
     340:	71 cf       	rjmp	.-286    	; 0x224 <Show_Resistor+0x22>
    {
      Pin = R1->A;            /* pin A */
    }
    else
    {
      Pin = R1->B;            /* pin B */
     342:	f9 80       	ldd	r15, Y+1	; 0x01
     344:	6f cf       	rjmp	.-290    	; 0x224 <Show_Resistor+0x22>
        if (CmpValue(R2->Value, R2->Scale, Rmax->Value, Rmax->Scale) == 1)
        {
          Rmax = R2;          /* update largest one */
        }

        R2++;                 /* next one */
     346:	88 e1       	ldi	r24, 0x18	; 24
     348:	c8 2e       	mov	r12, r24
     34a:	81 e0       	ldi	r24, 0x01	; 1
     34c:	d8 2e       	mov	r13, r24
     34e:	e5 cf       	rjmp	.-54     	; 0x31a <Show_Resistor+0x118>
  {
    Display_ProbeNumber(R1->A);    /* display pin A */
  }
  else                        /* single resistor or A is common pin */
  {
    Display_ProbeNumber(R1->B);    /* display pin B */
     350:	89 81       	ldd	r24, Y+1	; 0x01
     352:	6c cf       	rjmp	.-296    	; 0x22c <Show_Resistor+0x2a>
    {
      Display_ProbeNumber(R2->A);  /* display pin A */
    }
    else                      /* A is common pin */
    {
      Display_ProbeNumber(R2->B);  /* display pin B */
     354:	81 81       	ldd	r24, Z+1	; 0x01
     356:	7f cf       	rjmp	.-258    	; 0x256 <Show_Resistor+0x54>
  }
  #ifdef SW_INDUCTOR
  else                   /* single resistor */
  {
    /* get inductance and display if relevant */
    if (MeasureInductor(R1) == 1)       /* inductor */
     358:	ce 01       	movw	r24, r28
     35a:	0e 94 90 22 	call	0x4520	; 0x4520 <MeasureInductor>
     35e:	81 30       	cpi	r24, 0x01	; 1
     360:	09 f0       	breq	.+2      	; 0x364 <Show_Resistor+0x162>
     362:	94 cf       	rjmp	.-216    	; 0x28c <Show_Resistor+0x8a>
    {
      Display_Space();
     364:	0e 94 27 11 	call	0x224e	; 0x224e <Display_Space>
      Display_Value(Inductor.Value, Inductor.Scale, 'H');
     368:	60 91 d3 01 	lds	r22, 0x01D3	; 0x8001d3 <Inductor+0x1>
     36c:	70 91 d4 01 	lds	r23, 0x01D4	; 0x8001d4 <Inductor+0x2>
     370:	80 91 d5 01 	lds	r24, 0x01D5	; 0x8001d5 <Inductor+0x3>
     374:	90 91 d6 01 	lds	r25, 0x01D6	; 0x8001d6 <Inductor+0x4>
     378:	28 e4       	ldi	r18, 0x48	; 72
     37a:	40 91 d2 01 	lds	r20, 0x01D2	; 0x8001d2 <Inductor>
     37e:	84 cf       	rjmp	.-248    	; 0x288 <Show_Resistor+0x86>

00000380 <Show_Capacitor>:
/*
 *  show capacitor
 */

void Show_Capacitor(void)
{
     380:	ef 92       	push	r14
     382:	0f 93       	push	r16
     384:	1f 93       	push	r17
     386:	cf 93       	push	r28
     388:	df 93       	push	r29
  for (Counter = 1; Counter <= 2; Counter++)      /* loop through caps */
  {
    Cap++;                         /* next cap */

    /* check if next cap is larger than the currently largest */
    if (CmpValue(Cap->Value, Cap->Scale, MaxCap->Value, MaxCap->Scale) == 1)
     38a:	00 91 3b 01 	lds	r16, 0x013B	; 0x80013b <Caps+0x3>
     38e:	10 91 3c 01 	lds	r17, 0x013C	; 0x80013c <Caps+0x4>
     392:	20 91 3d 01 	lds	r18, 0x013D	; 0x80013d <Caps+0x5>
     396:	30 91 3e 01 	lds	r19, 0x013E	; 0x80013e <Caps+0x6>
     39a:	60 91 49 01 	lds	r22, 0x0149	; 0x800149 <Caps+0x11>
     39e:	70 91 4a 01 	lds	r23, 0x014A	; 0x80014a <Caps+0x12>
     3a2:	80 91 4b 01 	lds	r24, 0x014B	; 0x80014b <Caps+0x13>
     3a6:	90 91 4c 01 	lds	r25, 0x014C	; 0x80014c <Caps+0x14>
     3aa:	e0 90 3a 01 	lds	r14, 0x013A	; 0x80013a <Caps+0x2>
     3ae:	40 91 48 01 	lds	r20, 0x0148	; 0x800148 <Caps+0x10>
     3b2:	0e 94 a6 06 	call	0xd4c	; 0xd4c <CmpValue>
  MaxCap = &Caps[0];               /* pointer to first cap */
  Cap = MaxCap;                    /* also largest at the moment */

  for (Counter = 1; Counter <= 2; Counter++)      /* loop through caps */
  {
    Cap++;                         /* next cap */
     3b6:	c6 e4       	ldi	r28, 0x46	; 70
     3b8:	d1 e0       	ldi	r29, 0x01	; 1

    /* check if next cap is larger than the currently largest */
    if (CmpValue(Cap->Value, Cap->Scale, MaxCap->Value, MaxCap->Scale) == 1)
     3ba:	81 30       	cpi	r24, 0x01	; 1
     3bc:	11 f0       	breq	.+4      	; 0x3c2 <Show_Capacitor+0x42>

  /*
   *  find largest cap
   */

  MaxCap = &Caps[0];               /* pointer to first cap */
     3be:	c8 e3       	ldi	r28, 0x38	; 56
     3c0:	d1 e0       	ldi	r29, 0x01	; 1
  for (Counter = 1; Counter <= 2; Counter++)      /* loop through caps */
  {
    Cap++;                         /* next cap */

    /* check if next cap is larger than the currently largest */
    if (CmpValue(Cap->Value, Cap->Scale, MaxCap->Value, MaxCap->Scale) == 1)
     3c2:	0b 81       	ldd	r16, Y+3	; 0x03
     3c4:	1c 81       	ldd	r17, Y+4	; 0x04
     3c6:	2d 81       	ldd	r18, Y+5	; 0x05
     3c8:	3e 81       	ldd	r19, Y+6	; 0x06
     3ca:	60 91 57 01 	lds	r22, 0x0157	; 0x800157 <Caps+0x1f>
     3ce:	70 91 58 01 	lds	r23, 0x0158	; 0x800158 <Caps+0x20>
     3d2:	80 91 59 01 	lds	r24, 0x0159	; 0x800159 <Caps+0x21>
     3d6:	90 91 5a 01 	lds	r25, 0x015A	; 0x80015a <Caps+0x22>
     3da:	ea 80       	ldd	r14, Y+2	; 0x02
     3dc:	40 91 56 01 	lds	r20, 0x0156	; 0x800156 <Caps+0x1e>
     3e0:	0e 94 a6 06 	call	0xd4c	; 0xd4c <CmpValue>
     3e4:	81 30       	cpi	r24, 0x01	; 1
     3e6:	11 f4       	brne	.+4      	; 0x3ec <Show_Capacitor+0x6c>
  MaxCap = &Caps[0];               /* pointer to first cap */
  Cap = MaxCap;                    /* also largest at the moment */

  for (Counter = 1; Counter <= 2; Counter++)      /* loop through caps */
  {
    Cap++;                         /* next cap */
     3e8:	c4 e5       	ldi	r28, 0x54	; 84
     3ea:	d1 e0       	ldi	r29, 0x01	; 1

  #ifdef UI_COLORED_TITLES
  Display_UseTitleColor();         /* use title color */
  #endif

  Display_ProbeNumber(MaxCap->A);  /* display pin #1 */
     3ec:	88 81       	ld	r24, Y
     3ee:	0e 94 1e 11 	call	0x223c	; 0x223c <Display_ProbeNumber>
  Display_EEString(Cap_str);       /* display capacitor symbol */
     3f2:	8f ed       	ldi	r24, 0xDF	; 223
     3f4:	90 e0       	ldi	r25, 0x00	; 0
     3f6:	0e 94 0f 11 	call	0x221e	; 0x221e <Display_EEString>
  Display_ProbeNumber(MaxCap->B);  /* display pin #2 */
     3fa:	89 81       	ldd	r24, Y+1	; 0x01
     3fc:	0e 94 1e 11 	call	0x223c	; 0x223c <Display_ProbeNumber>
  /*
   *  display capacitance in line #2, optionally ESR
   */

  /* display capacitance */
  Display_NextLine();              /* move to next line */
     400:	0e 94 ed 10 	call	0x21da	; 0x21da <Display_NextLine>
  Display_Value(MaxCap->Value, MaxCap->Scale, 'F');
     404:	6b 81       	ldd	r22, Y+3	; 0x03
     406:	7c 81       	ldd	r23, Y+4	; 0x04
     408:	8d 81       	ldd	r24, Y+5	; 0x05
     40a:	9e 81       	ldd	r25, Y+6	; 0x06
     40c:	26 e4       	ldi	r18, 0x46	; 70
     40e:	4a 81       	ldd	r20, Y+2	; 0x02
     410:	0e 94 74 11 	call	0x22e8	; 0x22e8 <Display_Value>

  #if defined (SW_ESR) || defined (SW_OLD_ESR)
  /* measure and display ESR */
  ESR = MeasureESR(MaxCap);        /* measure ESR */
     414:	ce 01       	movw	r24, r28
     416:	0e 94 5b 15 	call	0x2ab6	; 0x2ab6 <MeasureESR>
     41a:	8c 01       	movw	r16, r24
  if (ESR < UINT16_MAX)            /* if successful */
     41c:	0f 3f       	cpi	r16, 0xFF	; 255
     41e:	10 07       	cpc	r17, r16
     420:	49 f0       	breq	.+18     	; 0x434 <__EEPROM_REGION_LENGTH__+0x34>
  {
    Display_Space();
     422:	0e 94 27 11 	call	0x224e	; 0x224e <Display_Space>
    Display_Value(ESR, -2, LCD_CHAR_OMEGA);  /* display ESR */
     426:	b8 01       	movw	r22, r16
     428:	90 e0       	ldi	r25, 0x00	; 0
     42a:	80 e0       	ldi	r24, 0x00	; 0
     42c:	24 e0       	ldi	r18, 0x04	; 4
     42e:	4e ef       	ldi	r20, 0xFE	; 254
     430:	0e 94 74 11 	call	0x22e8	; 0x22e8 <Display_Value>
  /*
   *  display additional stuff
   */

  /* display self-discharge equivalent leakage current */
  if (MaxCap->I_leak_Value > 0)         /* got value */
     434:	8b 85       	ldd	r24, Y+11	; 0x0b
     436:	9c 85       	ldd	r25, Y+12	; 0x0c
     438:	89 2b       	or	r24, r25
     43a:	61 f0       	breq	.+24     	; 0x454 <__EEPROM_REGION_LENGTH__+0x54>
  {
    Display_NL_EEString_Space(I_leak_str);
     43c:	87 e3       	ldi	r24, 0x37	; 55
     43e:	91 e0       	ldi	r25, 0x01	; 1
     440:	0e 94 43 11 	call	0x2286	; 0x2286 <Display_NL_EEString_Space>
    Display_Value(MaxCap->I_leak_Value, MaxCap->I_leak_Scale, 'A');  /* in A */
     444:	6b 85       	ldd	r22, Y+11	; 0x0b
     446:	7c 85       	ldd	r23, Y+12	; 0x0c
     448:	90 e0       	ldi	r25, 0x00	; 0
     44a:	80 e0       	ldi	r24, 0x00	; 0
     44c:	21 e4       	ldi	r18, 0x41	; 65
     44e:	4d 85       	ldd	r20, Y+13	; 0x0d
     450:	0e 94 74 11 	call	0x22e8	; 0x22e8 <Display_Value>

  #ifdef SW_C_E12_T
  /* show E series norm values for E12 10% */
  Show_ENormValues(MaxCap->Value, MaxCap->Scale, E12, 100, 'F');
  #endif
}
     454:	df 91       	pop	r29
     456:	cf 91       	pop	r28
     458:	1f 91       	pop	r17
     45a:	0f 91       	pop	r16
     45c:	ef 90       	pop	r14
     45e:	08 95       	ret

00000460 <Show_SemiCurrent>:
 *  - I_value - current 
 *  - I_scale - scale for current (10^x)
 */

void Show_SemiCurrent(const unsigned char *String)
{
     460:	ef 92       	push	r14
     462:	0f 93       	push	r16
     464:	1f 93       	push	r17
     466:	cf 93       	push	r28
     468:	df 93       	push	r29
     46a:	ec 01       	movw	r28, r24
  if (CmpValue(Semi.I_value, Semi.I_scale, 10, -9) >= 0)  /* show if >= 10nA */
     46c:	60 91 ab 01 	lds	r22, 0x01AB	; 0x8001ab <Semi+0x11>
     470:	70 91 ac 01 	lds	r23, 0x01AC	; 0x8001ac <Semi+0x12>
     474:	80 91 ad 01 	lds	r24, 0x01AD	; 0x8001ad <Semi+0x13>
     478:	90 91 ae 01 	lds	r25, 0x01AE	; 0x8001ae <Semi+0x14>
     47c:	27 ef       	ldi	r18, 0xF7	; 247
     47e:	e2 2e       	mov	r14, r18
     480:	0a e0       	ldi	r16, 0x0A	; 10
     482:	10 e0       	ldi	r17, 0x00	; 0
     484:	20 e0       	ldi	r18, 0x00	; 0
     486:	30 e0       	ldi	r19, 0x00	; 0
     488:	40 91 af 01 	lds	r20, 0x01AF	; 0x8001af <Semi+0x15>
     48c:	0e 94 a6 06 	call	0xd4c	; 0xd4c <CmpValue>
     490:	87 fd       	sbrc	r24, 7
     492:	10 c0       	rjmp	.+32     	; 0x4b4 <Show_SemiCurrent+0x54>
  {
    Display_NL_EEString_Space(String);               /* display: <string> */
     494:	ce 01       	movw	r24, r28
     496:	0e 94 43 11 	call	0x2286	; 0x2286 <Display_NL_EEString_Space>
    Display_Value(Semi.I_value, Semi.I_scale, 'A');  /* display current */
     49a:	60 91 ab 01 	lds	r22, 0x01AB	; 0x8001ab <Semi+0x11>
     49e:	70 91 ac 01 	lds	r23, 0x01AC	; 0x8001ac <Semi+0x12>
     4a2:	80 91 ad 01 	lds	r24, 0x01AD	; 0x8001ad <Semi+0x13>
     4a6:	90 91 ae 01 	lds	r25, 0x01AE	; 0x8001ae <Semi+0x14>
     4aa:	21 e4       	ldi	r18, 0x41	; 65
     4ac:	40 91 af 01 	lds	r20, 0x01AF	; 0x8001af <Semi+0x15>
     4b0:	0e 94 74 11 	call	0x22e8	; 0x22e8 <Display_Value>
  }
}
     4b4:	df 91       	pop	r29
     4b6:	cf 91       	pop	r28
     4b8:	1f 91       	pop	r17
     4ba:	0f 91       	pop	r16
     4bc:	ef 90       	pop	r14
     4be:	08 95       	ret

000004c0 <Show_Diode_Cap>:
 */

void Show_Diode_Cap(Diode_Type *Diode)
{
  /* get capacitance (reversed direction) */
  MeasureCap(Diode->C, Diode->A, 0);
     4c0:	40 e0       	ldi	r20, 0x00	; 0
     4c2:	fc 01       	movw	r30, r24
     4c4:	60 81       	ld	r22, Z
     4c6:	81 81       	ldd	r24, Z+1	; 0x01
     4c8:	0e 94 59 19 	call	0x32b2	; 0x32b2 <MeasureCap>

  /* and show capacitance */
  Display_Value(Caps[0].Value, Caps[0].Scale, 'F');
     4cc:	e8 e3       	ldi	r30, 0x38	; 56
     4ce:	f1 e0       	ldi	r31, 0x01	; 1
     4d0:	63 81       	ldd	r22, Z+3	; 0x03
     4d2:	74 81       	ldd	r23, Z+4	; 0x04
     4d4:	85 81       	ldd	r24, Z+5	; 0x05
     4d6:	96 81       	ldd	r25, Z+6	; 0x06
     4d8:	26 e4       	ldi	r18, 0x46	; 70
     4da:	42 81       	ldd	r20, Z+2	; 0x02
     4dc:	0e 94 74 11 	call	0x22e8	; 0x22e8 <Display_Value>
}
     4e0:	08 95       	ret

000004e2 <Show_SemiFlybackDiode>:
 *  - Anode:   probe ID of anode [0-2]
 *  - Cathode: probe ID of cathode [0-2]
 */

void Show_SemiFlybackDiode(uint8_t Anode, uint8_t Cathode)
{
     4e2:	cf 93       	push	r28
     4e4:	c6 2f       	mov	r28, r22
  Display_SemiPinDesignator(Anode);     /* designator for anode side */
     4e6:	0e 94 22 11 	call	0x2244	; 0x2244 <Display_SemiPinDesignator>
  Display_Char(LCD_CHAR_DIODE_AC);      /* diode symbol |>| */
     4ea:	81 e0       	ldi	r24, 0x01	; 1
     4ec:	0e 94 fe 2a 	call	0x55fc	; 0x55fc <LCD_Char>
  Display_SemiPinDesignator(Cathode);   /* designator for cathode side */
     4f0:	8c 2f       	mov	r24, r28
     4f2:	0e 94 22 11 	call	0x2244	; 0x2244 <Display_SemiPinDesignator>
}
     4f6:	cf 91       	pop	r28
     4f8:	08 95       	ret

000004fa <Show_Diode>:
/*
 *  show diode(s)
 */

void Show_Diode(void)
{
     4fa:	b0 e0       	ldi	r27, 0x00	; 0
     4fc:	a0 e0       	ldi	r26, 0x00	; 0
     4fe:	e3 e8       	ldi	r30, 0x83	; 131
     500:	f2 e0       	ldi	r31, 0x02	; 2
     502:	0c 94 75 2d 	jmp	0x5aea	; 0x5aea <__prologue_saves__+0x12>

  /*
   *  figure out which diodes to display
   */

  if (Check.Diodes == 1)           /* single diode */
     506:	e0 90 06 01 	lds	r14, 0x0106	; 0x800106 <Check+0x5>
     50a:	81 e0       	ldi	r24, 0x01	; 1
     50c:	e8 12       	cpse	r14, r24
     50e:	0d c0       	rjmp	.+26     	; 0x52a <Show_Diode+0x30>
  {
    C = D1->C;                     /* make anode first pin */
     510:	b0 90 63 01 	lds	r11, 0x0163	; 0x800163 <Diodes+0x1>
  Diode_Type        *D2 = NULL;    /* pointer to diode #2 */
  uint8_t           CapFlag = 1;   /* flag for capacitance output */
  uint8_t           A = 5;         /* ID of common anode */
  uint8_t           C = 5;         /* ID of common cathode */
  uint8_t           R_Pin1 = 5;    /* B_E resistor's pin #1 */
  uint8_t           R_Pin2 = 5;    /* B_E resistor's pin #2 */
     514:	a5 e0       	ldi	r26, 0x05	; 5
     516:	da 2e       	mov	r13, r26
  Diode_Type        *D1;           /* pointer to diode #1 */
  Diode_Type        *D2 = NULL;    /* pointer to diode #2 */
  uint8_t           CapFlag = 1;   /* flag for capacitance output */
  uint8_t           A = 5;         /* ID of common anode */
  uint8_t           C = 5;         /* ID of common cathode */
  uint8_t           R_Pin1 = 5;    /* B_E resistor's pin #1 */
     518:	b5 e0       	ldi	r27, 0x05	; 5
     51a:	cb 2e       	mov	r12, r27
void Show_Diode(void)
{
  Diode_Type        *D1;           /* pointer to diode #1 */
  Diode_Type        *D2 = NULL;    /* pointer to diode #2 */
  uint8_t           CapFlag = 1;   /* flag for capacitance output */
  uint8_t           A = 5;         /* ID of common anode */
     51c:	c5 e0       	ldi	r28, 0x05	; 5
     51e:	fc 2e       	mov	r15, r28
 */

void Show_Diode(void)
{
  Diode_Type        *D1;           /* pointer to diode #1 */
  Diode_Type        *D2 = NULL;    /* pointer to diode #2 */
     520:	d0 e0       	ldi	r29, 0x00	; 0
     522:	c0 e0       	ldi	r28, 0x00	; 0
     524:	02 e6       	ldi	r16, 0x62	; 98
     526:	11 e0       	ldi	r17, 0x01	; 1
     528:	66 c0       	rjmp	.+204    	; 0x5f6 <Show_Diode+0xfc>

  if (Check.Diodes == 1)           /* single diode */
  {
    C = D1->C;                     /* make anode first pin */
  }
  else if (Check.Diodes == 2)      /* two diodes */
     52a:	92 e0       	ldi	r25, 0x02	; 2
     52c:	e9 12       	cpse	r14, r25
     52e:	1a c0       	rjmp	.+52     	; 0x564 <Show_Diode+0x6a>
  {
    D2 = D1;                       /* copy pointer to first diode */
    D2++;                          /* pointer to second diode */

    if (D1->A == D2->A)            /* common anode */
     530:	f0 90 62 01 	lds	r15, 0x0162	; 0x800162 <Diodes>
     534:	90 91 68 01 	lds	r25, 0x0168	; 0x800168 <Diodes+0x6>
     538:	80 91 63 01 	lds	r24, 0x0163	; 0x800163 <Diodes+0x1>
     53c:	d0 90 69 01 	lds	r13, 0x0169	; 0x800169 <Diodes+0x7>
     540:	f9 16       	cp	r15, r25
     542:	09 f4       	brne	.+2      	; 0x546 <Show_Diode+0x4c>
     544:	92 c0       	rjmp	.+292    	; 0x66a <Show_Diode+0x170>

      /* possible PNP BJT with low value B-E resistor and flyback diode */
      R_Pin1 = D1->C;
      R_Pin2 = D2->C;
    }
    else if (D1->C == D2->C)       /* common cathode */
     546:	d8 16       	cp	r13, r24
     548:	09 f4       	brne	.+2      	; 0x54c <Show_Diode+0x52>
     54a:	b1 c0       	rjmp	.+354    	; 0x6ae <Show_Diode+0x1b4>

      /* possible NPN BJT with low value B-E resistor and flyback diode */
      R_Pin1 = D1->A;
      R_Pin2 = D2->A;
    }
    else if ((D1->A == D2->C) && (D1->C == D2->A))   /* anti-parallel */
     54c:	fd 10       	cpse	r15, r13
     54e:	03 c0       	rjmp	.+6      	; 0x556 <Show_Diode+0x5c>
     550:	98 17       	cp	r25, r24
     552:	09 f4       	brne	.+2      	; 0x556 <Show_Diode+0x5c>
     554:	a5 c0       	rjmp	.+330    	; 0x6a0 <Show_Diode+0x1a6>
  Diode_Type        *D2 = NULL;    /* pointer to diode #2 */
  uint8_t           CapFlag = 1;   /* flag for capacitance output */
  uint8_t           A = 5;         /* ID of common anode */
  uint8_t           C = 5;         /* ID of common cathode */
  uint8_t           R_Pin1 = 5;    /* B_E resistor's pin #1 */
  uint8_t           R_Pin2 = 5;    /* B_E resistor's pin #2 */
     556:	95 e0       	ldi	r25, 0x05	; 5
     558:	d9 2e       	mov	r13, r25
  Diode_Type        *D1;           /* pointer to diode #1 */
  Diode_Type        *D2 = NULL;    /* pointer to diode #2 */
  uint8_t           CapFlag = 1;   /* flag for capacitance output */
  uint8_t           A = 5;         /* ID of common anode */
  uint8_t           C = 5;         /* ID of common cathode */
  uint8_t           R_Pin1 = 5;    /* B_E resistor's pin #1 */
     55a:	25 e0       	ldi	r18, 0x05	; 5
     55c:	c2 2e       	mov	r12, r18
{
  Diode_Type        *D1;           /* pointer to diode #1 */
  Diode_Type        *D2 = NULL;    /* pointer to diode #2 */
  uint8_t           CapFlag = 1;   /* flag for capacitance output */
  uint8_t           A = 5;         /* ID of common anode */
  uint8_t           C = 5;         /* ID of common cathode */
     55e:	35 e0       	ldi	r19, 0x05	; 5
     560:	b3 2e       	mov	r11, r19
     562:	a8 c0       	rjmp	.+336    	; 0x6b4 <Show_Diode+0x1ba>
      A = D1->A;                   /* anode and cathode */
      C = A;                       /* are the same */
      CapFlag = 0;                 /* skip capacitance */
    }
  }
  else if (Check.Diodes == 3)      /* three diodes */
     564:	e3 e0       	ldi	r30, 0x03	; 3
     566:	ee 12       	cpse	r14, r30
     568:	72 c0       	rjmp	.+228    	; 0x64e <Show_Diode+0x154>
     *  Two diodes in series are detected as a virtual third diode:
     *  - Check for any possible way the 2 diodes could be connected in series.
     *  - Only once the cathode of diode #1 matches the anode of diode #2.
     */

    for (n = 0; n <= 2; n++)       /* loop for first diode */
     56a:	00 e0       	ldi	r16, 0x00	; 0
      {
        D2 = &Diodes[m];           /* get pointer of second diode */

        if (n != m)                /* don't check same diode :-) */
        {
          if (D1->C == D2->A)      /* got match */
     56c:	46 e0       	ldi	r20, 0x06	; 6
     *  - Only once the cathode of diode #1 matches the anode of diode #2.
     */

    for (n = 0; n <= 2; n++)       /* loop for first diode */
    {
      D1 = &Diodes[n];             /* get pointer of first diode */
     56e:	20 2f       	mov	r18, r16
     570:	30 e0       	ldi	r19, 0x00	; 0
     572:	80 2f       	mov	r24, r16

      for (m = 0; m <= 2; m++)     /* loop for second diode */
     574:	c0 e0       	ldi	r28, 0x00	; 0
      {
        D2 = &Diodes[m];           /* get pointer of second diode */

        if (n != m)                /* don't check same diode :-) */
        {
          if (D1->C == D2->A)      /* got match */
     576:	42 9f       	mul	r20, r18
     578:	f0 01       	movw	r30, r0
     57a:	43 9f       	mul	r20, r19
     57c:	f0 0d       	add	r31, r0
     57e:	11 24       	eor	r1, r1
     580:	ed 59       	subi	r30, 0x9D	; 157
     582:	fe 4f       	sbci	r31, 0xFE	; 254
    {
      D1 = &Diodes[n];             /* get pointer of first diode */

      for (m = 0; m <= 2; m++)     /* loop for second diode */
      {
        D2 = &Diodes[m];           /* get pointer of second diode */
     584:	6c 2f       	mov	r22, r28
     586:	70 e0       	ldi	r23, 0x00	; 0
     588:	98 2f       	mov	r25, r24

        if (n != m)                /* don't check same diode :-) */
     58a:	8c 17       	cp	r24, r28
     58c:	69 f0       	breq	.+26     	; 0x5a8 <Show_Diode+0xae>
        {
          if (D1->C == D2->A)      /* got match */
     58e:	46 9f       	mul	r20, r22
     590:	d0 01       	movw	r26, r0
     592:	47 9f       	mul	r20, r23
     594:	b0 0d       	add	r27, r0
     596:	11 24       	eor	r1, r1
     598:	ae 59       	subi	r26, 0x9E	; 158
     59a:	be 4f       	sbci	r27, 0xFE	; 254
     59c:	50 81       	ld	r21, Z
     59e:	9c 91       	ld	r25, X
     5a0:	59 17       	cp	r21, r25
     5a2:	09 f4       	brne	.+2      	; 0x5a6 <Show_Diode+0xac>
     5a4:	4e c0       	rjmp	.+156    	; 0x642 <Show_Diode+0x148>
     5a6:	9c 2f       	mov	r25, r28

    for (n = 0; n <= 2; n++)       /* loop for first diode */
    {
      D1 = &Diodes[n];             /* get pointer of first diode */

      for (m = 0; m <= 2; m++)     /* loop for second diode */
     5a8:	9f 5f       	subi	r25, 0xFF	; 255
     5aa:	93 30       	cpi	r25, 0x03	; 3
     5ac:	08 f4       	brcc	.+2      	; 0x5b0 <Show_Diode+0xb6>
     5ae:	47 c0       	rjmp	.+142    	; 0x63e <Show_Diode+0x144>
     *  Two diodes in series are detected as a virtual third diode:
     *  - Check for any possible way the 2 diodes could be connected in series.
     *  - Only once the cathode of diode #1 matches the anode of diode #2.
     */

    for (n = 0; n <= 2; n++)       /* loop for first diode */
     5b0:	8f 5f       	subi	r24, 0xFF	; 255
     5b2:	83 30       	cpi	r24, 0x03	; 3
     5b4:	08 f4       	brcc	.+2      	; 0x5b8 <Show_Diode+0xbe>
     5b6:	41 c0       	rjmp	.+130    	; 0x63a <Show_Diode+0x140>
          }
        }
      }
    }

    if (n < 5) D2 = NULL;          /* no match found */
     5b8:	85 30       	cpi	r24, 0x05	; 5
     5ba:	08 f4       	brcc	.+2      	; 0x5be <Show_Diode+0xc4>
     5bc:	45 c0       	rjmp	.+138    	; 0x648 <Show_Diode+0x14e>
    {
      D1 = &Diodes[n];             /* get pointer of first diode */

      for (m = 0; m <= 2; m++)     /* loop for second diode */
      {
        D2 = &Diodes[m];           /* get pointer of second diode */
     5be:	f6 e0       	ldi	r31, 0x06	; 6
     5c0:	cf 9f       	mul	r28, r31
     5c2:	e0 01       	movw	r28, r0
     5c4:	11 24       	eor	r1, r1
     5c6:	ce 59       	subi	r28, 0x9E	; 158
     5c8:	de 4f       	sbci	r29, 0xFE	; 254
     *  - Only once the cathode of diode #1 matches the anode of diode #2.
     */

    for (n = 0; n <= 2; n++)       /* loop for first diode */
    {
      D1 = &Diodes[n];             /* get pointer of first diode */
     5ca:	86 e0       	ldi	r24, 0x06	; 6
     5cc:	08 9f       	mul	r16, r24
     5ce:	80 01       	movw	r16, r0
     5d0:	11 24       	eor	r1, r1
     5d2:	0e 59       	subi	r16, 0x9E	; 158
     5d4:	1e 4f       	sbci	r17, 0xFE	; 254
        }
      }
    }

    if (n < 5) D2 = NULL;          /* no match found */
    C = D1->C;                     /* cathode of first diode */
     5d6:	82 9f       	mul	r24, r18
     5d8:	f0 01       	movw	r30, r0
     5da:	83 9f       	mul	r24, r19
     5dc:	f0 0d       	add	r31, r0
     5de:	11 24       	eor	r1, r1
     5e0:	ee 59       	subi	r30, 0x9E	; 158
     5e2:	fe 4f       	sbci	r31, 0xFE	; 254
     5e4:	b1 80       	ldd	r11, Z+1	; 0x01
    A = 3;                         /* in series mode */
     5e6:	73 e0       	ldi	r23, 0x03	; 3
     5e8:	f7 2e       	mov	r15, r23
  Diode_Type        *D2 = NULL;    /* pointer to diode #2 */
  uint8_t           CapFlag = 1;   /* flag for capacitance output */
  uint8_t           A = 5;         /* ID of common anode */
  uint8_t           C = 5;         /* ID of common cathode */
  uint8_t           R_Pin1 = 5;    /* B_E resistor's pin #1 */
  uint8_t           R_Pin2 = 5;    /* B_E resistor's pin #2 */
     5ea:	e5 e0       	ldi	r30, 0x05	; 5
     5ec:	de 2e       	mov	r13, r30
  Diode_Type        *D1;           /* pointer to diode #1 */
  Diode_Type        *D2 = NULL;    /* pointer to diode #2 */
  uint8_t           CapFlag = 1;   /* flag for capacitance output */
  uint8_t           A = 5;         /* ID of common anode */
  uint8_t           C = 5;         /* ID of common cathode */
  uint8_t           R_Pin1 = 5;    /* B_E resistor's pin #1 */
     5ee:	f5 e0       	ldi	r31, 0x05	; 5
     5f0:	cf 2e       	mov	r12, r31
     5f2:	ee 24       	eor	r14, r14
     5f4:	e3 94       	inc	r14
    Display_EEString(Diode_CA_str);     /* show -|<- */
    Display_ProbeNumber(A);             /* show A */
  }
  else              /* single, common cathode or in-series: show A first */
  {
    Display_ProbeNumber(D1->A);         /* show A */
     5f6:	f8 01       	movw	r30, r16
     5f8:	80 81       	ld	r24, Z
     5fa:	0e 94 1e 11 	call	0x223c	; 0x223c <Display_ProbeNumber>
    Display_EEString(Diode_AC_str);     /* show ->|- */
     5fe:	8b ed       	ldi	r24, 0xDB	; 219
     600:	90 e0       	ldi	r25, 0x00	; 0
     602:	0e 94 0f 11 	call	0x221e	; 0x221e <Display_EEString>
    Display_ProbeNumber(C);             /* show C */
     606:	8b 2d       	mov	r24, r11
     608:	0e 94 1e 11 	call	0x223c	; 0x223c <Display_ProbeNumber>
  }

  if (D2)           /* second diode */
     60c:	20 97       	sbiw	r28, 0x00	; 0
     60e:	09 f0       	breq	.+2      	; 0x612 <Show_Diode+0x118>
     610:	41 c0       	rjmp	.+130    	; 0x694 <Show_Diode+0x19a>

  /*
   *  check for B-E resistor of possible BJT
   */

  if (R_Pin1 < 5)                  /* possible BJT */
     612:	f4 e0       	ldi	r31, 0x04	; 4
     614:	fc 15       	cp	r31, r12
     616:	08 f0       	brcs	.+2      	; 0x61a <Show_Diode+0x120>
     618:	62 c0       	rjmp	.+196    	; 0x6de <Show_Diode+0x1e4>
   *  - reverse leakage current (for single diode)
   *  - capacitance (not for anti-parallel diodes)
   */

  /* display Uf */
  Display_NL_EEString_Space(Vf_str);    /* display: Vf */
     61a:	8b e8       	ldi	r24, 0x8B	; 139
     61c:	91 e0       	ldi	r25, 0x01	; 1
     61e:	0e 94 43 11 	call	0x2286	; 0x2286 <Display_NL_EEString_Space>

  /* first diode */
  Display_Value(D1->V_f, -3, 'V');      /* in mV */
     622:	f8 01       	movw	r30, r16
     624:	62 81       	ldd	r22, Z+2	; 0x02
     626:	73 81       	ldd	r23, Z+3	; 0x03
     628:	90 e0       	ldi	r25, 0x00	; 0
     62a:	80 e0       	ldi	r24, 0x00	; 0
     62c:	26 e5       	ldi	r18, 0x56	; 86
     62e:	4d ef       	ldi	r20, 0xFD	; 253
     630:	0e 94 74 11 	call	0x22e8	; 0x22e8 <Display_Value>

  Display_Space();
     634:	0e 94 27 11 	call	0x224e	; 0x224e <Display_Space>
     638:	80 c0       	rjmp	.+256    	; 0x73a <Show_Diode+0x240>
     63a:	08 2f       	mov	r16, r24
     63c:	98 cf       	rjmp	.-208    	; 0x56e <Show_Diode+0x74>
     63e:	c9 2f       	mov	r28, r25
     640:	a1 cf       	rjmp	.-190    	; 0x584 <Show_Diode+0x8a>
        if (n != m)                /* don't check same diode :-) */
        {
          if (D1->C == D2->A)      /* got match */
          {
            n = 5;                 /* end loops */
            m = 5;
     642:	95 e0       	ldi	r25, 0x05	; 5

        if (n != m)                /* don't check same diode :-) */
        {
          if (D1->C == D2->A)      /* got match */
          {
            n = 5;                 /* end loops */
     644:	85 e0       	ldi	r24, 0x05	; 5
     646:	b0 cf       	rjmp	.-160    	; 0x5a8 <Show_Diode+0xae>
          }
        }
      }
    }

    if (n < 5) D2 = NULL;          /* no match found */
     648:	d0 e0       	ldi	r29, 0x00	; 0
     64a:	c0 e0       	ldi	r28, 0x00	; 0
     64c:	be cf       	rjmp	.-132    	; 0x5ca <Show_Diode+0xd0>
    A = 3;                         /* in series mode */
  }
  else                             /* too many diodes */
  {
    /* display number of diodes found in line #1 */
    Display_EEString_Space(Diode_AC_str);    /* display: -|>|- */
     64e:	8b ed       	ldi	r24, 0xDB	; 219
     650:	90 e0       	ldi	r25, 0x00	; 0
     652:	0e 94 33 11 	call	0x2266	; 0x2266 <Display_EEString_Space>
    Display_Char('0' + Check.Diodes);        /* display number of diodes */
     656:	80 91 06 01 	lds	r24, 0x0106	; 0x800106 <Check+0x5>
     65a:	80 5d       	subi	r24, 0xD0	; 208
     65c:	0e 94 fe 2a 	call	0x55fc	; 0x55fc <LCD_Char>
      MeasureCap(D2->C, D2->A, 1);      /* get capacitance (reversed direction) */
      Display_Value(Caps[1].Value, Caps[1].Scale, 'F');
    }
    #endif
  }
}
     660:	cd b7       	in	r28, 0x3d	; 61
     662:	de b7       	in	r29, 0x3e	; 62
     664:	e9 e0       	ldi	r30, 0x09	; 9
     666:	0c 94 91 2d 	jmp	0x5b22	; 0x5b22 <__epilogue_restores__+0x12>
     66a:	c8 2e       	mov	r12, r24
{
  Diode_Type        *D1;           /* pointer to diode #1 */
  Diode_Type        *D2 = NULL;    /* pointer to diode #2 */
  uint8_t           CapFlag = 1;   /* flag for capacitance output */
  uint8_t           A = 5;         /* ID of common anode */
  uint8_t           C = 5;         /* ID of common cathode */
     66c:	65 e0       	ldi	r22, 0x05	; 5
     66e:	b6 2e       	mov	r11, r22

void Show_Diode(void)
{
  Diode_Type        *D1;           /* pointer to diode #1 */
  Diode_Type        *D2 = NULL;    /* pointer to diode #2 */
  uint8_t           CapFlag = 1;   /* flag for capacitance output */
     670:	ee 24       	eor	r14, r14
     672:	e3 94       	inc	r14
  /*
   *  display diode(s) and pinout in line #1
   */

  /* first diode */
  if (A < 3)        /* common anode or anti-parallel: show C first */
     674:	92 e0       	ldi	r25, 0x02	; 2
     676:	9f 15       	cp	r25, r15
     678:	08 f1       	brcs	.+66     	; 0x6bc <Show_Diode+0x1c2>
  {
    Display_ProbeNumber(D1->C);         /* show C */
     67a:	0e 94 1e 11 	call	0x223c	; 0x223c <Display_ProbeNumber>
    Display_EEString(Diode_CA_str);     /* show -|<- */
     67e:	87 ed       	ldi	r24, 0xD7	; 215
     680:	90 e0       	ldi	r25, 0x00	; 0
     682:	0e 94 0f 11 	call	0x221e	; 0x221e <Display_EEString>
    Display_ProbeNumber(A);             /* show A */
     686:	8f 2d       	mov	r24, r15
     688:	0e 94 1e 11 	call	0x223c	; 0x223c <Display_ProbeNumber>
     68c:	c8 e6       	ldi	r28, 0x68	; 104
     68e:	d1 e0       	ldi	r29, 0x01	; 1
     690:	02 e6       	ldi	r16, 0x62	; 98
     692:	11 e0       	ldi	r17, 0x01	; 1
    Display_ProbeNumber(C);             /* show C */
  }

  if (D2)           /* second diode */
  {
    if (A == C)          /* anti-parallel */
     694:	bf 10       	cpse	r11, r15
     696:	15 c0       	rjmp	.+42     	; 0x6c2 <Show_Diode+0x1c8>
      n = D2->C;                        /* get cathode */
      Display_EEString(Diode_AC_str);   /* show ->|- */
    }
    else                 /* common cathode */
    {
      n = D2->A;                        /* get anode */
     698:	b8 80       	ld	r11, Y
      Display_EEString(Diode_CA_str);   /* show -|<- */
     69a:	87 ed       	ldi	r24, 0xD7	; 215
     69c:	90 e0       	ldi	r25, 0x00	; 0
     69e:	17 c0       	rjmp	.+46     	; 0x6ce <Show_Diode+0x1d4>
     6a0:	bf 2c       	mov	r11, r15
  Diode_Type        *D2 = NULL;    /* pointer to diode #2 */
  uint8_t           CapFlag = 1;   /* flag for capacitance output */
  uint8_t           A = 5;         /* ID of common anode */
  uint8_t           C = 5;         /* ID of common cathode */
  uint8_t           R_Pin1 = 5;    /* B_E resistor's pin #1 */
  uint8_t           R_Pin2 = 5;    /* B_E resistor's pin #2 */
     6a2:	45 e0       	ldi	r20, 0x05	; 5
     6a4:	d4 2e       	mov	r13, r20
  Diode_Type        *D1;           /* pointer to diode #1 */
  Diode_Type        *D2 = NULL;    /* pointer to diode #2 */
  uint8_t           CapFlag = 1;   /* flag for capacitance output */
  uint8_t           A = 5;         /* ID of common anode */
  uint8_t           C = 5;         /* ID of common cathode */
  uint8_t           R_Pin1 = 5;    /* B_E resistor's pin #1 */
     6a6:	55 e0       	ldi	r21, 0x05	; 5
     6a8:	c5 2e       	mov	r12, r21
    }
    else if ((D1->A == D2->C) && (D1->C == D2->A))   /* anti-parallel */
    {
      A = D1->A;                   /* anode and cathode */
      C = A;                       /* are the same */
      CapFlag = 0;                 /* skip capacitance */
     6aa:	e1 2c       	mov	r14, r1
     6ac:	e3 cf       	rjmp	.-58     	; 0x674 <Show_Diode+0x17a>
     6ae:	d9 2e       	mov	r13, r25
     6b0:	cf 2c       	mov	r12, r15
     6b2:	b8 2e       	mov	r11, r24
void Show_Diode(void)
{
  Diode_Type        *D1;           /* pointer to diode #1 */
  Diode_Type        *D2 = NULL;    /* pointer to diode #2 */
  uint8_t           CapFlag = 1;   /* flag for capacitance output */
  uint8_t           A = 5;         /* ID of common anode */
     6b4:	85 e0       	ldi	r24, 0x05	; 5
     6b6:	f8 2e       	mov	r15, r24
     6b8:	ee 24       	eor	r14, r14
     6ba:	e3 94       	inc	r14
     6bc:	c8 e6       	ldi	r28, 0x68	; 104
     6be:	d1 e0       	ldi	r29, 0x01	; 1
     6c0:	31 cf       	rjmp	.-414    	; 0x524 <Show_Diode+0x2a>
    if (A == C)          /* anti-parallel */
    {
      n = D2->A;                        /* get anode */
      Display_EEString(Diode_CA_str);   /* show -|<- */
    }
    else if (A <= 3)     /* common anode or in-series */
     6c2:	f3 e0       	ldi	r31, 0x03	; 3
     6c4:	ff 15       	cp	r31, r15
     6c6:	40 f3       	brcs	.-48     	; 0x698 <Show_Diode+0x19e>
    {
      n = D2->C;                        /* get cathode */
     6c8:	b9 80       	ldd	r11, Y+1	; 0x01
      Display_EEString(Diode_AC_str);   /* show ->|- */
     6ca:	8b ed       	ldi	r24, 0xDB	; 219
     6cc:	90 e0       	ldi	r25, 0x00	; 0
    }
    else                 /* common cathode */
    {
      n = D2->A;                        /* get anode */
      Display_EEString(Diode_CA_str);   /* show -|<- */
     6ce:	0e 94 0f 11 	call	0x221e	; 0x221e <Display_EEString>
    }

    Display_ProbeNumber(n);             /* display pin */
     6d2:	8b 2d       	mov	r24, r11
     6d4:	0e 94 1e 11 	call	0x223c	; 0x223c <Display_ProbeNumber>

  /*
   *  check for B-E resistor of possible BJT
   */

  if (R_Pin1 < 5)                  /* possible BJT */
     6d8:	84 e0       	ldi	r24, 0x04	; 4
     6da:	8c 15       	cp	r24, r12
     6dc:	e8 f0       	brcs	.+58     	; 0x718 <Show_Diode+0x21e>
  {
    /* B-E resistor below 25kOhms */
    if (CheckSingleResistor(R_Pin1, R_Pin2, 25) == 1)
     6de:	49 e1       	ldi	r20, 0x19	; 25
     6e0:	6d 2d       	mov	r22, r13
     6e2:	8c 2d       	mov	r24, r12
     6e4:	0e 94 1a 15 	call	0x2a34	; 0x2a34 <CheckSingleResistor>
     6e8:	81 30       	cpi	r24, 0x01	; 1
     6ea:	b1 f4       	brne	.+44     	; 0x718 <Show_Diode+0x21e>
    {
      /* show: PNP/NPN? */
      Display_Space();
     6ec:	0e 94 27 11 	call	0x224e	; 0x224e <Display_Space>
      if (A < 3)                        /* PNP */
     6f0:	92 e0       	ldi	r25, 0x02	; 2
     6f2:	9f 15       	cp	r25, r15
     6f4:	08 f4       	brcc	.+2      	; 0x6f8 <Show_Diode+0x1fe>
     6f6:	4b c0       	rjmp	.+150    	; 0x78e <Show_Diode+0x294>
      {
        Display_EEString(PNP_str);      /* display: PNP */
     6f8:	80 ea       	ldi	r24, 0xA0	; 160
     6fa:	91 e0       	ldi	r25, 0x01	; 1
        Info.Flags |= INFO_D_R_BE | INFO_D_BJT_PNP;    /* R_BE & PNP */
        #endif
      }
      else                              /* NPN */
      {
        Display_EEString(NPN_str);      /* display: NPN */
     6fc:	0e 94 0f 11 	call	0x221e	; 0x221e <Display_EEString>
        #ifdef UI_SERIAL_COMMANDS
        /* set data for remote commands */
        Info.Flags |= INFO_D_R_BE | INFO_D_BJT_NPN;    /* R_BE & NPN */
        #endif
      }
      Display_Char('?');                /* display: ? */
     700:	8f e3       	ldi	r24, 0x3F	; 63
     702:	0e 94 fe 2a 	call	0x55fc	; 0x55fc <LCD_Char>

      Display_NextLine();               /* move to line #2 */
     706:	0e 94 ed 10 	call	0x21da	; 0x21da <Display_NextLine>
      /* show B-E resistor */
      #ifdef UI_PROBE_COLORS
        Show_SingleResistor(R_Pin1, R_Pin2, 0);   /* show resistor */
      #else 
        R_Pin1 += '1';                  /* convert probe ID to character */
        R_Pin2 += '1';
     70a:	61 e3       	ldi	r22, 0x31	; 49
     70c:	6d 0d       	add	r22, r13
        Show_SingleResistor(R_Pin1, R_Pin2);      /* show resistor */
     70e:	81 e3       	ldi	r24, 0x31	; 49
     710:	8c 0d       	add	r24, r12
     712:	0e 94 e8 00 	call	0x1d0	; 0x1d0 <Show_SingleResistor>
      #endif

      CapFlag = 0;                      /* skip capacitance */
     716:	e1 2c       	mov	r14, r1
   *  - reverse leakage current (for single diode)
   *  - capacitance (not for anti-parallel diodes)
   */

  /* display Uf */
  Display_NL_EEString_Space(Vf_str);    /* display: Vf */
     718:	8b e8       	ldi	r24, 0x8B	; 139
     71a:	91 e0       	ldi	r25, 0x01	; 1
     71c:	0e 94 43 11 	call	0x2286	; 0x2286 <Display_NL_EEString_Space>

  /* first diode */
  Display_Value(D1->V_f, -3, 'V');      /* in mV */
     720:	f8 01       	movw	r30, r16
     722:	62 81       	ldd	r22, Z+2	; 0x02
     724:	73 81       	ldd	r23, Z+3	; 0x03
     726:	90 e0       	ldi	r25, 0x00	; 0
     728:	80 e0       	ldi	r24, 0x00	; 0
     72a:	26 e5       	ldi	r18, 0x56	; 86
     72c:	4d ef       	ldi	r20, 0xFD	; 253
     72e:	0e 94 74 11 	call	0x22e8	; 0x22e8 <Display_Value>

  Display_Space();
     732:	0e 94 27 11 	call	0x224e	; 0x224e <Display_Space>

  /* display low current Uf and reverse leakage current for a single diode */
  if (D2 == NULL)                       /* single diode */
     736:	20 97       	sbiw	r28, 0x00	; 0
     738:	69 f5       	brne	.+90     	; 0x794 <Show_Diode+0x29a>
  {
    /* display low current Uf if it's quite low (Ge/Schottky diode) */
    if (D1->V_f2 < 250)            /* < 250mV */
     73a:	f8 01       	movw	r30, r16
     73c:	84 81       	ldd	r24, Z+4	; 0x04
     73e:	95 81       	ldd	r25, Z+5	; 0x05
     740:	8a 3f       	cpi	r24, 0xFA	; 250
     742:	91 05       	cpc	r25, r1
     744:	68 f4       	brcc	.+26     	; 0x760 <Show_Diode+0x266>
    {
      Display_Char('(');
     746:	88 e2       	ldi	r24, 0x28	; 40
     748:	0e 94 fe 2a 	call	0x55fc	; 0x55fc <LCD_Char>
      Display_Value2(D1->V_f2);    /* no unit */
     74c:	f8 01       	movw	r30, r16
     74e:	64 81       	ldd	r22, Z+4	; 0x04
     750:	75 81       	ldd	r23, Z+5	; 0x05
     752:	90 e0       	ldi	r25, 0x00	; 0
     754:	80 e0       	ldi	r24, 0x00	; 0
     756:	0e 94 00 12 	call	0x2400	; 0x2400 <Display_Value2>
      Display_Char(')');
     75a:	89 e2       	ldi	r24, 0x29	; 41
     75c:	0e 94 fe 2a 	call	0x55fc	; 0x55fc <LCD_Char>
    }

    /* reverse leakage current */
    UpdateProbes2(D1->C, D1->A);        /* reverse diode */
     760:	f8 01       	movw	r30, r16
     762:	60 81       	ld	r22, Z
     764:	81 81       	ldd	r24, Z+1	; 0x01
     766:	0e 94 31 0e 	call	0x1c62	; 0x1c62 <UpdateProbes2>
    GetLeakageCurrent(1);               /* get current */
     76a:	81 e0       	ldi	r24, 0x01	; 1
     76c:	0e 94 33 1a 	call	0x3466	; 0x3466 <GetLeakageCurrent>
    Show_SemiCurrent(I_R_str);          /* display I_R */
     770:	81 e8       	ldi	r24, 0x81	; 129
     772:	91 e0       	ldi	r25, 0x01	; 1
     774:	0e 94 30 02 	call	0x460	; 0x460 <Show_SemiCurrent>

  /*
   *  display capacitance in next line
   */

  if (CapFlag == 1)                     /* if feasable */ 
     778:	f1 e0       	ldi	r31, 0x01	; 1
     77a:	ef 12       	cpse	r14, r31
     77c:	71 cf       	rjmp	.-286    	; 0x660 <Show_Diode+0x166>
  {
    Display_NL_EEString_Space(DiodeCap_str);   /* display: C */
     77e:	89 e8       	ldi	r24, 0x89	; 137
     780:	91 e0       	ldi	r25, 0x01	; 1
     782:	0e 94 43 11 	call	0x2286	; 0x2286 <Display_NL_EEString_Space>

    #ifndef UI_SERIAL_COMMANDS
    /* first diode */
    Show_Diode_Cap(D1);                 /* measure & show capacitance */
     786:	c8 01       	movw	r24, r16

    if (D2)                             /* second diode */
    {
      Display_Space();
      Show_Diode_Cap(D2);               /* measure & show capacitance */
     788:	0e 94 60 02 	call	0x4c0	; 0x4c0 <Show_Diode_Cap>
     78c:	69 cf       	rjmp	.-302    	; 0x660 <Show_Diode+0x166>
        Info.Flags |= INFO_D_R_BE | INFO_D_BJT_PNP;    /* R_BE & PNP */
        #endif
      }
      else                              /* NPN */
      {
        Display_EEString(NPN_str);      /* display: NPN */
     78e:	84 ea       	ldi	r24, 0xA4	; 164
     790:	91 e0       	ldi	r25, 0x01	; 1
     792:	b4 cf       	rjmp	.-152    	; 0x6fc <Show_Diode+0x202>
    #endif
  }
  else                                  /* two diodes */
  {
    /* show Uf of second diode */
    Display_Value(D2->V_f, -3, 'V');
     794:	6a 81       	ldd	r22, Y+2	; 0x02
     796:	7b 81       	ldd	r23, Y+3	; 0x03
     798:	90 e0       	ldi	r25, 0x00	; 0
     79a:	80 e0       	ldi	r24, 0x00	; 0
     79c:	26 e5       	ldi	r18, 0x56	; 86
     79e:	4d ef       	ldi	r20, 0xFD	; 253
     7a0:	0e 94 74 11 	call	0x22e8	; 0x22e8 <Display_Value>

  /*
   *  display capacitance in next line
   */

  if (CapFlag == 1)                     /* if feasable */ 
     7a4:	81 e0       	ldi	r24, 0x01	; 1
     7a6:	e8 12       	cpse	r14, r24
     7a8:	5b cf       	rjmp	.-330    	; 0x660 <Show_Diode+0x166>
  {
    Display_NL_EEString_Space(DiodeCap_str);   /* display: C */
     7aa:	89 e8       	ldi	r24, 0x89	; 137
     7ac:	91 e0       	ldi	r25, 0x01	; 1
     7ae:	0e 94 43 11 	call	0x2286	; 0x2286 <Display_NL_EEString_Space>

    #ifndef UI_SERIAL_COMMANDS
    /* first diode */
    Show_Diode_Cap(D1);                 /* measure & show capacitance */
     7b2:	c8 01       	movw	r24, r16
     7b4:	0e 94 60 02 	call	0x4c0	; 0x4c0 <Show_Diode_Cap>

    if (D2)                             /* second diode */
    {
      Display_Space();
     7b8:	0e 94 27 11 	call	0x224e	; 0x224e <Display_Space>
      Show_Diode_Cap(D2);               /* measure & show capacitance */
     7bc:	ce 01       	movw	r24, r28
     7be:	e4 cf       	rjmp	.-56     	; 0x788 <Show_Diode+0x28e>

000007c0 <Show_BJT>:
/*
 *  show BJT
 */

void Show_BJT(void)
{
     7c0:	8f 92       	push	r8
     7c2:	9f 92       	push	r9
     7c4:	af 92       	push	r10
     7c6:	bf 92       	push	r11
     7c8:	ef 92       	push	r14
     7ca:	ff 92       	push	r15
     7cc:	0f 93       	push	r16
     7ce:	1f 93       	push	r17
     7d0:	cf 93       	push	r28
     7d2:	df 93       	push	r29
     7d4:	10 91 9c 01 	lds	r17, 0x019C	; 0x80019c <Semi+0x2>
     7d8:	d0 91 9a 01 	lds	r29, 0x019A	; 0x80019a <Semi>
     7dc:	c0 91 9b 01 	lds	r28, 0x019B	; 0x80019b <Semi+0x1>

  /*
   *  preset stuff based on BJT type
   */

  if (Check.Type & TYPE_NPN)       /* NPN */
     7e0:	80 91 02 01 	lds	r24, 0x0102	; 0x800102 <Check+0x1>
     7e4:	80 fd       	sbrc	r24, 0
     7e6:	ba c0       	rjmp	.+372    	; 0x95c <__stack+0x5d>
    CE_C = Semi.C;                 /* cathode at emitter */

    #ifdef SW_SCHOTTKY_BJT
    /* direction of B-C diode: C -> B */
    BC_A = Semi.B;                 /* anode at collector */
    BC_C = Semi.A;                 /* cathode at base */
     7e8:	fd 2e       	mov	r15, r29
    CE_A = Semi.B;                 /* anode at collector */
    CE_C = Semi.C;                 /* cathode at emitter */

    #ifdef SW_SCHOTTKY_BJT
    /* direction of B-C diode: C -> B */
    BC_A = Semi.B;                 /* anode at collector */
     7ea:	0c 2f       	mov	r16, r28
    /* direction of B-E diode: E -> B */
    BE_A = Semi.C;                 /* anode at emitter */
    BE_C = Semi.A;                 /* cathode at base */

    /* direction of optional flyback diode */
    CE_A = Semi.B;                 /* anode at collector */
     7ec:	ec 2e       	mov	r14, r28
    CE_C = Semi.C;                 /* cathode at emitter */
     7ee:	c1 2f       	mov	r28, r17
  else                             /* PNP */
  {
    String = (unsigned char *)PNP_str;       /* "PNP" */

    /* direction of B-E diode: E -> B */
    BE_A = Semi.C;                 /* anode at emitter */
     7f0:	d1 2f       	mov	r29, r17
    BE_C = Semi.A;                 /* cathode at base */
     7f2:	1f 2d       	mov	r17, r15
    BC_C = Semi.B;                 /* cathode at collector */
    #endif
  }
  else                             /* PNP */
  {
    String = (unsigned char *)PNP_str;       /* "PNP" */
     7f4:	90 ea       	ldi	r25, 0xA0	; 160
     7f6:	a9 2e       	mov	r10, r25
     7f8:	91 e0       	ldi	r25, 0x01	; 1
     7fa:	b9 2e       	mov	r11, r25
    /* display: BJT */
    Display_ColoredEEString_Space(BJT_str, COLOR_TITLE);
    /* display: NPN / PNP */
    Display_ColoredEEString(String, COLOR_TITLE);
  #else
    Display_EEString_Space(BJT_str);    /* display: BJT */
     7fc:	89 e2       	ldi	r24, 0x29	; 41
     7fe:	92 e0       	ldi	r25, 0x02	; 2
     800:	0e 94 33 11 	call	0x2266	; 0x2266 <Display_EEString_Space>
    Display_EEString(String);           /* display: NPN / PNP */
     804:	c5 01       	movw	r24, r10
     806:	0e 94 0f 11 	call	0x221e	; 0x221e <Display_EEString>
  #endif

  /* parasitic BJT (freewheeling diode on same substrate) */
  if (Check.Type & TYPE_PARASITIC)
     80a:	80 91 02 01 	lds	r24, 0x0102	; 0x800102 <Check+0x1>
     80e:	82 ff       	sbrs	r24, 2
     810:	03 c0       	rjmp	.+6      	; 0x818 <__DATA_REGION_LENGTH__+0x18>
  {
    Display_Char('+');                  /* display: + */
     812:	8b e2       	ldi	r24, 0x2B	; 43
     814:	0e 94 fe 2a 	call	0x55fc	; 0x55fc <LCD_Char>
  /*
   *  display pinout in line #2
   */

  #ifndef UI_NO_TEXTPINOUT
  Display_NextLine();                   /* next line (#2) */
     818:	0e 94 ed 10 	call	0x21da	; 0x21da <Display_NextLine>
  Show_SemiPinout();
     81c:	0e 94 7f 00 	call	0xfe	; 0xfe <Show_SemiPinout>
  #endif

  /* optional freewheeling diode */
  Diode = SearchDiode(CE_A, CE_C);      /* search for matching diode */
     820:	6c 2f       	mov	r22, r28
     822:	8e 2d       	mov	r24, r14
     824:	0e 94 9a 1a 	call	0x3534	; 0x3534 <SearchDiode>
  if (Diode != NULL)                    /* got it */
     828:	89 2b       	or	r24, r25
     82a:	31 f0       	breq	.+12     	; 0x838 <__DATA_REGION_LENGTH__+0x38>
  {
    #ifndef UI_NO_TEXTPINOUT
      /* follows pinout */
      Display_Space();                  /* space */
     82c:	0e 94 27 11 	call	0x224e	; 0x224e <Display_Space>
      /* no classic pinout */
      Display_NextLine();               /* next line (#2) */
    #endif

    /* display diode and pin designators */
    Show_SemiFlybackDiode(CE_A, CE_C);
     830:	6c 2f       	mov	r22, r28
     832:	8e 2d       	mov	r24, r14
     834:	0e 94 71 02 	call	0x4e2	; 0x4e2 <Show_SemiFlybackDiode>
  /*
   *  display B-E resistor in next line if detected 
   */

  /* check for B-E resistor below 25 kOhms */
  if (CheckSingleResistor(BE_C, BE_A, 25) == 1)   /* found B-E resistor */
     838:	49 e1       	ldi	r20, 0x19	; 25
     83a:	6d 2f       	mov	r22, r29
     83c:	81 2f       	mov	r24, r17
     83e:	0e 94 1a 15 	call	0x2a34	; 0x2a34 <CheckSingleResistor>
     842:	81 30       	cpi	r24, 0x01	; 1
     844:	31 f4       	brne	.+12     	; 0x852 <__DATA_REGION_LENGTH__+0x52>
  {
    Display_NextLine();            /* next line (#3) */
     846:	0e 94 ed 10 	call	0x21da	; 0x21da <Display_NextLine>
    #ifdef UI_PROBE_COLORS
      Show_SingleResistor(Semi.A, Semi.C, 1);     /* show resistor */
    #else
      Show_SingleResistor('B', 'E');              /* show resistor */
     84a:	65 e4       	ldi	r22, 0x45	; 69
     84c:	82 e4       	ldi	r24, 0x42	; 66
     84e:	0e 94 e8 00 	call	0x1d0	; 0x1d0 <Show_SingleResistor>
   *  display h_FE in next line
   *  - B-E resistor renders value useless
   */

  /* display h_FE */
  Display_NL_EEString_Space(h_FE_str);       /* display: hFE */
     852:	8c e9       	ldi	r24, 0x9C	; 156
     854:	91 e0       	ldi	r25, 0x01	; 1
     856:	0e 94 43 11 	call	0x2286	; 0x2286 <Display_NL_EEString_Space>
  Display_Value2(Semi.F_1);                  /* display h_FE */
     85a:	60 91 a7 01 	lds	r22, 0x01A7	; 0x8001a7 <Semi+0xd>
     85e:	70 91 a8 01 	lds	r23, 0x01A8	; 0x8001a8 <Semi+0xe>
     862:	80 91 a9 01 	lds	r24, 0x01A9	; 0x8001a9 <Semi+0xf>
     866:	90 91 aa 01 	lds	r25, 0x01AA	; 0x8001aa <Semi+0x10>
     86a:	0e 94 00 12 	call	0x2400	; 0x2400 <Display_Value2>

  /* display hFE test circuit type */
  Display_Space();
     86e:	0e 94 27 11 	call	0x224e	; 0x224e <Display_Space>
  if (Semi.Flags & HFE_COMMON_EMITTER)         /* common emitter */
     872:	80 91 a0 01 	lds	r24, 0x01A0	; 0x8001a0 <Semi+0x6>
     876:	80 ff       	sbrs	r24, 0
     878:	79 c0       	rjmp	.+242    	; 0x96c <__stack+0x6d>
  {
    /* common emitter circuit */
    Display_Char('e');                         /* display: e */
     87a:	85 e6       	ldi	r24, 0x65	; 101
  }
  else if (Semi.Flags & HFE_COMMON_COLLECTOR)  /* common collector */
  {
    /* common collector circuit */
    Display_Char('c');                         /* display: c */
     87c:	0e 94 fe 2a 	call	0x55fc	; 0x55fc <LCD_Char>
   *  display V_BE in next line
   *  - taken from diode's forward voltage (V_f)
   *  - B-E resistor can render value useless
   */

  Diode = SearchDiode(BE_A, BE_C);      /* search for matching B-E diode */
     880:	61 2f       	mov	r22, r17
     882:	8d 2f       	mov	r24, r29
     884:	0e 94 9a 1a 	call	0x3534	; 0x3534 <SearchDiode>
     888:	ec 01       	movw	r28, r24
  if (Diode != NULL)                    /* found diode */
     88a:	89 2b       	or	r24, r25
     88c:	09 f4       	brne	.+2      	; 0x890 <__DATA_REGION_LENGTH__+0x90>
     88e:	72 c0       	rjmp	.+228    	; 0x974 <__stack+0x75>
  {
    Display_NL_EEString_Space(V_BE_str);     /* display: Vbe */
     890:	88 e9       	ldi	r24, 0x98	; 152
     892:	91 e0       	ldi	r25, 0x01	; 1
     894:	0e 94 43 11 	call	0x2286	; 0x2286 <Display_NL_EEString_Space>
     *  and high test current is 7 mA. That's a logarithmic scale of
     *  3 decades.
     */

    /* calculate slope for one decade */
    Slope = Diode->V_f - Diode->V_f2;        /* difference */
     898:	2a 81       	ldd	r18, Y+2	; 0x02
     89a:	3b 81       	ldd	r19, Y+3	; 0x03
     89c:	ec 81       	ldd	r30, Y+4	; 0x04
     89e:	fd 81       	ldd	r31, Y+5	; 0x05
    Slope /= 3;                              /* / 3 decades */

    /* select V_BE based on hFE */
    if (Semi.F_1 < 100)            /* low h_FE */
     8a0:	80 90 a7 01 	lds	r8, 0x01A7	; 0x8001a7 <Semi+0xd>
     8a4:	90 90 a8 01 	lds	r9, 0x01A8	; 0x8001a8 <Semi+0xe>
     8a8:	a0 90 a9 01 	lds	r10, 0x01A9	; 0x8001a9 <Semi+0xf>
     8ac:	b0 90 aa 01 	lds	r11, 0x01AA	; 0x8001aa <Semi+0x10>
     *  and high test current is 7 mA. That's a logarithmic scale of
     *  3 decades.
     */

    /* calculate slope for one decade */
    Slope = Diode->V_f - Diode->V_f2;        /* difference */
     8b0:	e9 01       	movw	r28, r18
    Slope /= 3;                              /* / 3 decades */

    /* select V_BE based on hFE */
    if (Semi.F_1 < 100)            /* low h_FE */
     8b2:	84 e6       	ldi	r24, 0x64	; 100
     8b4:	88 16       	cp	r8, r24
     8b6:	91 04       	cpc	r9, r1
     8b8:	a1 04       	cpc	r10, r1
     8ba:	b1 04       	cpc	r11, r1
     8bc:	90 f0       	brcs	.+36     	; 0x8e2 <__DATA_REGION_LENGTH__+0xe2>
     *  and high test current is 7 mA. That's a logarithmic scale of
     *  3 decades.
     */

    /* calculate slope for one decade */
    Slope = Diode->V_f - Diode->V_f2;        /* difference */
     8be:	c9 01       	movw	r24, r18
     8c0:	8e 1b       	sub	r24, r30
     8c2:	9f 0b       	sbc	r25, r31
    Slope /= 3;                              /* / 3 decades */
     8c4:	63 e0       	ldi	r22, 0x03	; 3
     8c6:	70 e0       	ldi	r23, 0x00	; 0
     8c8:	0e 94 f0 2c 	call	0x59e0	; 0x59e0 <__divmodhi4>
       *  BJTs with a mid-range hFE are signal transistors and need
       *  a small I_b to drive the load. So we interpolate V_f for
       *  a virtual test current of about 1 mA.
       */

      V_BE = Diode->V_f - Slope;        /* based on V_f for 7 mA */
     8cc:	c6 1b       	sub	r28, r22
     8ce:	d7 0b       	sbc	r29, r23
       *  measurement (7 mA). 
       */

      V_BE = Diode->V_f;                /* V_f for 7 mA */
    }
    else if (Semi.F_1 < 250)            /* mid-range h_FE */
     8d0:	8a ef       	ldi	r24, 0xFA	; 250
     8d2:	88 16       	cp	r8, r24
     8d4:	91 04       	cpc	r9, r1
     8d6:	a1 04       	cpc	r10, r1
     8d8:	b1 04       	cpc	r11, r1
     8da:	18 f0       	brcs	.+6      	; 0x8e2 <__DATA_REGION_LENGTH__+0xe2>
       *  BJTs with a high hFE are small signal transistors and need
       *  only a very small I_b to drive the load. So we interpolate V_f
       *  for a virtual test current of about 0.1 mA.
       */

      V_BE = Diode->V_f2 + Slope;       /* based on V_f for 10 ÁA */
     8dc:	ef 01       	movw	r28, r30
     8de:	c6 0f       	add	r28, r22
     8e0:	d7 1f       	adc	r29, r23
     *  - Also for Darlington with a single B-E resistor for 2nd BJT.
     *  - Si Darlington with B-E resistors and low hFE meets conditions below
     *    too but no harm is done (still V_f).
     */

    if (Diode->V_f > 1000)         /* likely Si Darlington (2 * V_BE) */
     8e2:	29 3e       	cpi	r18, 0xE9	; 233
     8e4:	83 e0       	ldi	r24, 0x03	; 3
     8e6:	38 07       	cpc	r19, r24
     8e8:	20 f0       	brcs	.+8      	; 0x8f2 <__DATA_REGION_LENGTH__+0xf2>
    {
      /* B-E resistors screw up V_f of low current measurement */
      if (Diode->V_f2 < 700)       /* just 1 * V_BE */
     8ea:	ec 3b       	cpi	r30, 0xBC	; 188
     8ec:	f2 40       	sbci	r31, 0x02	; 2
     8ee:	08 f4       	brcc	.+2      	; 0x8f2 <__DATA_REGION_LENGTH__+0xf2>
     8f0:	e9 01       	movw	r28, r18
        /* take V_f (no interpolation) */
        V_BE = Diode->V_f;         /* V_f for 7 mA */
      }
    }

    Display_Value(V_BE, -3, 'V');       /* in mV */
     8f2:	be 01       	movw	r22, r28
     8f4:	90 e0       	ldi	r25, 0x00	; 0
     8f6:	80 e0       	ldi	r24, 0x00	; 0
     8f8:	26 e5       	ldi	r18, 0x56	; 86
     8fa:	4d ef       	ldi	r20, 0xFD	; 253
     8fc:	0e 94 74 11 	call	0x22e8	; 0x22e8 <Display_Value>

  /*
   *  I_CEO: collector emitter open current (leakage)
   */

  Show_SemiCurrent(I_CEO_str);          /* display I_CEO */
     900:	8e e8       	ldi	r24, 0x8E	; 142
     902:	91 e0       	ldi	r25, 0x01	; 1
     904:	0e 94 30 02 	call	0x460	; 0x460 <Show_SemiCurrent>
   *    So we check only Silicon BJTs.
   *  - display V_f of clamping diode
   */

  /* check for Si BJT */
  if (V_BE > 500)                       /* V_BE > 500mV */
     908:	c5 3f       	cpi	r28, 0xF5	; 245
     90a:	d1 40       	sbci	r29, 0x01	; 1
     90c:	e0 f0       	brcs	.+56     	; 0x946 <__stack+0x47>
  {
    Diode = SearchDiode(BC_A, BC_C);    /* search for matching diode */
     90e:	6f 2d       	mov	r22, r15
     910:	80 2f       	mov	r24, r16
     912:	0e 94 9a 1a 	call	0x3534	; 0x3534 <SearchDiode>
     916:	ec 01       	movw	r28, r24
    if (Diode != NULL)                  /* found diode */
     918:	89 2b       	or	r24, r25
     91a:	a9 f0       	breq	.+42     	; 0x946 <__stack+0x47>
    {
      /* check for Schottky diode */
      if (Diode->V_f < 450)             /* V_f < 450mV */
     91c:	8a 81       	ldd	r24, Y+2	; 0x02
     91e:	9b 81       	ldd	r25, Y+3	; 0x03
     920:	82 3c       	cpi	r24, 0xC2	; 194
     922:	91 40       	sbci	r25, 0x01	; 1
     924:	80 f4       	brcc	.+32     	; 0x946 <__stack+0x47>
      {
        Display_NextLine();             /* next line */
     926:	0e 94 ed 10 	call	0x21da	; 0x21da <Display_NextLine>

        /* display base-collector diode and pin designators */
        Show_SemiFlybackDiode(BC_A, BC_C);
     92a:	6f 2d       	mov	r22, r15
     92c:	80 2f       	mov	r24, r16
     92e:	0e 94 71 02 	call	0x4e2	; 0x4e2 <Show_SemiFlybackDiode>

        /* display diode's V_f */
        Display_Space();                     /* display space */
     932:	0e 94 27 11 	call	0x224e	; 0x224e <Display_Space>
        Display_Value(Diode->V_f, -3, 'V');  /* display V_f */
     936:	6a 81       	ldd	r22, Y+2	; 0x02
     938:	7b 81       	ldd	r23, Y+3	; 0x03
     93a:	90 e0       	ldi	r25, 0x00	; 0
     93c:	80 e0       	ldi	r24, 0x00	; 0
     93e:	26 e5       	ldi	r18, 0x56	; 86
     940:	4d ef       	ldi	r20, 0xFD	; 253
     942:	0e 94 74 11 	call	0x22e8	; 0x22e8 <Display_Value>
        #endif
      }
    }
  }
  #endif
}
     946:	df 91       	pop	r29
     948:	cf 91       	pop	r28
     94a:	1f 91       	pop	r17
     94c:	0f 91       	pop	r16
     94e:	ff 90       	pop	r15
     950:	ef 90       	pop	r14
     952:	bf 90       	pop	r11
     954:	af 90       	pop	r10
     956:	9f 90       	pop	r9
     958:	8f 90       	pop	r8
     95a:	08 95       	ret
    CE_C = Semi.B;                 /* cathode at collector */

    #ifdef SW_SCHOTTKY_BJT
    /* direction of B-C diode: B -> C */
    BC_A = Semi.A;                 /* anode at base */
    BC_C = Semi.B;                 /* cathode at collector */
     95c:	fc 2e       	mov	r15, r28
    CE_A = Semi.C;                 /* anode at emitter */
    CE_C = Semi.B;                 /* cathode at collector */

    #ifdef SW_SCHOTTKY_BJT
    /* direction of B-C diode: B -> C */
    BC_A = Semi.A;                 /* anode at base */
     95e:	0d 2f       	mov	r16, r29
    /* direction of B-E diode: B -> E */
    BE_A = Semi.A;                 /* anode at base */
    BE_C = Semi.C;                 /* cathode at emitter */

    /* direction of optional flyback diode */
    CE_A = Semi.C;                 /* anode at emitter */
     960:	e1 2e       	mov	r14, r17
   *  preset stuff based on BJT type
   */

  if (Check.Type & TYPE_NPN)       /* NPN */
  {
    String = (unsigned char *)NPN_str;       /* "NPN" */
     962:	84 ea       	ldi	r24, 0xA4	; 164
     964:	a8 2e       	mov	r10, r24
     966:	81 e0       	ldi	r24, 0x01	; 1
     968:	b8 2e       	mov	r11, r24
     96a:	48 cf       	rjmp	.-368    	; 0x7fc <Show_BJT+0x3c>
  if (Semi.Flags & HFE_COMMON_EMITTER)         /* common emitter */
  {
    /* common emitter circuit */
    Display_Char('e');                         /* display: e */
  }
  else if (Semi.Flags & HFE_COMMON_COLLECTOR)  /* common collector */
     96c:	81 ff       	sbrs	r24, 1
     96e:	88 cf       	rjmp	.-240    	; 0x880 <__DATA_REGION_LENGTH__+0x80>
  {
    /* common collector circuit */
    Display_Char('c');                         /* display: c */
     970:	83 e6       	ldi	r24, 0x63	; 99
     972:	84 cf       	rjmp	.-248    	; 0x87c <__DATA_REGION_LENGTH__+0x7c>
  uint8_t           CE_C;          /* flyback diode: pin acting as cathode */
  #ifdef SW_SCHOTTKY_BJT
  uint8_t           BC_A;          /* clamping diode: pin acting as anode */
  uint8_t           BC_C;          /* clamping diode: pin acting as cathode */
  #endif
  uint16_t          V_BE = 0;      /* V_BE */
     974:	d0 e0       	ldi	r29, 0x00	; 0
     976:	c0 e0       	ldi	r28, 0x00	; 0
     978:	c3 cf       	rjmp	.-122    	; 0x900 <__stack+0x1>

0000097a <Show_FET_Extras>:
 *  - R_DS_on
 *  - V_f of diode
 */

void Show_FET_Extras(void)
{
     97a:	0f 93       	push	r16
     97c:	1f 93       	push	r17
     97e:	cf 93       	push	r28
     980:	df 93       	push	r29
     982:	d0 91 9b 01 	lds	r29, 0x019B	; 0x80019b <Semi+0x1>
     986:	c0 91 9c 01 	lds	r28, 0x019C	; 0x80019c <Semi+0x2>
  /*
   *  show instrinsic/freewheeling diode
   */

  /* get expected anode and cathode pins */
  if (Check.Type & TYPE_N_CHANNEL)      /* n-channel/NPN */
     98a:	80 91 02 01 	lds	r24, 0x0102	; 0x800102 <Check+0x1>
     98e:	80 fd       	sbrc	r24, 0
     990:	03 c0       	rjmp	.+6      	; 0x998 <Show_FET_Extras+0x1e>
     992:	8c 2f       	mov	r24, r28
    Anode = Semi.C;                /* source/emitter */
    Cathode = Semi.B;              /* drain/collector */
  }
  else                                  /* p-channel/PNP */
  {
    Anode = Semi.B;                /* drain/collector */
     994:	cd 2f       	mov	r28, r29
    Cathode = Semi.C;              /* source/emitter */
     996:	d8 2f       	mov	r29, r24
  }

  /* search for matching diode */
  Diode = SearchDiode(Anode, Cathode);
     998:	6d 2f       	mov	r22, r29
     99a:	8c 2f       	mov	r24, r28
     99c:	0e 94 9a 1a 	call	0x3534	; 0x3534 <SearchDiode>
     9a0:	8c 01       	movw	r16, r24

  if (Diode != NULL)               /* if available */
     9a2:	89 2b       	or	r24, r25
     9a4:	31 f0       	breq	.+12     	; 0x9b2 <Show_FET_Extras+0x38>
      /* show diode for anything but a MOSFET */
    #endif

      #ifndef UI_NO_TEXTPINOUT
        /* follows pinout */
        Display_Space();                /* space */
     9a6:	0e 94 27 11 	call	0x224e	; 0x224e <Display_Space>
        /* no classic pinout */
        Display_NextLine();             /* next line (#2) */
      #endif

      /* show diode and pin designators */
      Show_SemiFlybackDiode(Anode, Cathode);
     9aa:	6d 2f       	mov	r22, r29
     9ac:	8c 2f       	mov	r24, r28
     9ae:	0e 94 71 02 	call	0x4e2	; 0x4e2 <Show_SemiFlybackDiode>
   *  - V_th
   *  - C_GS
   *  - R_DS_on
   */

  if (Check.Type & TYPE_ENHANCEMENT)    /* enhancement mode */
     9b2:	80 91 02 01 	lds	r24, 0x0102	; 0x800102 <Check+0x1>
     9b6:	82 ff       	sbrs	r24, 2
     9b8:	3b c0       	rjmp	.+118    	; 0xa30 <Show_FET_Extras+0xb6>
  {
    /* display gate threshold voltage V_th */
    if (Semi.U_2 != 0)                       /* if available */
     9ba:	80 91 a3 01 	lds	r24, 0x01A3	; 0x8001a3 <Semi+0x9>
     9be:	90 91 a4 01 	lds	r25, 0x01A4	; 0x8001a4 <Semi+0xa>
     9c2:	89 2b       	or	r24, r25
     9c4:	81 f0       	breq	.+32     	; 0x9e6 <Show_FET_Extras+0x6c>
    {
      Display_NL_EEString_Space(Vth_str);         /* display: Vth */
     9c6:	85 e8       	ldi	r24, 0x85	; 133
     9c8:	91 e0       	ldi	r25, 0x01	; 1
     9ca:	0e 94 43 11 	call	0x2286	; 0x2286 <Display_NL_EEString_Space>
      Display_SignedValue(Semi.U_2, -3, 'V');     /* display V_th in mV */
     9ce:	60 91 a3 01 	lds	r22, 0x01A3	; 0x8001a3 <Semi+0x9>
     9d2:	70 91 a4 01 	lds	r23, 0x01A4	; 0x8001a4 <Semi+0xa>
     9d6:	07 2e       	mov	r0, r23
     9d8:	00 0c       	add	r0, r0
     9da:	88 0b       	sbc	r24, r24
     9dc:	99 0b       	sbc	r25, r25
     9de:	26 e5       	ldi	r18, 0x56	; 86
     9e0:	4d ef       	ldi	r20, 0xFD	; 253
     9e2:	0e 94 05 12 	call	0x240a	; 0x240a <Display_SignedValue>
      #endif
    }

    /* display gate-source capacitance C_GS */
    /* todo: display "Cge" for IGBT? */
    Display_NL_EEString_Space(C_gs_str);               /* display: Cgs */
     9e6:	88 ea       	ldi	r24, 0xA8	; 168
     9e8:	91 e0       	ldi	r25, 0x01	; 1
     9ea:	0e 94 43 11 	call	0x2286	; 0x2286 <Display_NL_EEString_Space>
    Display_Value(Semi.C_value, Semi.C_scale, 'F');    /* display value and unit */
     9ee:	60 91 b0 01 	lds	r22, 0x01B0	; 0x8001b0 <Semi+0x16>
     9f2:	70 91 b1 01 	lds	r23, 0x01B1	; 0x8001b1 <Semi+0x17>
     9f6:	80 91 b2 01 	lds	r24, 0x01B2	; 0x8001b2 <Semi+0x18>
     9fa:	90 91 b3 01 	lds	r25, 0x01B3	; 0x8001b3 <Semi+0x19>
     9fe:	26 e4       	ldi	r18, 0x46	; 70
     a00:	40 91 b4 01 	lds	r20, 0x01B4	; 0x8001b4 <Semi+0x1a>
     a04:	0e 94 74 11 	call	0x22e8	; 0x22e8 <Display_Value>
    /* set data for remote commands */
    Info.Flags |= INFO_FET_C_GS;                  /* measured C_GS */
    #endif

    /* display R_DS_on */
    if (Semi.U_1 > 0)                             /* if available */
     a08:	80 91 a1 01 	lds	r24, 0x01A1	; 0x8001a1 <Semi+0x7>
     a0c:	90 91 a2 01 	lds	r25, 0x01A2	; 0x8001a2 <Semi+0x8>
     a10:	89 2b       	or	r24, r25
     a12:	71 f0       	breq	.+28     	; 0xa30 <Show_FET_Extras+0xb6>
    {
      Display_NL_EEString_Space(R_DS_str);             /* display: Rds */
     a14:	83 e3       	ldi	r24, 0x33	; 51
     a16:	91 e0       	ldi	r25, 0x01	; 1
     a18:	0e 94 43 11 	call	0x2286	; 0x2286 <Display_NL_EEString_Space>
      Display_Value(Semi.U_1, -2, LCD_CHAR_OMEGA);     /* display value */
     a1c:	60 91 a1 01 	lds	r22, 0x01A1	; 0x8001a1 <Semi+0x7>
     a20:	70 91 a2 01 	lds	r23, 0x01A2	; 0x8001a2 <Semi+0x8>
     a24:	90 e0       	ldi	r25, 0x00	; 0
     a26:	80 e0       	ldi	r24, 0x00	; 0
     a28:	24 e0       	ldi	r18, 0x04	; 4
     a2a:	4e ef       	ldi	r20, 0xFE	; 254
     a2c:	0e 94 74 11 	call	0x22e8	; 0x22e8 <Display_Value>
  /*
   *  show V_f of diode (instrinsic or flyback)
   */

  /* display V_f of diode */
  if (Diode != NULL)                    /* if available */
     a30:	01 15       	cp	r16, r1
     a32:	11 05       	cpc	r17, r1
     a34:	a1 f0       	breq	.+40     	; 0xa5e <Show_FET_Extras+0xe4>
  {
    Display_NextLine();                      /* new line */
     a36:	0e 94 ed 10 	call	0x21da	; 0x21da <Display_NextLine>
    Display_Char(LCD_CHAR_DIODE_AC);         /* diode symbol |>| */
     a3a:	81 e0       	ldi	r24, 0x01	; 1
     a3c:	0e 94 fe 2a 	call	0x55fc	; 0x55fc <LCD_Char>
    Display_Space();                         /* space */
     a40:	0e 94 27 11 	call	0x224e	; 0x224e <Display_Space>
    Display_EEString_Space(Vf_str);          /* display: Vf */
     a44:	8b e8       	ldi	r24, 0x8B	; 139
     a46:	91 e0       	ldi	r25, 0x01	; 1
     a48:	0e 94 33 11 	call	0x2266	; 0x2266 <Display_EEString_Space>
    Display_Value(Diode->V_f, -3, 'V');      /* display value */
     a4c:	f8 01       	movw	r30, r16
     a4e:	62 81       	ldd	r22, Z+2	; 0x02
     a50:	73 81       	ldd	r23, Z+3	; 0x03
     a52:	90 e0       	ldi	r25, 0x00	; 0
     a54:	80 e0       	ldi	r24, 0x00	; 0
     a56:	26 e5       	ldi	r18, 0x56	; 86
     a58:	4d ef       	ldi	r20, 0xFD	; 253
     a5a:	0e 94 74 11 	call	0x22e8	; 0x22e8 <Display_Value>
  }
}
     a5e:	df 91       	pop	r29
     a60:	cf 91       	pop	r28
     a62:	1f 91       	pop	r17
     a64:	0f 91       	pop	r16
     a66:	08 95       	ret

00000a68 <Show_FET_Channel>:
 *  show FET/IGBT channel type
 */

void Show_FET_Channel(void)
{
  Display_Space();                      /* display space */
     a68:	0e 94 27 11 	call	0x224e	; 0x224e <Display_Space>

  /* channel type */
  if (Check.Type & TYPE_N_CHANNEL)      /* n-channel */
     a6c:	80 91 02 01 	lds	r24, 0x0102	; 0x800102 <Check+0x1>
     a70:	80 ff       	sbrs	r24, 0
     a72:	08 c0       	rjmp	.+16     	; 0xa84 <Show_FET_Channel+0x1c>
  {
    Display_Char('N');                  /* display: N */
     a74:	8e e4       	ldi	r24, 0x4E	; 78
  }
  else                                  /* p-channel */
  {
    Display_Char('P');                  /* display: P */
     a76:	0e 94 fe 2a 	call	0x55fc	; 0x55fc <LCD_Char>
  }

  Display_EEString(Channel_str);        /* display: -ch */
     a7a:	8b eb       	ldi	r24, 0xBB	; 187
     a7c:	91 e0       	ldi	r25, 0x01	; 1
     a7e:	0e 94 0f 11 	call	0x221e	; 0x221e <Display_EEString>
}
     a82:	08 95       	ret
  {
    Display_Char('N');                  /* display: N */
  }
  else                                  /* p-channel */
  {
    Display_Char('P');                  /* display: P */
     a84:	80 e5       	ldi	r24, 0x50	; 80
     a86:	f7 cf       	rjmp	.-18     	; 0xa76 <Show_FET_Channel+0xe>

00000a88 <Show_FET_Mode>:
 *  show FET/IGBT mode
 */

void Show_FET_Mode(void)
{
  Display_Space();                      /* display space */
     a88:	0e 94 27 11 	call	0x224e	; 0x224e <Display_Space>

  if (Check.Type & TYPE_ENHANCEMENT)    /* enhancement mode */
     a8c:	80 91 02 01 	lds	r24, 0x0102	; 0x800102 <Check+0x1>
     a90:	82 ff       	sbrs	r24, 2
     a92:	05 c0       	rjmp	.+10     	; 0xa9e <Show_FET_Mode+0x16>
  {
    Display_EEString(Enhancement_str);  /* display: enh. */
     a94:	86 eb       	ldi	r24, 0xB6	; 182
     a96:	91 e0       	ldi	r25, 0x01	; 1
  }
  else                                  /* depletion mode */
  {
    Display_EEString(Depletion_str);    /* display: dep. */
     a98:	0e 94 0f 11 	call	0x221e	; 0x221e <Display_EEString>
  }
}
     a9c:	08 95       	ret
  {
    Display_EEString(Enhancement_str);  /* display: enh. */
  }
  else                                  /* depletion mode */
  {
    Display_EEString(Depletion_str);    /* display: dep. */
     a9e:	81 eb       	ldi	r24, 0xB1	; 177
     aa0:	91 e0       	ldi	r25, 0x01	; 1
     aa2:	fa cf       	rjmp	.-12     	; 0xa98 <Show_FET_Mode+0x10>

00000aa4 <Show_FET>:
  #ifdef UI_COLORED_TITLES
  Display_UseTitleColor();         /* use title color */
  #endif

  /* display type */
  if (Check.Type & TYPE_MOSFET)    /* MOSFET */
     aa4:	80 91 02 01 	lds	r24, 0x0102	; 0x800102 <Check+0x1>
     aa8:	84 ff       	sbrs	r24, 4
     aaa:	34 c0       	rjmp	.+104    	; 0xb14 <Show_FET+0x70>
  {
    Display_EEString(MOS_str);          /* display: MOS */
     aac:	83 ec       	ldi	r24, 0xC3	; 195
     aae:	91 e0       	ldi	r25, 0x01	; 1
     ab0:	0e 94 0f 11 	call	0x221e	; 0x221e <Display_EEString>
  }
  else                             /* JFET */
  {
    Display_Char('J');                  /* display: J */
  }
  Display_EEString(FET_str);       /* display: FET */
     ab4:	8f eb       	ldi	r24, 0xBF	; 191
     ab6:	91 e0       	ldi	r25, 0x01	; 1
     ab8:	0e 94 0f 11 	call	0x221e	; 0x221e <Display_EEString>

  /* display channel type */
  Show_FET_Channel();
     abc:	0e 94 34 05 	call	0xa68	; 0xa68 <Show_FET_Channel>
      
  /* display mode for MOSFET */
  if (Check.Type & TYPE_MOSFET) Show_FET_Mode();
     ac0:	80 91 02 01 	lds	r24, 0x0102	; 0x800102 <Check+0x1>
     ac4:	84 fd       	sbrc	r24, 4
     ac6:	0e 94 44 05 	call	0xa88	; 0xa88 <Show_FET_Mode>
  /*
   *  display pinout in line #2
   */

  #ifndef UI_NO_TEXTPINOUT
  Display_NextLine();                   /* next line (#2) */
     aca:	0e 94 ed 10 	call	0x21da	; 0x21da <Display_NextLine>
  Show_SemiPinout();                    /* show pinout */
     ace:	0e 94 7f 00 	call	0xfe	; 0xfe <Show_SemiPinout>
   *  display additional stuff
   */

  /* show body diode, V_th, Cgs, etc. for MOSFET */
  /* or optional flyback diode plus V_f for JFET */
  Show_FET_Extras();
     ad2:	0e 94 bd 04 	call	0x97a	; 0x97a <Show_FET_Extras>

  /* show I_DSS and V_GS(off) for depletion mode FET */
  if (Check.Type & TYPE_DEPLETION)
     ad6:	80 91 02 01 	lds	r24, 0x0102	; 0x800102 <Check+0x1>
     ada:	83 ff       	sbrs	r24, 3
     adc:	1a c0       	rjmp	.+52     	; 0xb12 <Show_FET+0x6e>
  {
    /* I_DSS */
    Show_SemiCurrent(I_DSS_str);        /* display Idss */
     ade:	8b e3       	ldi	r24, 0x3B	; 59
     ae0:	91 e0       	ldi	r25, 0x01	; 1
     ae2:	0e 94 30 02 	call	0x460	; 0x460 <Show_SemiCurrent>

    /* V_GS(off) */
    if (Semi.U_3 != 0)                  /* valid value */
     ae6:	80 91 a5 01 	lds	r24, 0x01A5	; 0x8001a5 <Semi+0xb>
     aea:	90 91 a6 01 	lds	r25, 0x01A6	; 0x8001a6 <Semi+0xc>
     aee:	89 2b       	or	r24, r25
     af0:	81 f0       	breq	.+32     	; 0xb12 <Show_FET+0x6e>
    {
      Display_NL_EEString_Space(V_GSoff_str);     /* display: V_GS(off) */
     af2:	89 e2       	ldi	r24, 0x29	; 41
     af4:	91 e0       	ldi	r25, 0x01	; 1
     af6:	0e 94 43 11 	call	0x2286	; 0x2286 <Display_NL_EEString_Space>
      #ifdef SW_SYMBOLS
      /* we need some space for the symbol: move value to next line */
      Display_NextLine();
      Display_Space();
      #endif
      Display_SignedValue(Semi.U_3, -3, 'V');     /* display V_GS(off) in mV */
     afa:	60 91 a5 01 	lds	r22, 0x01A5	; 0x8001a5 <Semi+0xb>
     afe:	70 91 a6 01 	lds	r23, 0x01A6	; 0x8001a6 <Semi+0xc>
     b02:	07 2e       	mov	r0, r23
     b04:	00 0c       	add	r0, r0
     b06:	88 0b       	sbc	r24, r24
     b08:	99 0b       	sbc	r25, r25
     b0a:	26 e5       	ldi	r18, 0x56	; 86
     b0c:	4d ef       	ldi	r20, 0xFD	; 253
     b0e:	0e 94 05 12 	call	0x240a	; 0x240a <Display_SignedValue>
    }
  }
}
     b12:	08 95       	ret
  {
    Display_EEString(MOS_str);          /* display: MOS */
  }
  else                             /* JFET */
  {
    Display_Char('J');                  /* display: J */
     b14:	8a e4       	ldi	r24, 0x4A	; 74
     b16:	0e 94 fe 2a 	call	0x55fc	; 0x55fc <LCD_Char>
     b1a:	cc cf       	rjmp	.-104    	; 0xab4 <Show_FET+0x10>

00000b1c <Show_IGBT>:
  /* display type in line #1 */
  #ifdef UI_COLORED_TITLES
  Display_UseTitleColor();         /* use title color */
  #endif

  Display_EEString(IGBT_str);      /* display: IGBT */
     b1c:	8c ea       	ldi	r24, 0xAC	; 172
     b1e:	91 e0       	ldi	r25, 0x01	; 1
     b20:	0e 94 0f 11 	call	0x221e	; 0x221e <Display_EEString>
  Show_FET_Channel();              /* display channel type */
     b24:	0e 94 34 05 	call	0xa68	; 0xa68 <Show_FET_Channel>
  Show_FET_Mode();                 /* display mode */
     b28:	0e 94 44 05 	call	0xa88	; 0xa88 <Show_FET_Mode>
  Display_UseOldColor();           /* use old color */
  #endif

  #ifndef UI_NO_TEXTPINOUT
  /* display pinout in line #2 */
  Display_NextLine();              /* next line (#2) */
     b2c:	0e 94 ed 10 	call	0x21da	; 0x21da <Display_NextLine>
  Show_SemiPinout();               /* show pinout */
     b30:	0e 94 7f 00 	call	0xfe	; 0xfe <Show_SemiPinout>
  #endif

  /* display additional stuff */
  Show_FET_Extras();               /* show diode, V_th and C_GE */
     b34:	0e 94 bd 04 	call	0x97a	; 0x97a <Show_FET_Extras>
}
     b38:	08 95       	ret

00000b3a <Show_ThyristorTriac>:
   *  C   - Cathode    MT1
   *  U_1 - V_GT (mV)
   */

  /* display component type in line #1 and pinout in line #2 */
  if (Check.Found == COMP_THYRISTOR)    /* SCR */
     b3a:	80 91 01 01 	lds	r24, 0x0101	; 0x800101 <Check>
     b3e:	82 32       	cpi	r24, 0x22	; 34
     b40:	e9 f4       	brne	.+58     	; 0xb7c <Show_ThyristorTriac+0x42>
  {
    #ifdef UI_COLORED_TITLES
      /* display: thyristor */
      Display_ColoredEEString(Thyristor_str, COLOR_TITLE);
    #else
      Display_EEString(Thyristor_str);  /* display: thyristor */
     b42:	85 e2       	ldi	r24, 0x25	; 37
     b44:	92 e0       	ldi	r25, 0x02	; 2
  {
    #ifdef UI_COLORED_TITLES
      /* display: TRIAC */
      Display_ColoredEEString(Triac_str, COLOR_TITLE);
    #else
      Display_EEString(Triac_str);      /* display: TRIAC */
     b46:	0e 94 0f 11 	call	0x221e	; 0x221e <Display_EEString>
    #endif
  }

  #ifndef UI_NO_TEXTPINOUT
  Display_NextLine();                   /* next line (#2) */
     b4a:	0e 94 ed 10 	call	0x21da	; 0x21da <Display_NextLine>
  Show_SemiPinout();                    /* display pinout */
     b4e:	0e 94 7f 00 	call	0xfe	; 0xfe <Show_SemiPinout>
  #endif

  /* show V_GT (gate trigger voltage) in line #3 */
  if (Semi.U_1 > 0)                /* show if not zero */
     b52:	80 91 a1 01 	lds	r24, 0x01A1	; 0x8001a1 <Semi+0x7>
     b56:	90 91 a2 01 	lds	r25, 0x01A2	; 0x8001a2 <Semi+0x8>
     b5a:	89 2b       	or	r24, r25
     b5c:	71 f0       	breq	.+28     	; 0xb7a <Show_ThyristorTriac+0x40>
  {
    Display_NL_EEString_Space(V_GT_str);     /* display: V_GT */
     b5e:	83 e9       	ldi	r24, 0x93	; 147
     b60:	91 e0       	ldi	r25, 0x01	; 1
     b62:	0e 94 43 11 	call	0x2286	; 0x2286 <Display_NL_EEString_Space>
    Display_Value(Semi.U_1, -3, 'V');        /* display V_GT in mV */
     b66:	60 91 a1 01 	lds	r22, 0x01A1	; 0x8001a1 <Semi+0x7>
     b6a:	70 91 a2 01 	lds	r23, 0x01A2	; 0x8001a2 <Semi+0x8>
     b6e:	90 e0       	ldi	r25, 0x00	; 0
     b70:	80 e0       	ldi	r24, 0x00	; 0
     b72:	26 e5       	ldi	r18, 0x56	; 86
     b74:	4d ef       	ldi	r20, 0xFD	; 253
     b76:	0e 94 74 11 	call	0x22e8	; 0x22e8 <Display_Value>
  }
}
     b7a:	08 95       	ret
  {
    #ifdef UI_COLORED_TITLES
      /* display: TRIAC */
      Display_ColoredEEString(Triac_str, COLOR_TITLE);
    #else
      Display_EEString(Triac_str);      /* display: TRIAC */
     b7c:	8f e1       	ldi	r24, 0x1F	; 31
     b7e:	92 e0       	ldi	r25, 0x02	; 2
     b80:	e2 cf       	rjmp	.-60     	; 0xb46 <Show_ThyristorTriac+0xc>

00000b82 <Show_PUT>:
/*
 *  show PUT
 */

void Show_PUT(void)
{
     b82:	cf 93       	push	r28
     b84:	df 93       	push	r29
  /* display type in line #1 */
  #ifdef UI_COLORED_TITLES
    /* display: PUT */
    Display_ColoredEEString(PUT_str, COLOR_TITLE);
  #else
    Display_EEString(PUT_str);          /* display: PUT */
     b86:	8b e1       	ldi	r24, 0x1B	; 27
     b88:	92 e0       	ldi	r25, 0x02	; 2
     b8a:	0e 94 0f 11 	call	0x221e	; 0x221e <Display_EEString>
  #endif

  #ifndef UI_NO_TEXTPINOUT
  /* display pinout in line #2 */
  Display_NextLine();                   /* move to line #2 */
     b8e:	0e 94 ed 10 	call	0x21da	; 0x21da <Display_NextLine>
  Show_SemiPinout();                    /* display pinout */
     b92:	0e 94 7f 00 	call	0xfe	; 0xfe <Show_SemiPinout>
  #endif

  /* display V_T in line #3 */
  Display_NL_EEString_Space(V_T_str);   /* display: VT */
     b96:	8e e7       	ldi	r24, 0x7E	; 126
     b98:	91 e0       	ldi	r25, 0x01	; 1
     b9a:	0e 94 43 11 	call	0x2286	; 0x2286 <Display_NL_EEString_Space>
  Display_Value(AltSemi.U_2, -3, 'V');  /* display V_T */
     b9e:	c5 e2       	ldi	r28, 0x25	; 37
     ba0:	d1 e0       	ldi	r29, 0x01	; 1
     ba2:	6d 81       	ldd	r22, Y+5	; 0x05
     ba4:	7e 81       	ldd	r23, Y+6	; 0x06
     ba6:	90 e0       	ldi	r25, 0x00	; 0
     ba8:	80 e0       	ldi	r24, 0x00	; 0
     baa:	26 e5       	ldi	r18, 0x56	; 86
     bac:	4d ef       	ldi	r20, 0xFD	; 253
     bae:	0e 94 74 11 	call	0x22e8	; 0x22e8 <Display_Value>

  /* display V_f in line #4 */
  Display_NL_EEString_Space(Vf_str);    /* display: Vf */
     bb2:	8b e8       	ldi	r24, 0x8B	; 139
     bb4:	91 e0       	ldi	r25, 0x01	; 1
     bb6:	0e 94 43 11 	call	0x2286	; 0x2286 <Display_NL_EEString_Space>
  Display_Value(AltSemi.U_1, -3, 'V');  /* display V_f */
     bba:	6b 81       	ldd	r22, Y+3	; 0x03
     bbc:	7c 81       	ldd	r23, Y+4	; 0x04
     bbe:	90 e0       	ldi	r25, 0x00	; 0
     bc0:	80 e0       	ldi	r24, 0x00	; 0
     bc2:	26 e5       	ldi	r18, 0x56	; 86
     bc4:	4d ef       	ldi	r20, 0xFD	; 253
     bc6:	0e 94 74 11 	call	0x22e8	; 0x22e8 <Display_Value>
}
     bca:	df 91       	pop	r29
     bcc:	cf 91       	pop	r28
     bce:	08 95       	ret

00000bd0 <Show_UJT>:
  /* display type in line #1 */
  #ifdef UI_COLORED_TITLES
    /* display: UJT */
    Display_ColoredEEString(UJT_str, COLOR_TITLE);
  #else
    Display_EEString(UJT_str);          /* display: UJT */
     bd0:	8e ec       	ldi	r24, 0xCE	; 206
     bd2:	91 e0       	ldi	r25, 0x01	; 1
     bd4:	0e 94 0f 11 	call	0x221e	; 0x221e <Display_EEString>
  #endif

  #ifndef UI_NO_TEXTPINOUT
  /* display pinout in line #2 */  
  Display_NextLine();                   /* next line (#2) */
     bd8:	0e 94 ed 10 	call	0x21da	; 0x21da <Display_NextLine>
  Show_SemiPinout();                    /* display pinout */
     bdc:	0e 94 7f 00 	call	0xfe	; 0xfe <Show_SemiPinout>
  #endif

  /* display r_BB in line #3 */
  Display_NL_EEString_Space(R_BB_str);  /* display: R_BB */  
     be0:	83 ee       	ldi	r24, 0xE3	; 227
     be2:	90 e0       	ldi	r25, 0x00	; 0
     be4:	0e 94 43 11 	call	0x2286	; 0x2286 <Display_NL_EEString_Space>
  Display_Value(Resistors[0].Value, Resistors[0].Scale, LCD_CHAR_OMEGA);
     be8:	ea e0       	ldi	r30, 0x0A	; 10
     bea:	f1 e0       	ldi	r31, 0x01	; 1
     bec:	63 81       	ldd	r22, Z+3	; 0x03
     bee:	74 81       	ldd	r23, Z+4	; 0x04
     bf0:	85 81       	ldd	r24, Z+5	; 0x05
     bf2:	96 81       	ldd	r25, Z+6	; 0x06
     bf4:	24 e0       	ldi	r18, 0x04	; 4
     bf6:	42 81       	ldd	r20, Z+2	; 0x02
     bf8:	0e 94 74 11 	call	0x22e8	; 0x22e8 <Display_Value>
}
     bfc:	08 95       	ret

00000bfe <CheckVoltageRefs>:
/*
 *  manage voltage references
 */

void CheckVoltageRefs(void)
{
     bfe:	cf 93       	push	r28
     c00:	df 93       	push	r29

  /*
   *  internal 1.1V bandgap reference
   */

  Cfg.Bandgap = ReadU(ADC_CHAN_BANDGAP);     /* dummy read for bandgap stabilization */
     c02:	8e e0       	ldi	r24, 0x0E	; 14
     c04:	0e 94 61 0d 	call	0x1ac2	; 0x1ac2 <ReadU>
     c08:	c6 e8       	ldi	r28, 0x86	; 134
     c0a:	d1 e0       	ldi	r29, 0x01	; 1
     c0c:	9f 83       	std	Y+7, r25	; 0x07
     c0e:	8e 83       	std	Y+6, r24	; 0x06
  Cfg.Samples = 200;                         /* perform 200 ADC samples for high accuracy */
     c10:	88 ec       	ldi	r24, 0xC8	; 200
     c12:	8b 83       	std	Y+3, r24	; 0x03
  Cfg.Bandgap = ReadU(ADC_CHAN_BANDGAP);     /* get voltage of bandgap reference (mV) */
     c14:	8e e0       	ldi	r24, 0x0E	; 14
     c16:	0e 94 61 0d 	call	0x1ac2	; 0x1ac2 <ReadU>
  Cfg.Bandgap += NV.RefOffset;               /* add voltage offset */
     c1a:	20 91 ce 01 	lds	r18, 0x01CE	; 0x8001ce <NV+0x7>
     c1e:	82 0f       	add	r24, r18
     c20:	91 1d       	adc	r25, r1
     c22:	27 fd       	sbrc	r18, 7
     c24:	9a 95       	dec	r25
     c26:	9f 83       	std	Y+7, r25	; 0x07
     c28:	8e 83       	std	Y+6, r24	; 0x06

  /* clean up */
  Cfg.Samples = ADC_SAMPLES;            /* set ADC samples back to default */
     c2a:	89 e1       	ldi	r24, 0x19	; 25
     c2c:	8b 83       	std	Y+3, r24	; 0x03
}
     c2e:	df 91       	pop	r29
     c30:	cf 91       	pop	r28
     c32:	08 95       	ret

00000c34 <PowerOff>:
 */

void PowerOff(void)
{
  /* display feedback (otherwise the user will wait :) */
  LCD_Clear();
     c34:	0e 94 16 2b 	call	0x562c	; 0x562c <LCD_Clear>
  #endif
  #ifdef UI_CENTER_ALIGN
    Display_CenterLine(1);              /* center block: 1 line */
    Display_EEString_Center(Bye_str);   /* display: Bye! */
  #else
    Display_EEString(Bye_str);          /* display: Bye! */
     c38:	86 e1       	ldi	r24, 0x16	; 22
     c3a:	92 e0       	ldi	r25, 0x02	; 2
     c3c:	0e 94 0f 11 	call	0x221e	; 0x221e <Display_EEString>
  #endif

  /* disable stuff */
  cli();                                /* disable interrupts */
     c40:	f8 94       	cli
		);
	}
	else
	{
        uint8_t register temp_reg;
		__asm__ __volatile__ (
     c42:	0f b6       	in	r0, 0x3f	; 63
     c44:	f8 94       	cli
     c46:	a8 95       	wdr
     c48:	80 91 60 00 	lds	r24, 0x0060	; 0x800060 <__TEXT_REGION_LENGTH__+0x7f8060>
     c4c:	88 61       	ori	r24, 0x18	; 24
     c4e:	80 93 60 00 	sts	0x0060, r24	; 0x800060 <__TEXT_REGION_LENGTH__+0x7f8060>
     c52:	10 92 60 00 	sts	0x0060, r1	; 0x800060 <__TEXT_REGION_LENGTH__+0x7f8060>
     c56:	0f be       	out	0x3f, r0	; 63
   *  As long as the user keeps the test button pressed the MCU is still
   *  powered. Therefor we make sure that nothing happens by forcing the
   *  MCU to sleep which also saves power. Same for a classic power switch.
   */

  set_sleep_mode(SLEEP_MODE_PWR_DOWN);  /* set sleep mode to "power down" */
     c58:	83 b7       	in	r24, 0x33	; 51
     c5a:	81 7f       	andi	r24, 0xF1	; 241
     c5c:	84 60       	ori	r24, 0x04	; 4
     c5e:	83 bf       	out	0x33, r24	; 51
  sleep_mode();                         /* enter sleep mode */
     c60:	83 b7       	in	r24, 0x33	; 51
     c62:	81 60       	ori	r24, 0x01	; 1
     c64:	83 bf       	out	0x33, r24	; 51
     c66:	88 95       	sleep
     c68:	83 b7       	in	r24, 0x33	; 51
     c6a:	8e 7f       	andi	r24, 0xFE	; 254
     c6c:	83 bf       	out	0x33, r24	; 51
}
     c6e:	08 95       	ret

00000c70 <ShowBattery>:
  uint8_t           Char2;         /* battery icon right part */
  #endif

  #ifndef UI_BATTERY
  /* display battery info (text) */
  Display_EEString_Space(Battery_str);     /* display: Bat. */
     c70:	8a e0       	ldi	r24, 0x0A	; 10
     c72:	92 e0       	ldi	r25, 0x02	; 2
     c74:	0e 94 33 11 	call	0x2266	; 0x2266 <Display_EEString_Space>
    {
      /* powered by battery */
    #endif

      /* display battery voltage */
      Display_Value(Cfg.Vbat / 10, -2, 'V');
     c78:	80 91 90 01 	lds	r24, 0x0190	; 0x800190 <Cfg+0xa>
     c7c:	90 91 91 01 	lds	r25, 0x0191	; 0x800191 <Cfg+0xb>
     c80:	6a e0       	ldi	r22, 0x0A	; 10
     c82:	70 e0       	ldi	r23, 0x00	; 0
     c84:	0e 94 dc 2c 	call	0x59b8	; 0x59b8 <__udivmodhi4>
     c88:	90 e0       	ldi	r25, 0x00	; 0
     c8a:	80 e0       	ldi	r24, 0x00	; 0
     c8c:	26 e5       	ldi	r18, 0x56	; 86
     c8e:	4e ef       	ldi	r20, 0xFE	; 254
     c90:	0e 94 74 11 	call	0x22e8	; 0x22e8 <Display_Value>
      Display_Space();
     c94:	0e 94 27 11 	call	0x224e	; 0x224e <Display_Space>

      /* display status (ok, weak, low) */
      if (Cfg.Vbat < BAT_LOW)           /* low level reached */
     c98:	80 91 90 01 	lds	r24, 0x0190	; 0x800190 <Cfg+0xa>
     c9c:	90 91 91 01 	lds	r25, 0x0191	; 0x800191 <Cfg+0xb>
     ca0:	81 15       	cp	r24, r1
     ca2:	29 e1       	ldi	r18, 0x19	; 25
     ca4:	92 07       	cpc	r25, r18
     ca6:	28 f4       	brcc	.+10     	; 0xcb2 <ShowBattery+0x42>
      {
        #ifdef LCD_COLOR
        UI.PenColor = COLOR_BAT_LOW;    /* set LOW color */
        #endif
        Display_EEString(Low_str);      /* display: low */
     ca8:	8e ef       	ldi	r24, 0xFE	; 254
     caa:	91 e0       	ldi	r25, 0x01	; 1
      else                              /* ok */
      {
        #ifdef LCD_COLOR
        UI.PenColor = COLOR_BAT_OK;     /* set OK color */
        #endif
        Display_EEString(OK_str);       /* display: ok */
     cac:	0e 94 0f 11 	call	0x221e	; 0x221e <Display_EEString>
    #ifdef BAT_EXT_UNMONITORED
    }
    #endif

  #endif
}
     cb0:	08 95       	ret
        #ifdef LCD_COLOR
        UI.PenColor = COLOR_BAT_LOW;    /* set LOW color */
        #endif
        Display_EEString(Low_str);      /* display: low */
      }
      else if (Cfg.Vbat < BAT_WEAK)     /* warning level reached */
     cb2:	88 3e       	cpi	r24, 0xE8	; 232
     cb4:	9c 41       	sbci	r25, 0x1C	; 28
     cb6:	18 f4       	brcc	.+6      	; 0xcbe <ShowBattery+0x4e>
      {
        #ifdef LCD_COLOR
        UI.PenColor = COLOR_BAT_WEAK;   /* set WEAK color */
        #endif
        Display_EEString(Weak_str);     /* display: weak */
     cb8:	82 e0       	ldi	r24, 0x02	; 2
     cba:	92 e0       	ldi	r25, 0x02	; 2
     cbc:	f7 cf       	rjmp	.-18     	; 0xcac <ShowBattery+0x3c>
      else                              /* ok */
      {
        #ifdef LCD_COLOR
        UI.PenColor = COLOR_BAT_OK;     /* set OK color */
        #endif
        Display_EEString(OK_str);       /* display: ok */
     cbe:	87 e0       	ldi	r24, 0x07	; 7
     cc0:	92 e0       	ldi	r25, 0x02	; 2
     cc2:	f4 cf       	rjmp	.-24     	; 0xcac <ShowBattery+0x3c>

00000cc4 <CheckBattery>:
void CheckBattery(void)
{
  uint16_t          U_Bat;         /* battery voltage */

  /* get current battery voltage */
  U_Bat = ReadU(TP_BAT);           /* read voltage (mV) */
     cc4:	8e e0       	ldi	r24, 0x0E	; 14
     cc6:	0e 94 61 0d 	call	0x1ac2	; 0x1ac2 <ReadU>
   *  - U2 = (Uin / (R1 + R2)) * R2 
   *  - Uin = (U2 * (R1 + R2)) / R2
   */

  Temp = (((uint32_t)(BAT_R1 + BAT_R2) * 1000) / BAT_R2);   /* factor (0.001) */
  Temp *= U_Bat;                   /* Uin (0.001 mV) */
     cca:	9c 01       	movw	r18, r24
     ccc:	ae eb       	ldi	r26, 0xBE	; 190
     cce:	bf e0       	ldi	r27, 0x0F	; 15
     cd0:	0e 94 4b 2d 	call	0x5a96	; 0x5a96 <__umulhisi3>
  Temp /= 1000;                    /* Uin (mV) */
     cd4:	28 ee       	ldi	r18, 0xE8	; 232
     cd6:	33 e0       	ldi	r19, 0x03	; 3
     cd8:	40 e0       	ldi	r20, 0x00	; 0
     cda:	50 e0       	ldi	r21, 0x00	; 0
     cdc:	0e 94 04 2d 	call	0x5a08	; 0x5a08 <__udivmodsi4>
  U_Bat = (uint16_t)Temp;          /* keep 2 bytes */
  #endif

  U_Bat += BAT_OFFSET;             /* add offset for voltage drop */
     ce0:	2e 5d       	subi	r18, 0xDE	; 222
     ce2:	3e 4f       	sbci	r19, 0xFE	; 254
  Cfg.Vbat = U_Bat;                /* save battery voltage */
     ce4:	30 93 91 01 	sts	0x0191, r19	; 0x800191 <Cfg+0xb>
     ce8:	20 93 90 01 	sts	0x0190, r18	; 0x800190 <Cfg+0xa>
  Cfg.BatTimer = 100;              /* reset timer for next battery check (in 100ms) */
     cec:	84 e6       	ldi	r24, 0x64	; 100
     cee:	80 93 92 01 	sts	0x0192, r24	; 0x800192 <Cfg+0xc>
                                   /* about 10s */

  /* check for low-voltage situation */
  if (U_Bat < BAT_LOW)             /* low level reached */
     cf2:	21 15       	cp	r18, r1
     cf4:	39 41       	sbci	r19, 0x19	; 25
     cf6:	50 f4       	brcc	.+20     	; 0xd0c <CheckBattery+0x48>
      #ifdef UI_COLORED_CURSOR
      /* because of TestKey() we have to reset the pen color */
      UI.PenColor = COLOR_PEN;     /* set default pen color */
      #endif

      LCD_Clear();                 /* clear display */
     cf8:	0e 94 16 2b 	call	0x562c	; 0x562c <LCD_Clear>
      ShowBattery();               /* display battery status */
     cfc:	0e 94 38 06 	call	0xc70	; 0xc70 <ShowBattery>
      MilliSleep(3000);            /* let user read info */
     d00:	88 eb       	ldi	r24, 0xB8	; 184
     d02:	9b e0       	ldi	r25, 0x0B	; 11
     d04:	0e 94 0b 09 	call	0x1216	; 0x1216 <MilliSleep>
      PowerOff();                  /* power off */
     d08:	0e 94 1a 06 	call	0xc34	; 0xc34 <PowerOff>

    #ifdef BAT_EXT_UNMONITORED
    }
    #endif
  }
}
     d0c:	08 95       	ret

00000d0e <NumberOfDigits>:
/*
 *  get number of digits of a value
 */

uint8_t NumberOfDigits(uint32_t Value)
{
     d0e:	cf 92       	push	r12
     d10:	df 92       	push	r13
     d12:	ef 92       	push	r14
     d14:	ff 92       	push	r15
     d16:	cf 93       	push	r28
  uint8_t           Counter = 1;   /* return value */
     d18:	c1 e0       	ldi	r28, 0x01	; 1

  while (Value >= 10)
  {
    Value /= 10;
     d1a:	2a e0       	ldi	r18, 0x0A	; 10
     d1c:	c2 2e       	mov	r12, r18
     d1e:	d1 2c       	mov	r13, r1
     d20:	e1 2c       	mov	r14, r1
     d22:	f1 2c       	mov	r15, r1

uint8_t NumberOfDigits(uint32_t Value)
{
  uint8_t           Counter = 1;   /* return value */

  while (Value >= 10)
     d24:	6a 30       	cpi	r22, 0x0A	; 10
     d26:	71 05       	cpc	r23, r1
     d28:	81 05       	cpc	r24, r1
     d2a:	91 05       	cpc	r25, r1
     d2c:	38 f4       	brcc	.+14     	; 0xd3c <NumberOfDigits+0x2e>
    Value /= 10;
    Counter++;
  }

  return Counter;
}
     d2e:	8c 2f       	mov	r24, r28
     d30:	cf 91       	pop	r28
     d32:	ff 90       	pop	r15
     d34:	ef 90       	pop	r14
     d36:	df 90       	pop	r13
     d38:	cf 90       	pop	r12
     d3a:	08 95       	ret
{
  uint8_t           Counter = 1;   /* return value */

  while (Value >= 10)
  {
    Value /= 10;
     d3c:	a7 01       	movw	r20, r14
     d3e:	96 01       	movw	r18, r12
     d40:	0e 94 04 2d 	call	0x5a08	; 0x5a08 <__udivmodsi4>
     d44:	ca 01       	movw	r24, r20
     d46:	b9 01       	movw	r22, r18
    Counter++;
     d48:	cf 5f       	subi	r28, 0xFF	; 255
     d4a:	ec cf       	rjmp	.-40     	; 0xd24 <NumberOfDigits+0x16>

00000d4c <CmpValue>:
 *  - 0 if equal
 *  - 1 if first value is larger than second one
 */

int8_t CmpValue(uint32_t Value1, int8_t Scale1, uint32_t Value2, int8_t Scale2)
{
     d4c:	b0 e0       	ldi	r27, 0x00	; 0
     d4e:	a0 e0       	ldi	r26, 0x00	; 0
     d50:	ec ea       	ldi	r30, 0xAC	; 172
     d52:	f6 e0       	ldi	r31, 0x06	; 6
     d54:	0c 94 6d 2d 	jmp	0x5ada	; 0x5ada <__prologue_saves__+0x2>
     d58:	4b 01       	movw	r8, r22
     d5a:	5c 01       	movw	r10, r24
     d5c:	34 2e       	mov	r3, r20
     d5e:	28 01       	movw	r4, r16
     d60:	39 01       	movw	r6, r18
     d62:	1e 2d       	mov	r17, r14
     d64:	ac 01       	movw	r20, r24
     d66:	9b 01       	movw	r18, r22
 *  get number of digits of a value
 */

uint8_t NumberOfDigits(uint32_t Value)
{
  uint8_t           Counter = 1;   /* return value */
     d68:	d1 e0       	ldi	r29, 0x01	; 1

  while (Value >= 10)
  {
    Value /= 10;
     d6a:	9a e0       	ldi	r25, 0x0A	; 10
     d6c:	c9 2e       	mov	r12, r25
     d6e:	d1 2c       	mov	r13, r1
     d70:	e1 2c       	mov	r14, r1
     d72:	f1 2c       	mov	r15, r1

uint8_t NumberOfDigits(uint32_t Value)
{
  uint8_t           Counter = 1;   /* return value */

  while (Value >= 10)
     d74:	2a 30       	cpi	r18, 0x0A	; 10
     d76:	31 05       	cpc	r19, r1
     d78:	41 05       	cpc	r20, r1
     d7a:	51 05       	cpc	r21, r1
     d7c:	10 f5       	brcc	.+68     	; 0xdc2 <CmpValue+0x76>
     d7e:	a3 01       	movw	r20, r6
     d80:	92 01       	movw	r18, r4
 *  get number of digits of a value
 */

uint8_t NumberOfDigits(uint32_t Value)
{
  uint8_t           Counter = 1;   /* return value */
     d82:	c1 e0       	ldi	r28, 0x01	; 1

  while (Value >= 10)
  {
    Value /= 10;
     d84:	8a e0       	ldi	r24, 0x0A	; 10
     d86:	c8 2e       	mov	r12, r24
     d88:	d1 2c       	mov	r13, r1
     d8a:	e1 2c       	mov	r14, r1
     d8c:	f1 2c       	mov	r15, r1

uint8_t NumberOfDigits(uint32_t Value)
{
  uint8_t           Counter = 1;   /* return value */

  while (Value >= 10)
     d8e:	2a 30       	cpi	r18, 0x0A	; 10
     d90:	31 05       	cpc	r19, r1
     d92:	41 05       	cpc	r20, r1
     d94:	51 05       	cpc	r21, r1
     d96:	e8 f4       	brcc	.+58     	; 0xdd2 <CmpValue+0x86>
  /* determine virtual length */
  Len1 = NumberOfDigits(Value1) + Scale1;
  Len2 = NumberOfDigits(Value2) + Scale2;

  /* pre-process */
  if ((Value1 == 0) || (Value2 == 0))    /* special case */
     d98:	81 14       	cp	r8, r1
     d9a:	91 04       	cpc	r9, r1
     d9c:	a1 04       	cpc	r10, r1
     d9e:	b1 04       	cpc	r11, r1
     da0:	91 f1       	breq	.+100    	; 0xe06 <CmpValue+0xba>
     da2:	41 14       	cp	r4, r1
     da4:	51 04       	cpc	r5, r1
     da6:	61 04       	cpc	r6, r1
     da8:	71 04       	cpc	r7, r1
     daa:	41 f1       	breq	.+80     	; 0xdfc <CmpValue+0xb0>
{
  int8_t            Flag;               /* return value */
  int8_t            Len1, Len2;         /* length */

  /* determine virtual length */
  Len1 = NumberOfDigits(Value1) + Scale1;
     dac:	43 2d       	mov	r20, r3
     dae:	4d 0f       	add	r20, r29
  Len2 = NumberOfDigits(Value2) + Scale2;
     db0:	e1 2e       	mov	r14, r17
     db2:	ec 0e       	add	r14, r28
  /* pre-process */
  if ((Value1 == 0) || (Value2 == 0))    /* special case */
  {
    Flag = 10;                /* perform direct comparison */
  }
  else if (Len1 > Len2)       /* more digits -> larger */
     db4:	e4 16       	cp	r14, r20
     db6:	f4 f1       	brlt	.+124    	; 0xe34 <CmpValue+0xe8>
    Flag = 1;                 /* first value is larger */
  }
  else if (Len1 == Len2)      /* same length */
  {
    /* re-scale to longer value */
    Len1 -= Scale1;           /* just number of digits */
     db8:	ed 2f       	mov	r30, r29
  }
  else if (Len1 > Len2)       /* more digits -> larger */
  {
    Flag = 1;                 /* first value is larger */
  }
  else if (Len1 == Len2)      /* same length */
     dba:	4e 15       	cp	r20, r14
     dbc:	d9 f0       	breq	.+54     	; 0xdf4 <CmpValue+0xa8>

    Flag = 10;                /* perform direct comparison */
  }
  else                        /* less digits -> smaller */
  {
    Flag = -1;                /* first value is smaller */
     dbe:	8f ef       	ldi	r24, 0xFF	; 255
     dc0:	2a c0       	rjmp	.+84     	; 0xe16 <CmpValue+0xca>
{
  uint8_t           Counter = 1;   /* return value */

  while (Value >= 10)
  {
    Value /= 10;
     dc2:	ca 01       	movw	r24, r20
     dc4:	b9 01       	movw	r22, r18
     dc6:	a7 01       	movw	r20, r14
     dc8:	96 01       	movw	r18, r12
     dca:	0e 94 04 2d 	call	0x5a08	; 0x5a08 <__udivmodsi4>
    Counter++;
     dce:	df 5f       	subi	r29, 0xFF	; 255
     dd0:	d1 cf       	rjmp	.-94     	; 0xd74 <CmpValue+0x28>
{
  uint8_t           Counter = 1;   /* return value */

  while (Value >= 10)
  {
    Value /= 10;
     dd2:	ca 01       	movw	r24, r20
     dd4:	b9 01       	movw	r22, r18
     dd6:	a7 01       	movw	r20, r14
     dd8:	96 01       	movw	r18, r12
     dda:	0e 94 04 2d 	call	0x5a08	; 0x5a08 <__udivmodsi4>
    Counter++;
     dde:	cf 5f       	subi	r28, 0xFF	; 255
     de0:	d6 cf       	rjmp	.-84     	; 0xd8e <CmpValue+0x42>
    Len1 -= Scale1;           /* just number of digits */
    Len2 -= Scale2;           /* just number of digits */

    while (Len1 > Len2)       /* up-scale Value #2 */
    {
      Value2 *= 10;
     de2:	aa e0       	ldi	r26, 0x0A	; 10
     de4:	b0 e0       	ldi	r27, 0x00	; 0
     de6:	a3 01       	movw	r20, r6
     de8:	92 01       	movw	r18, r4
     dea:	0e 94 61 2d 	call	0x5ac2	; 0x5ac2 <__muluhisi3>
     dee:	2b 01       	movw	r4, r22
     df0:	3c 01       	movw	r6, r24
     df2:	cf 5f       	subi	r28, 0xFF	; 255
  {
    /* re-scale to longer value */
    Len1 -= Scale1;           /* just number of digits */
    Len2 -= Scale2;           /* just number of digits */

    while (Len1 > Len2)       /* up-scale Value #2 */
     df4:	cd 17       	cp	r28, r29
     df6:	ac f3       	brlt	.-22     	; 0xde2 <CmpValue+0x96>
      Value2 *= 10;
      Len2++;
      /* Scale2-- */
    }

    while (Len2 > Len1)       /* up-scale Value #1 */
     df8:	ec 17       	cp	r30, r28
     dfa:	94 f0       	brlt	.+36     	; 0xe20 <CmpValue+0xd4>
  }

  /* direct comparison */
  if (Flag == 10)             /* requested direct comparison */
  {
    if (Value1 > Value2)
     dfc:	48 14       	cp	r4, r8
     dfe:	59 04       	cpc	r5, r9
     e00:	6a 04       	cpc	r6, r10
     e02:	7b 04       	cpc	r7, r11
     e04:	b8 f0       	brcs	.+46     	; 0xe34 <CmpValue+0xe8>
    {
      Flag = 1;               /* first value is larger */
    }
    else if (Value1 < Value2)
     e06:	81 e0       	ldi	r24, 0x01	; 1
     e08:	84 14       	cp	r8, r4
     e0a:	95 04       	cpc	r9, r5
     e0c:	a6 04       	cpc	r10, r6
     e0e:	b7 04       	cpc	r11, r7
     e10:	08 f0       	brcs	.+2      	; 0xe14 <CmpValue+0xc8>
     e12:	80 e0       	ldi	r24, 0x00	; 0
     e14:	81 95       	neg	r24
      Flag = 0;               /* values are equal */
    }
  }

  return Flag;
}
     e16:	cd b7       	in	r28, 0x3d	; 61
     e18:	de b7       	in	r29, 0x3e	; 62
     e1a:	e1 e1       	ldi	r30, 0x11	; 17
     e1c:	0c 94 89 2d 	jmp	0x5b12	; 0x5b12 <__epilogue_restores__+0x2>
      /* Scale2-- */
    }

    while (Len2 > Len1)       /* up-scale Value #1 */
    {
      Value1 *= 10;
     e20:	aa e0       	ldi	r26, 0x0A	; 10
     e22:	b0 e0       	ldi	r27, 0x00	; 0
     e24:	a5 01       	movw	r20, r10
     e26:	94 01       	movw	r18, r8
     e28:	0e 94 61 2d 	call	0x5ac2	; 0x5ac2 <__muluhisi3>
     e2c:	4b 01       	movw	r8, r22
     e2e:	5c 01       	movw	r10, r24
     e30:	ef 5f       	subi	r30, 0xFF	; 255
     e32:	e2 cf       	rjmp	.-60     	; 0xdf8 <CmpValue+0xac>
  {
    Flag = 10;                /* perform direct comparison */
  }
  else if (Len1 > Len2)       /* more digits -> larger */
  {
    Flag = 1;                 /* first value is larger */
     e34:	81 e0       	ldi	r24, 0x01	; 1
    {
      Flag = 0;               /* values are equal */
    }
  }

  return Flag;
     e36:	ef cf       	rjmp	.-34     	; 0xe16 <CmpValue+0xca>

00000e38 <RescaleValue>:
 *  returns:
 *  - rescaled value
 */

uint32_t RescaleValue(uint32_t Value, int8_t Scale, int8_t NewScale)
{
     e38:	cf 92       	push	r12
     e3a:	df 92       	push	r13
     e3c:	ef 92       	push	r14
     e3e:	ff 92       	push	r15
     e40:	cf 93       	push	r28
     e42:	df 93       	push	r29
     e44:	c4 2f       	mov	r28, r20
     e46:	d2 2f       	mov	r29, r18

  while (Scale != NewScale)   /* processing loop */
  {
    if (NewScale > Scale)     /* upscale */
    {
      NewValue /= 10;
     e48:	2a e0       	ldi	r18, 0x0A	; 10
     e4a:	c2 2e       	mov	r12, r18
     e4c:	d1 2c       	mov	r13, r1
     e4e:	e1 2c       	mov	r14, r1
     e50:	f1 2c       	mov	r15, r1
{
  uint32_t          NewValue;      /* return value */

  NewValue = Value;           /* take old value */

  while (Scale != NewScale)   /* processing loop */
     e52:	cd 13       	cpse	r28, r29
     e54:	07 c0       	rjmp	.+14     	; 0xe64 <RescaleValue+0x2c>
      Scale--;
    }
  }

  return NewValue;
}
     e56:	df 91       	pop	r29
     e58:	cf 91       	pop	r28
     e5a:	ff 90       	pop	r15
     e5c:	ef 90       	pop	r14
     e5e:	df 90       	pop	r13
     e60:	cf 90       	pop	r12
     e62:	08 95       	ret

  NewValue = Value;           /* take old value */

  while (Scale != NewScale)   /* processing loop */
  {
    if (NewScale > Scale)     /* upscale */
     e64:	cd 17       	cp	r28, r29
     e66:	44 f4       	brge	.+16     	; 0xe78 <RescaleValue+0x40>
    {
      NewValue /= 10;
     e68:	a7 01       	movw	r20, r14
     e6a:	96 01       	movw	r18, r12
     e6c:	0e 94 04 2d 	call	0x5a08	; 0x5a08 <__udivmodsi4>
     e70:	b9 01       	movw	r22, r18
     e72:	ca 01       	movw	r24, r20
      Scale++;
     e74:	cf 5f       	subi	r28, 0xFF	; 255
     e76:	ed cf       	rjmp	.-38     	; 0xe52 <RescaleValue+0x1a>
    }
    else                      /* downscale */
    {
      NewValue *= 10;
     e78:	aa e0       	ldi	r26, 0x0A	; 10
     e7a:	b0 e0       	ldi	r27, 0x00	; 0
     e7c:	9b 01       	movw	r18, r22
     e7e:	ac 01       	movw	r20, r24
     e80:	0e 94 61 2d 	call	0x5ac2	; 0x5ac2 <__muluhisi3>
      Scale--;
     e84:	c1 50       	subi	r28, 0x01	; 1
     e86:	e5 cf       	rjmp	.-54     	; 0xe52 <RescaleValue+0x1a>

00000e88 <WaitKey>:
 */

void WaitKey(void)
{
  /* wait for key press or 3s timeout */
  TestKey(3000, CURSOR_STEADY | CHECK_OP_MODE | CHECK_BAT);
     e88:	65 e1       	ldi	r22, 0x15	; 21
     e8a:	70 e0       	ldi	r23, 0x00	; 0
     e8c:	88 eb       	ldi	r24, 0xB8	; 184
     e8e:	9b e0       	ldi	r25, 0x0B	; 11
     e90:	0e 94 0f 2b 	call	0x561e	; 0x561e <brutzelboy_get_key>
}
     e94:	08 95       	ret

00000e96 <ShortCircuit>:
 *  - 0 on any problem
 *  - 1 on success
 */

uint8_t ShortCircuit(uint8_t Mode)
{
     e96:	0f 93       	push	r16
     e98:	1f 93       	push	r17
     e9a:	cf 93       	push	r28
     e9c:	df 93       	push	r29
     e9e:	d8 2f       	mov	r29, r24
    String = (unsigned char *)Remove_str;    /* "remove" */
    Comp = 0;                                /* no shorted probe pairs */
  }
  else                   /* create short */
  {
    String = (unsigned char *)Create_str;    /* "create" */
     ea0:	0a e5       	ldi	r16, 0x5A	; 90
     ea2:	12 e0       	ldi	r17, 0x02	; 2
    Comp = 3;                                /* 3 shorted probe pairs */
     ea4:	c3 e0       	ldi	r28, 0x03	; 3
  uint8_t           Test;               /* test feedback */
  uint8_t           Comp;               /* expected result */
  unsigned char     *String;            /* display string pointer */

  /* init */
  if (Mode == 0)         /* remove short */
     ea6:	81 11       	cpse	r24, r1
     ea8:	03 c0       	rjmp	.+6      	; 0xeb0 <ShortCircuit+0x1a>
  {
    String = (unsigned char *)Remove_str;    /* "remove" */
    Comp = 0;                                /* no shorted probe pairs */
     eaa:	c0 e0       	ldi	r28, 0x00	; 0
  unsigned char     *String;            /* display string pointer */

  /* init */
  if (Mode == 0)         /* remove short */
  {
    String = (unsigned char *)Remove_str;    /* "remove" */
     eac:	01 e6       	ldi	r16, 0x61	; 97
     eae:	12 e0       	ldi	r17, 0x02	; 2
    String = (unsigned char *)Create_str;    /* "create" */
    Comp = 3;                                /* 3 shorted probe pairs */
  } 

  /* check if already done */
  Test = ShortedProbes();               /* get current status */
     eb0:	0e 94 7a 0e 	call	0x1cf4	; 0x1cf4 <ShortedProbes>

  if (Test == Comp)                     /* already done */
     eb4:	c8 17       	cp	r28, r24
     eb6:	89 f0       	breq	.+34     	; 0xeda <ShortCircuit+0x44>
    Flag = 1;                           /* skip loop */
  }
  else                                  /* not done yet */
  {
    /* tell user what to do */
    LCD_Clear();
     eb8:	0e 94 16 2b 	call	0x562c	; 0x562c <LCD_Clear>
    #ifdef UI_CENTER_ALIGN
      Display_CenterLine(2);                           /* center block: 2 lines */
      Display_EEString_Center(String);                 /* display: Remove/Create */
      Display_NL_EEString_Center(ShortCircuit_str);    /* display: short circuit! */
    #else
      Display_EEString(String);                   /* display: Remove/Create */
     ebc:	c8 01       	movw	r24, r16
     ebe:	0e 94 0f 11 	call	0x221e	; 0x221e <Display_EEString>
      Display_NL_EEString(ShortCircuit_str);      /* display: short circuit! */
     ec2:	8b e4       	ldi	r24, 0x4B	; 75
     ec4:	92 e0       	ldi	r25, 0x02	; 2
     ec6:	0e 94 38 11 	call	0x2270	; 0x2270 <Display_NL_EEString>
  }  

  /* wait until all probes are dis/connected */
  while (Flag == 2)
  {
    Test = ShortedProbes();        /* check for shorted probes */
     eca:	0e 94 7a 0e 	call	0x1cf4	; 0x1cf4 <ShortedProbes>

    if (Test == Comp)              /* job done */
     ece:	c8 13       	cpse	r28, r24
     ed0:	0a c0       	rjmp	.+20     	; 0xee6 <ShortCircuit+0x50>
    {
       Flag = 1;                   /* end loop */
       MilliSleep(200);            /* delay to smooth UI */
     ed2:	88 ec       	ldi	r24, 0xC8	; 200
     ed4:	90 e0       	ldi	r25, 0x00	; 0
     ed6:	0e 94 0b 09 	call	0x1216	; 0x1216 <MilliSleep>
     eda:	81 e0       	ldi	r24, 0x01	; 1
      }
    }
  }

  return Flag;
}
     edc:	df 91       	pop	r29
     ede:	cf 91       	pop	r28
     ee0:	1f 91       	pop	r17
     ee2:	0f 91       	pop	r16
     ee4:	08 95       	ret
       MilliSleep(200);            /* delay to smooth UI */
    }
    else                           /* job not done yet */
    {
      /* wait 100ms or for any key press */
      Test = TestKey(100, CHECK_BAT);
     ee6:	60 e1       	ldi	r22, 0x10	; 16
     ee8:	70 e0       	ldi	r23, 0x00	; 0
     eea:	84 e6       	ldi	r24, 0x64	; 100
     eec:	90 e0       	ldi	r25, 0x00	; 0
     eee:	0e 94 0f 2b 	call	0x561e	; 0x561e <brutzelboy_get_key>
      if (Mode == 1)                         /* short circuit expected */
     ef2:	d1 30       	cpi	r29, 0x01	; 1
     ef4:	51 f7       	brne	.-44     	; 0xeca <ShortCircuit+0x34>
      {
        if (Test > KEY_TIMEOUT) Flag = 0;    /* abort on key press */
     ef6:	88 23       	and	r24, r24
     ef8:	41 f3       	breq	.-48     	; 0xeca <ShortCircuit+0x34>
     efa:	80 e0       	ldi	r24, 0x00	; 0
      }
    }
  }

  return Flag;
     efc:	ef cf       	rjmp	.-34     	; 0xedc <ShortCircuit+0x46>

00000efe <MarkItem>:
 *  - selected: selected item number (0-255)
 */

void MarkItem(uint8_t Item, uint8_t Selected)
{
  if (Selected == Item)       /* current item selected */
     efe:	68 13       	cpse	r22, r24
     f00:	04 c0       	rjmp	.+8      	; 0xf0a <MarkItem+0xc>
  {
    /* mark with asterisk */
    #ifdef LCD_COLOR
    UI.PenColor = COLOR_MARKER;    /* change color */
    #endif
    Display_Char('*');             /* display asterisk */
     f02:	8a e2       	ldi	r24, 0x2A	; 42
     f04:	0e 94 fe 2a 	call	0x55fc	; 0x55fc <LCD_Char>
     f08:	08 95       	ret
    #endif
  }
  else                        /* current item not selected */
  {
    /* unmark with space */
    Display_Space();               /* display space */
     f0a:	0e 94 27 11 	call	0x224e	; 0x224e <Display_Space>
  }
}
     f0e:	08 95       	ret

00000f10 <MenuTool>:
 *  returns:
 *  - array ID/position of selected item
 */

uint8_t MenuTool(uint8_t Items, uint8_t Type, void *Menu[], unsigned char *Unit)
{
     f10:	b0 e0       	ldi	r27, 0x00	; 0
     f12:	a0 e0       	ldi	r26, 0x00	; 0
     f14:	ee e8       	ldi	r30, 0x8E	; 142
     f16:	f7 e0       	ldi	r31, 0x07	; 7
     f18:	0c 94 70 2d 	jmp	0x5ae0	; 0x5ae0 <__prologue_saves__+0x8>
     f1c:	66 2e       	mov	r6, r22
     f1e:	5a 01       	movw	r10, r20
     f20:	69 01       	movw	r12, r18
  uint8_t           n;                  /* temp value */
  void              *Address;           /* address of menu element */
  uint16_t          Value;              /* temp. value */

  /* init */
  Items--;                    /* to match array counter */
     f22:	88 24       	eor	r8, r8
     f24:	8a 94       	dec	r8
     f26:	88 0e       	add	r8, r24
  Lines = UI.CharMax_Y;       /* max. number of lines */
     f28:	70 90 23 01 	lds	r7, 0x0123	; 0x800123 <UI+0x4>
  Lines--;                    /* adjust to match item counter */
     f2c:	99 24       	eor	r9, r9
     f2e:	9a 94       	dec	r9
     f30:	97 0c       	add	r9, r7
  /* add ":" to title in line #1 */
  #ifdef UI_COLORED_TITLES
  Display_UseTitleColor();    /* use title color */
  #endif

  Display_Colon();            /* display: <whatever>: */
     f32:	0e 94 2f 11 	call	0x225e	; 0x225e <Display_Colon>

uint8_t MenuTool(uint8_t Items, uint8_t Type, void *Menu[], unsigned char *Unit)
{
  uint8_t           Selected = 0;       /* return value / selected item */
  uint8_t           First = 0;          /* first item listed */
  uint8_t           Run = 2;            /* loop control flag */
     f36:	d2 e0       	ldi	r29, 0x02	; 2
 */

uint8_t MenuTool(uint8_t Items, uint8_t Type, void *Menu[], unsigned char *Unit)
{
  uint8_t           Selected = 0;       /* return value / selected item */
  uint8_t           First = 0;          /* first item listed */
     f38:	10 e0       	ldi	r17, 0x00	; 0
 *  - array ID/position of selected item
 */

uint8_t MenuTool(uint8_t Items, uint8_t Type, void *Menu[], unsigned char *Unit)
{
  uint8_t           Selected = 0;       /* return value / selected item */
     f3a:	c0 e0       	ldi	r28, 0x00	; 0
      }
      else                              /* more items follow */
      {
        Selected++;                     /* move to next item */        

        n = First + Lines - 1;          /* last item on screen */
     f3c:	7a 94       	dec	r7
     f3e:	7a 94       	dec	r7
   *  processing loop
   */

  while (Run)
  {
    if (Lines == 1)           /* 2-line display */
     f40:	81 e0       	ldi	r24, 0x01	; 1
     f42:	98 12       	cpse	r9, r24
     f44:	02 c0       	rjmp	.+4      	; 0xf4a <MenuTool+0x3a>
    {
      First = Selected;       /* just one line for items */
      Run++;                  /* set flag for changed list */
     f46:	df 5f       	subi	r29, 0xFF	; 255
     f48:	1c 2f       	mov	r17, r28
    /*
     *  display item(s)
     *  - starting in line #2
     */

    Address = &Menu[First];        /* get address of first item */
     f4a:	e1 2e       	mov	r14, r17
     f4c:	f1 2c       	mov	r15, r1
     f4e:	ee 0c       	add	r14, r14
     f50:	ff 1c       	adc	r15, r15
     f52:	ea 0c       	add	r14, r10
     f54:	fb 1c       	adc	r15, r11
    n = 0;                         /* reset counter */
     f56:	00 e0       	ldi	r16, 0x00	; 0

    while (n < Lines)
     f58:	09 15       	cp	r16, r9
     f5a:	20 f1       	brcs	.+72     	; 0xfa4 <MenuTool+0x94>
    }

    Run = 1;             /* reset loop flag (changed list) */

    /* show navigation help for 2-line displays */
    if (Lines == 1)                /* display with two lines */
     f5c:	81 e0       	ldi	r24, 0x01	; 1
     f5e:	98 12       	cpse	r9, r24
     f60:	09 c0       	rjmp	.+18     	; 0xf74 <MenuTool+0x64>
    {
      LCD_CharPos(UI.CharMax_X, UI.CharMax_Y);    /* set position to bottom right */
     f62:	60 91 23 01 	lds	r22, 0x0123	; 0x800123 <UI+0x4>
     f66:	80 91 22 01 	lds	r24, 0x0122	; 0x800122 <UI+0x3>
     f6a:	0e 94 17 2b 	call	0x562e	; 0x562e <LCD_CharPos>
      }
      else n = '<';                /* last item */
      {
        n = '<';                   /* '<' for less */
      }
      Display_Char(n);             /* display char */
     f6e:	8c e3       	ldi	r24, 0x3C	; 60
     f70:	0e 94 fe 2a 	call	0x55fc	; 0x55fc <LCD_Char>
    }

    #ifndef HW_KEYS
      MilliSleep(100);        /* smooth UI */
     f74:	84 e6       	ldi	r24, 0x64	; 100
     f76:	90 e0       	ldi	r25, 0x00	; 0
     f78:	0e 94 0b 09 	call	0x1216	; 0x1216 <MilliSleep>

    /*
     *  process user feedback
     */
 
    n = TestKey(0, CHECK_BAT);     /* wait for key */
     f7c:	60 e1       	ldi	r22, 0x10	; 16
     f7e:	70 e0       	ldi	r23, 0x00	; 0
     f80:	90 e0       	ldi	r25, 0x00	; 0
     f82:	80 e0       	ldi	r24, 0x00	; 0
     f84:	0e 94 0f 2b 	call	0x561e	; 0x561e <brutzelboy_get_key>
     f88:	d8 2f       	mov	r29, r24
      }
    }
    #endif

    /* processing for test key */
    if (n == KEY_SHORT)            /* short key press: move to next item */
     f8a:	81 30       	cpi	r24, 0x01	; 1
     f8c:	09 f0       	breq	.+2      	; 0xf90 <MenuTool+0x80>
     f8e:	47 c0       	rjmp	.+142    	; 0x101e <MenuTool+0x10e>
    {
      if (Selected == Items)            /* last item */
     f90:	8c 12       	cpse	r8, r28
     f92:	3a c0       	rjmp	.+116    	; 0x1008 <MenuTool+0xf8>
      {
        Selected = 0;                   /* roll over to first one */
        First = 0;                      /* also reset first item listed */

        if (Items >= Lines)             /* large list */
     f94:	89 14       	cp	r8, r9
     f96:	08 f0       	brcs	.+2      	; 0xf9a <MenuTool+0x8a>
     f98:	51 c0       	rjmp	.+162    	; 0x103c <MenuTool+0x12c>
    if (n == KEY_SHORT)            /* short key press: move to next item */
    {
      if (Selected == Items)            /* last item */
      {
        Selected = 0;                   /* roll over to first one */
        First = 0;                      /* also reset first item listed */
     f9a:	10 e0       	ldi	r17, 0x00	; 0
    /* processing for test key */
    if (n == KEY_SHORT)            /* short key press: move to next item */
    {
      if (Selected == Items)            /* last item */
      {
        Selected = 0;                   /* roll over to first one */
     f9c:	c0 e0       	ldi	r28, 0x00	; 0
     f9e:	d0 cf       	rjmp	.-96     	; 0xf40 <MenuTool+0x30>
      n++;                         /* next item */

      if (n > Items) n = Lines;    /* end loop for a short list */
    }

    Run = 1;             /* reset loop flag (changed list) */
     fa0:	d1 e0       	ldi	r29, 0x01	; 1
     fa2:	ce cf       	rjmp	.-100    	; 0xf40 <MenuTool+0x30>
    Address = &Menu[First];        /* get address of first item */
    n = 0;                         /* reset counter */

    while (n < Lines)
    {
      LCD_CharPos(1, n + 2);       /* move to start of line */
     fa4:	62 e0       	ldi	r22, 0x02	; 2
     fa6:	60 0f       	add	r22, r16
     fa8:	81 e0       	ldi	r24, 0x01	; 1
     faa:	0e 94 17 2b 	call	0x562e	; 0x562e <LCD_CharPos>

      /* display indicator for multiline displays */
      if (Lines > 1)
     fae:	e1 e0       	ldi	r30, 0x01	; 1
     fb0:	9e 16       	cp	r9, r30
     fb2:	29 f0       	breq	.+10     	; 0xfbe <MenuTool+0xae>
      {
        MarkItem(First + n, Selected);
     fb4:	6c 2f       	mov	r22, r28
     fb6:	81 2f       	mov	r24, r17
     fb8:	80 0f       	add	r24, r16
     fba:	0e 94 7f 07 	call	0xefe	; 0xefe <MarkItem>
      }

      if (Run > 1)            /* list changed */
     fbe:	d1 30       	cpi	r29, 0x01	; 1
     fc0:	89 f0       	breq	.+34     	; 0xfe4 <MenuTool+0xd4>
      {
        /* display item or value */
        if (Type == 1)                  /* fixed string */
     fc2:	f1 e0       	ldi	r31, 0x01	; 1
     fc4:	6f 12       	cpse	r6, r31
     fc6:	17 c0       	rjmp	.+46     	; 0xff6 <MenuTool+0xe6>
        {
          Display_EEString(*(unsigned char **)Address);
     fc8:	f7 01       	movw	r30, r14
     fca:	80 81       	ld	r24, Z
     fcc:	91 81       	ldd	r25, Z+1	; 0x01
     fce:	0e 94 0f 11 	call	0x221e	; 0x221e <Display_EEString>
          Value = DATA_read_word(Address);   /* read value at eeprom address */
          Display_Value2(Value);
        }     

        /* display optional fixed string */
        if (Unit)
     fd2:	c1 14       	cp	r12, r1
     fd4:	d1 04       	cpc	r13, r1
     fd6:	19 f0       	breq	.+6      	; 0xfde <MenuTool+0xce>
        {
          Display_EEString(Unit);
     fd8:	c6 01       	movw	r24, r12
     fda:	0e 94 0f 11 	call	0x221e	; 0x221e <Display_EEString>
        }  

        LCD_ClearLine(0);     /* clear rest of this line */
     fde:	80 e0       	ldi	r24, 0x00	; 0
     fe0:	0e 94 18 2b 	call	0x5630	; 0x5630 <LCD_ClearLine>
      }

      Address += 2;                /* next address (2 byte steps) */
     fe4:	f2 e0       	ldi	r31, 0x02	; 2
     fe6:	ef 0e       	add	r14, r31
     fe8:	f1 1c       	adc	r15, r1
      n++;                         /* next item */
     fea:	0f 5f       	subi	r16, 0xFF	; 255

      if (n > Items) n = Lines;    /* end loop for a short list */
     fec:	80 16       	cp	r8, r16
     fee:	08 f0       	brcs	.+2      	; 0xff2 <MenuTool+0xe2>
     ff0:	b3 cf       	rjmp	.-154    	; 0xf58 <MenuTool+0x48>
     ff2:	09 2d       	mov	r16, r9
     ff4:	b1 cf       	rjmp	.-158    	; 0xf58 <MenuTool+0x48>
        {
          Display_EEString(*(unsigned char **)Address);
        }
        else                            /* uint16_t in EEPROM */
        {
          Value = DATA_read_word(Address);   /* read value at eeprom address */
     ff6:	c7 01       	movw	r24, r14
     ff8:	0e 94 f1 2d 	call	0x5be2	; 0x5be2 <eeprom_read_word>
          Display_Value2(Value);
     ffc:	bc 01       	movw	r22, r24
     ffe:	90 e0       	ldi	r25, 0x00	; 0
    1000:	80 e0       	ldi	r24, 0x00	; 0
    1002:	0e 94 00 12 	call	0x2400	; 0x2400 <Display_Value2>
    1006:	e5 cf       	rjmp	.-54     	; 0xfd2 <MenuTool+0xc2>
          Run++;                        /* set flag for changed list */
        }
      }
      else                              /* more items follow */
      {
        Selected++;                     /* move to next item */        
    1008:	cf 5f       	subi	r28, 0xFF	; 255

        n = First + Lines - 1;          /* last item on screen */
    100a:	87 2d       	mov	r24, r7
    100c:	81 0f       	add	r24, r17
        if (Selected == n)              /* item would be the last one listed */
    100e:	c8 13       	cpse	r28, r24
    1010:	97 cf       	rjmp	.-210    	; 0xf40 <MenuTool+0x30>
        {
          if (Items > Selected)         /* more items follow in list */
    1012:	c8 15       	cp	r28, r8
    1014:	08 f0       	brcs	.+2      	; 0x1018 <MenuTool+0x108>
    1016:	94 cf       	rjmp	.-216    	; 0xf40 <MenuTool+0x30>
          {
            #ifndef UI_MENU_PAGEMODE
            /* scrolling mode */
            First++;                    /* scroll one item up */
    1018:	1f 5f       	subi	r17, 0xFF	; 255
            Run++;                      /* set flag for changed list */
    101a:	d2 e0       	ldi	r29, 0x02	; 2
    101c:	91 cf       	rjmp	.-222    	; 0xf40 <MenuTool+0x30>

  /*
   *  processing loop
   */

  while (Run)
    101e:	82 30       	cpi	r24, 0x02	; 2
    1020:	09 f0       	breq	.+2      	; 0x1024 <MenuTool+0x114>
    1022:	be cf       	rjmp	.-132    	; 0xfa0 <MenuTool+0x90>
      PowerOff();                       /* power off */
    }
    #endif
  }

  LCD_Clear();                /* feedback for user */
    1024:	0e 94 16 2b 	call	0x562c	; 0x562c <LCD_Clear>
  MilliSleep(500);            /* smooth UI */
    1028:	84 ef       	ldi	r24, 0xF4	; 244
    102a:	91 e0       	ldi	r25, 0x01	; 1
    102c:	0e 94 0b 09 	call	0x1216	; 0x1216 <MilliSleep>

  return Selected;
}
    1030:	8c 2f       	mov	r24, r28
    1032:	cd b7       	in	r28, 0x3d	; 61
    1034:	de b7       	in	r29, 0x3e	; 62
    1036:	ee e0       	ldi	r30, 0x0E	; 14
    1038:	0c 94 8c 2d 	jmp	0x5b18	; 0x5b18 <__epilogue_restores__+0x8>
        Selected = 0;                   /* roll over to first one */
        First = 0;                      /* also reset first item listed */

        if (Items >= Lines)             /* large list */
        {
          Run++;                        /* set flag for changed list */
    103c:	d2 e0       	ldi	r29, 0x02	; 2
    103e:	ad cf       	rjmp	.-166    	; 0xf9a <MenuTool+0x8a>

00001040 <AdjustmentMenu>:
 *    STORAGE_LOAD      - load profile
 *    STORAGE_SHORT     - short menu
 */

void AdjustmentMenu(uint8_t Mode)
{
    1040:	a9 e0       	ldi	r26, 0x09	; 9
    1042:	b0 e0       	ldi	r27, 0x00	; 0
    1044:	e6 e2       	ldi	r30, 0x26	; 38
    1046:	f8 e0       	ldi	r31, 0x08	; 8
    1048:	0c 94 7b 2d 	jmp	0x5af6	; 0x5af6 <__prologue_saves__+0x1e>
    104c:	18 2f       	mov	r17, r24
   *  set up menu
   *  - items are added in display order
   */

  /* profile #1 */
  Item_Str[n] = (void *)Profile1_str;
    104e:	83 e4       	ldi	r24, 0x43	; 67
    1050:	91 e0       	ldi	r25, 0x01	; 1
    1052:	9a 83       	std	Y+2, r25	; 0x02
    1054:	89 83       	std	Y+1, r24	; 0x01
  Item_ID[n] = 1;
    1056:	81 e0       	ldi	r24, 0x01	; 1
    1058:	8f 83       	std	Y+7, r24	; 0x07
  n++;  

  /* profile #2 */
  Item_Str[n] = (void *)Profile2_str;
    105a:	80 e4       	ldi	r24, 0x40	; 64
    105c:	91 e0       	ldi	r25, 0x01	; 1
    105e:	9c 83       	std	Y+4, r25	; 0x04
    1060:	8b 83       	std	Y+3, r24	; 0x03
  Item_ID[n] = 2;
    1062:	82 e0       	ldi	r24, 0x02	; 2
    1064:	88 87       	std	Y+8, r24	; 0x08
  else                                  /* normal menu */
  {
  #endif

    /* exit menu */
    Item_Str[n] = (void *)Exit_str;
    1066:	86 e3       	ldi	r24, 0x36	; 54
    1068:	92 e0       	ldi	r25, 0x02	; 2
    106a:	9e 83       	std	Y+6, r25	; 0x06
    106c:	8d 83       	std	Y+5, r24	; 0x05
    Item_ID[n] = 0;
    106e:	19 86       	std	Y+9, r1	; 0x09
  #ifdef UI_CHOOSE_PROFILE
  }
  #endif

  /* display storage mode */
  LCD_Clear();                     /* clear display */
    1070:	0e 94 16 2b 	call	0x562c	; 0x562c <LCD_Clear>
  if (Mode == STORAGE_SAVE)        /* write mode */
  {
    #ifdef UI_COLORED_TITLES
      Display_ColoredEEString(Save_str, COLOR_TITLE);  /* display: Save */
    #else
      Display_EEString(Save_str);                      /* display: Save */
    1074:	89 e7       	ldi	r24, 0x79	; 121
    1076:	92 e0       	ldi	r25, 0x02	; 2
  }
  #endif

  /* display storage mode */
  LCD_Clear();                     /* clear display */
  if (Mode == STORAGE_SAVE)        /* write mode */
    1078:	12 30       	cpi	r17, 0x02	; 2
    107a:	11 f0       	breq	.+4      	; 0x1080 <AdjustmentMenu+0x40>
  else                             /* read mode */
  {
    #ifdef UI_COLORED_TITLES
      Display_ColoredEEString(Load_str, COLOR_TITLE);  /* display: Load */
    #else
      Display_EEString(Load_str);                      /* display: Load */
    107c:	84 e7       	ldi	r24, 0x74	; 116
    107e:	92 e0       	ldi	r25, 0x02	; 2
    1080:	0e 94 0f 11 	call	0x221e	; 0x221e <Display_EEString>
    #endif
  }

  /* run menu */
  ID = MenuTool(n, 1, Item_Str, NULL);       /* menu dialog */
    1084:	30 e0       	ldi	r19, 0x00	; 0
    1086:	20 e0       	ldi	r18, 0x00	; 0
    1088:	ae 01       	movw	r20, r28
    108a:	4f 5f       	subi	r20, 0xFF	; 255
    108c:	5f 4f       	sbci	r21, 0xFF	; 255
    108e:	61 e0       	ldi	r22, 0x01	; 1
    1090:	83 e0       	ldi	r24, 0x03	; 3
    1092:	0e 94 88 07 	call	0xf10	; 0xf10 <MenuTool>
  ID = Item_ID[ID];                          /* get item ID */
    1096:	8c 0f       	add	r24, r28
    1098:	9d 2f       	mov	r25, r29
    109a:	91 1d       	adc	r25, r1
    109c:	fc 01       	movw	r30, r24
    109e:	67 81       	ldd	r22, Z+7	; 0x07

  if (ID > 0)                 /* valid profile ID */
    10a0:	66 23       	and	r22, r22
    10a2:	19 f0       	breq	.+6      	; 0x10aa <AdjustmentMenu+0x6a>
  {
    /* load/save selected profile */
    ManageAdjustmentStorage(Mode, ID);
    10a4:	81 2f       	mov	r24, r17
    10a6:	0e 94 8a 09 	call	0x1314	; 0x1314 <ManageAdjustmentStorage>
  }

  /* clean up local constants */
  #undef MENU_ITEMS
}
    10aa:	29 96       	adiw	r28, 0x09	; 9
    10ac:	e3 e0       	ldi	r30, 0x03	; 3
    10ae:	0c 94 97 2d 	jmp	0x5b2e	; 0x5b2e <__epilogue_restores__+0x1e>

000010b2 <PresentMainMenu>:
 *  returns:
 *  - ID of selected menu item
 */

uint8_t PresentMainMenu(void)
{
    10b2:	ab e1       	ldi	r26, 0x1B	; 27
    10b4:	b0 e0       	ldi	r27, 0x00	; 0
    10b6:	ef e5       	ldi	r30, 0x5F	; 95
    10b8:	f8 e0       	ldi	r31, 0x08	; 8
    10ba:	0c 94 7c 2d 	jmp	0x5af8	; 0x5af8 <__prologue_saves__+0x20>
   *  test/check/signal features
   */

  #if defined (SW_PWM_SIMPLE) || defined (SW_PWM_PLUS)
  /* PWM tool */
  Item_Str[n] = (void *)PWM_str;
    10be:	8a ef       	ldi	r24, 0xFA	; 250
    10c0:	91 e0       	ldi	r25, 0x01	; 1
    10c2:	9a 83       	std	Y+2, r25	; 0x02
    10c4:	89 83       	std	Y+1, r24	; 0x01
  Item_ID[n] = MENUITEM_PWM_TOOL;
    10c6:	86 e0       	ldi	r24, 0x06	; 6
    10c8:	8b 8b       	std	Y+19, r24	; 0x13
  n++;
  #endif

  #if defined (SW_IR_RECEIVER) || defined (HW_IR_RECEIVER)
  /* IR RC detection */
  Item_Str[n] = (void *)IR_Detector_str;
    10ca:	8e ee       	ldi	r24, 0xEE	; 238
    10cc:	91 e0       	ldi	r25, 0x01	; 1
    10ce:	9c 83       	std	Y+4, r25	; 0x04
    10d0:	8b 83       	std	Y+3, r24	; 0x03
  Item_ID[n] = MENUITEM_IR_RECEIVER;
    10d2:	8d e0       	ldi	r24, 0x0D	; 13
    10d4:	8c 8b       	std	Y+20, r24	; 0x14
  n++;
  #endif

  #ifdef SW_OPTO_COUPLER
  /* opto coupler tool */
  Item_Str[n] = (void *)OptoCoupler_str;
    10d6:	81 ee       	ldi	r24, 0xE1	; 225
    10d8:	91 e0       	ldi	r25, 0x01	; 1
    10da:	9e 83       	std	Y+6, r25	; 0x06
    10dc:	8d 83       	std	Y+5, r24	; 0x05
  Item_ID[n] = MENUITEM_OPTO_COUPLER;
    10de:	8e e0       	ldi	r24, 0x0E	; 14
    10e0:	8d 8b       	std	Y+21, r24	; 0x15
   *  tester management and settings
   */

  #ifdef SW_SELFTEST
  /* selftest */
  Item_Str[n] = (void *)Selftest_str;
    10e2:	8e e0       	ldi	r24, 0x0E	; 14
    10e4:	92 e0       	ldi	r25, 0x02	; 2
    10e6:	98 87       	std	Y+8, r25	; 0x08
    10e8:	8f 83       	std	Y+7, r24	; 0x07
  Item_ID[n] = MENUITEM_SELFTEST;
    10ea:	81 e0       	ldi	r24, 0x01	; 1
    10ec:	8e 8b       	std	Y+22, r24	; 0x16
  n++;
  #endif

  /* self-adjustment */
  Item_Str[n] = (void *)Adjustment_str;
    10ee:	8e e7       	ldi	r24, 0x7E	; 126
    10f0:	92 e0       	ldi	r25, 0x02	; 2
    10f2:	9a 87       	std	Y+10, r25	; 0x0a
    10f4:	89 87       	std	Y+9, r24	; 0x09
  Item_ID[n] = MENUITEM_ADJUSTMENT;
    10f6:	82 e0       	ldi	r24, 0x02	; 2
    10f8:	8f 8b       	std	Y+23, r24	; 0x17
  Item_ID[n] = MENUITEM_TOUCH;
  n++;
  #endif

  /* save self-adjustment values */
  Item_Str[n] = (void *)Save_str;
    10fa:	89 e7       	ldi	r24, 0x79	; 121
    10fc:	92 e0       	ldi	r25, 0x02	; 2
    10fe:	9c 87       	std	Y+12, r25	; 0x0c
    1100:	8b 87       	std	Y+11, r24	; 0x0b
  Item_ID[n] = MENUITEM_SAVE;
    1102:	83 e0       	ldi	r24, 0x03	; 3
    1104:	88 8f       	std	Y+24, r24	; 0x18
  n++;

  /* load self-adjustment values */
  Item_Str[n] = (void *)Load_str;
    1106:	84 e7       	ldi	r24, 0x74	; 116
    1108:	92 e0       	ldi	r25, 0x02	; 2
    110a:	9e 87       	std	Y+14, r25	; 0x0e
    110c:	8d 87       	std	Y+13, r24	; 0x0d
  Item_ID[n] = MENUITEM_LOAD;
    110e:	84 e0       	ldi	r24, 0x04	; 4
    1110:	89 8f       	std	Y+25, r24	; 0x19
  n++;

  /* show self-adjustment values */
  Item_Str[n] = (void *)Show_str;
    1112:	88 e6       	ldi	r24, 0x68	; 104
    1114:	92 e0       	ldi	r25, 0x02	; 2
    1116:	98 8b       	std	Y+16, r25	; 0x10
    1118:	8f 87       	std	Y+15, r24	; 0x0f
  Item_ID[n] = MENUITEM_SHOW;
    111a:	85 e0       	ldi	r24, 0x05	; 5
    111c:	8a 8f       	std	Y+26, r24	; 0x1a
  Item_ID[n] = MENUITEM_POWER_OFF;
  n++;
  #endif

  /* exit menu */
  Item_Str[n] = (void *)Exit_str;
    111e:	86 e3       	ldi	r24, 0x36	; 54
    1120:	92 e0       	ldi	r25, 0x02	; 2
    1122:	9a 8b       	std	Y+18, r25	; 0x12
    1124:	89 8b       	std	Y+17, r24	; 0x11
  Item_ID[n] = MENUITEM_EXIT;
    1126:	1b 8e       	std	Y+27, r1	; 0x1b

  /*
   *  run menu
   */

  LCD_Clear();
    1128:	0e 94 16 2b 	call	0x562c	; 0x562c <LCD_Clear>
  #ifdef UI_COLORED_TITLES
    /* display "Select" */
    Display_ColoredEEString(Select_str, COLOR_TITLE);
  #else
    Display_EEString(Select_str);       /* display "Select" */
    112c:	89 e8       	ldi	r24, 0x89	; 137
    112e:	92 e0       	ldi	r25, 0x02	; 2
    1130:	0e 94 0f 11 	call	0x221e	; 0x221e <Display_EEString>
  #endif

  ID = MenuTool(n, 1, Item_Str, NULL);  /* menu dialog */
    1134:	30 e0       	ldi	r19, 0x00	; 0
    1136:	20 e0       	ldi	r18, 0x00	; 0
    1138:	ae 01       	movw	r20, r28
    113a:	4f 5f       	subi	r20, 0xFF	; 255
    113c:	5f 4f       	sbci	r21, 0xFF	; 255
    113e:	61 e0       	ldi	r22, 0x01	; 1
    1140:	89 e0       	ldi	r24, 0x09	; 9
    1142:	0e 94 88 07 	call	0xf10	; 0xf10 <MenuTool>
  ID = Item_ID[ID];                     /* get item ID */
    1146:	8c 0f       	add	r24, r28
    1148:	9d 2f       	mov	r25, r29
    114a:	91 1d       	adc	r25, r1
  #undef ITEM_37
  #undef ITEM_38
  #undef ITEM_39

  return(ID);                 /* return item ID */
}
    114c:	fc 01       	movw	r30, r24
    114e:	83 89       	ldd	r24, Z+19	; 0x13
    1150:	6b 96       	adiw	r28, 0x1b	; 27
    1152:	e2 e0       	ldi	r30, 0x02	; 2
    1154:	0c 94 98 2d 	jmp	0x5b30	; 0x5b30 <__epilogue_restores__+0x20>

00001158 <MainMenu>:
 *  - 1 on success of a menu item 
 *  - KEY_EXIT on "exit menu"
 */

uint8_t MainMenu(void)
{
    1158:	cf 93       	push	r28
  uint8_t           Flag = 1;           /* feedback flag */
  #ifdef SW_PWM_SIMPLE
  uint16_t          Frequency;          /* PWM frequency */  
  #endif

  ID = PresentMainMenu();     /* create menu and get user feedback */
    115a:	0e 94 59 08 	call	0x10b2	; 0x10b2 <PresentMainMenu>

  /*
   *  run selected item
   */

  switch (ID)
    115e:	8f 30       	cpi	r24, 0x0F	; 15
    1160:	58 f5       	brcc	.+86     	; 0x11b8 <MainMenu+0x60>
    1162:	e8 2f       	mov	r30, r24
    1164:	f0 e0       	ldi	r31, 0x00	; 0
    1166:	e9 54       	subi	r30, 0x49	; 73
    1168:	f7 4f       	sbci	r31, 0xF7	; 247
    116a:	0c 94 45 2d 	jmp	0x5a8a	; 0x5a8a <__tablejump2__>
    116e:	03 09       	sbc	r16, r3
    1170:	c6 08       	sbc	r12, r6
    1172:	d6 08       	sbc	r13, r6
    1174:	d9 08       	sbc	r13, r9
    1176:	de 08       	sbc	r13, r14
    1178:	e0 08       	sbc	r14, r0
    117a:	e3 08       	sbc	r14, r3
    117c:	dc 08       	sbc	r13, r12
    117e:	dc 08       	sbc	r13, r12
    1180:	dc 08       	sbc	r13, r12
    1182:	dc 08       	sbc	r13, r12
    1184:	dc 08       	sbc	r13, r12
    1186:	dc 08       	sbc	r13, r12
    1188:	fb 08       	sbc	r15, r11
    118a:	fe 08       	sbc	r15, r14
      break;

    #ifdef SW_SELFTEST
    /* self-test */
    case MENUITEM_SELFTEST:
      Flag = SelfTest();
    118c:	0e 94 43 0c 	call	0x1886	; 0x1886 <SelfTest>
      break;
    #endif

    /* self-adjustment */
    case MENUITEM_ADJUSTMENT:
      Flag = SelfAdjustment();
    1190:	c8 2f       	mov	r28, r24
        Display_EEString(Done_str);     /* display: done! */
      #endif
    }
  #else
    /* will be called again by main() until explicit exit */
    if (Flag == 0)                      /* on error */
    1192:	81 11       	cpse	r24, r1
    1194:	36 c0       	rjmp	.+108    	; 0x1202 <MainMenu+0xaa>
    {
      LCD_Clear();                      /* clear display */
    1196:	0e 94 16 2b 	call	0x562c	; 0x562c <LCD_Clear>
      #ifdef UI_CENTER_ALIGN
        Display_CenterLine(1);               /* center block: 1 line */
        Display_EEString_Center(Error_str);  /* display: error! */
      #else
        Display_EEString(Error_str);    /* display: error! */
    119a:	8b e3       	ldi	r24, 0x3B	; 59
    119c:	92 e0       	ldi	r25, 0x02	; 2
    119e:	0e 94 0f 11 	call	0x221e	; 0x221e <Display_EEString>
      #endif

      WaitKey();                        /* wait for any key */
    11a2:	0e 94 44 07 	call	0xe88	; 0xe88 <WaitKey>
      #endif
    }
  #endif

  return Flag;
}
    11a6:	8c 2f       	mov	r24, r28
    11a8:	cf 91       	pop	r28
    11aa:	08 95       	ret
      break;
    #endif

    /* self-adjustment */
    case MENUITEM_ADJUSTMENT:
      Flag = SelfAdjustment();
    11ac:	0e 94 2c 0a 	call	0x1458	; 0x1458 <SelfAdjustment>
    11b0:	ef cf       	rjmp	.-34     	; 0x1190 <MainMenu+0x38>
      break;

    /* save adjustment values */
    case MENUITEM_SAVE:
      AdjustmentMenu(STORAGE_SAVE);
    11b2:	82 e0       	ldi	r24, 0x02	; 2
      break;

    /* load adjustment values */
    case MENUITEM_LOAD:
      AdjustmentMenu(STORAGE_LOAD);
    11b4:	0e 94 20 08 	call	0x1040	; 0x1040 <AdjustmentMenu>
 */

uint8_t MainMenu(void)
{
  uint8_t           ID;                 /* ID of selected item */
  uint8_t           Flag = 1;           /* feedback flag */
    11b8:	c1 e0       	ldi	r28, 0x01	; 1
        Display_EEString(Done_str);     /* display: done! */
      #endif
    }
  #endif

  return Flag;
    11ba:	f5 cf       	rjmp	.-22     	; 0x11a6 <MainMenu+0x4e>
      AdjustmentMenu(STORAGE_SAVE);
      break;

    /* load adjustment values */
    case MENUITEM_LOAD:
      AdjustmentMenu(STORAGE_LOAD);
    11bc:	81 e0       	ldi	r24, 0x01	; 1
    11be:	fa cf       	rjmp	.-12     	; 0x11b4 <MainMenu+0x5c>
      break;

    /* show basic adjustment values */
    case MENUITEM_SHOW:
      ShowAdjustmentValues();
    11c0:	0e 94 c0 09 	call	0x1380	; 0x1380 <ShowAdjustmentValues>
    11c4:	f9 cf       	rjmp	.-14     	; 0x11b8 <MainMenu+0x60>

    #ifdef SW_PWM_SIMPLE
    /* PWM tool with simple UI */
    case MENUITEM_PWM_TOOL:
      /* run PWM menu */
      LCD_Clear();
    11c6:	0e 94 16 2b 	call	0x562c	; 0x562c <LCD_Clear>
      #ifdef UI_COLORED_TITLES
        /* display: PWM */
        Display_ColoredEEString(PWM_str, COLOR_TITLE);
      #else
        Display_EEString(PWM_str);           /* display: PWM */
    11ca:	8a ef       	ldi	r24, 0xFA	; 250
    11cc:	91 e0       	ldi	r25, 0x01	; 1
    11ce:	0e 94 0f 11 	call	0x221e	; 0x221e <Display_EEString>
      #endif
      ID = MenuTool(NUM_PWM_FREQ, 2, (void *)PWM_Freq_table, (unsigned char *)Hertz_str);
    11d2:	23 e1       	ldi	r18, 0x13	; 19
    11d4:	32 e0       	ldi	r19, 0x02	; 2
    11d6:	4c e4       	ldi	r20, 0x4C	; 76
    11d8:	50 e0       	ldi	r21, 0x00	; 0
    11da:	62 e0       	ldi	r22, 0x02	; 2
    11dc:	88 e0       	ldi	r24, 0x08	; 8
    11de:	0e 94 88 07 	call	0xf10	; 0xf10 <MenuTool>
      Frequency = DATA_read_word(&PWM_Freq_table[ID]);      /* get selected frequency */
    11e2:	90 e0       	ldi	r25, 0x00	; 0
    11e4:	88 0f       	add	r24, r24
    11e6:	99 1f       	adc	r25, r25
    11e8:	84 5b       	subi	r24, 0xB4	; 180
    11ea:	9f 4f       	sbci	r25, 0xFF	; 255
    11ec:	0e 94 f1 2d 	call	0x5be2	; 0x5be2 <eeprom_read_word>
      PWM_Tool(Frequency);                                  /* and run PWM tool */
    11f0:	0e 94 7b 25 	call	0x4af6	; 0x4af6 <PWM_Tool>
    11f4:	e1 cf       	rjmp	.-62     	; 0x11b8 <MainMenu+0x60>
    #endif

    #if defined (SW_IR_RECEIVER) || defined (HW_IR_RECEIVER)
    /* IR RC detector/decoder */
    case MENUITEM_IR_RECEIVER:
      IR_Detector();
    11f6:	0e 94 60 2a 	call	0x54c0	; 0x54c0 <IR_Detector>
    11fa:	de cf       	rjmp	.-68     	; 0x11b8 <MainMenu+0x60>
    #endif

    #ifdef SW_OPTO_COUPLER
    /* opto coupler tool */
    case MENUITEM_OPTO_COUPLER:
      OptoCoupler_Tool();
    11fc:	0e 94 e8 23 	call	0x47d0	; 0x47d0 <OptoCoupler_Tool>
    1200:	db cf       	rjmp	.-74     	; 0x11b8 <MainMenu+0x60>
        Display_EEString(Error_str);    /* display: error! */
      #endif

      WaitKey();                        /* wait for any key */
    }
    else if (Flag == KEY_EXIT)          /* on exit */
    1202:	89 36       	cpi	r24, 0x69	; 105
    1204:	81 f6       	brne	.-96     	; 0x11a6 <MainMenu+0x4e>
    {
      LCD_Clear();                      /* clear display */
    1206:	0e 94 16 2b 	call	0x562c	; 0x562c <LCD_Clear>
      #ifdef UI_CENTER_ALIGN
        Display_CenterLine(1);               /* center block: 1 line */
        Display_EEString_Center(Done_str);   /* display: done! */
      #else
        Display_EEString(Done_str);     /* display: done! */
    120a:	80 e9       	ldi	r24, 0x90	; 144
    120c:	92 e0       	ldi	r25, 0x02	; 2
    120e:	0e 94 0f 11 	call	0x221e	; 0x221e <Display_EEString>
    1212:	c9 e6       	ldi	r28, 0x69	; 105
    1214:	c8 cf       	rjmp	.-112    	; 0x11a6 <MainMenu+0x4e>

00001216 <MilliSleep>:
      required for the processing loop, because it would make things much more
      complicated and we don't need exact timing here.
  */

  #ifdef SAVE_POWER
  Mode = Cfg.SleepMode;                 /* get current sleep mode */
    1216:	30 91 88 01 	lds	r19, 0x0188	; 0x800188 <Cfg+0x2>
  #endif

  /* calculate required timer cycles (prescaler 1024) */
  Cycles = Time;                        /* ms * 1024 -> Ás */
  Cycles *= MCU_CYCLES_PER_US;          /* timer cycles based on MCU frequency */
    121a:	b0 e0       	ldi	r27, 0x00	; 0
    121c:	a0 e0       	ldi	r26, 0x00	; 0
    121e:	23 e0       	ldi	r18, 0x03	; 3
    1220:	88 0f       	add	r24, r24
    1222:	99 1f       	adc	r25, r25
    1224:	aa 1f       	adc	r26, r26
    1226:	bb 1f       	adc	r27, r27
    1228:	2a 95       	dec	r18
    122a:	d1 f7       	brne	.-12     	; 0x1220 <MilliSleep+0xa>

  #ifdef SAVE_POWER
  if (Mode == SLEEP_MODE_PWR_SAVE)      /* power save mode */
    122c:	36 30       	cpi	r19, 0x06	; 6
    122e:	29 f4       	brne	.+10     	; 0x123a <MilliSleep+0x24>
    Value = Cycles / 256;               /* calculate loop runs */
    Value++;                            /* fix offset by division */
    /* multiply with startup cycles equivalent to timer cycles */
    Value *= (OSC_STARTUP / 1024);      /* overhead cycles */

    if (Cycles > Value)            /* we are able to compensate */
    1230:	00 97       	sbiw	r24, 0x00	; 0
    1232:	a1 05       	cpc	r26, r1
    1234:	b1 05       	cpc	r27, r1
    1236:	09 f4       	brne	.+2      	; 0x123a <MilliSleep+0x24>
    }
    else                           /* no way to compensate */
    {
      /* idle mode doesn't require oscillator start-up after wake-up */
      /* just 6 cycles delay */ 
      Mode = SLEEP_MODE_IDLE;           /* change sleep mode to Idle */
    1238:	30 e0       	ldi	r19, 0x00	; 0

  /*
   *  set up timer
   */

  TCCR2B = 0;                      /* stop timer */
    123a:	10 92 b1 00 	sts	0x00B1, r1	; 0x8000b1 <__TEXT_REGION_LENGTH__+0x7f80b1>
  TCNT2 = 0;                       /* set counter to 0 */
    123e:	10 92 b2 00 	sts	0x00B2, r1	; 0x8000b2 <__TEXT_REGION_LENGTH__+0x7f80b2>
  TCCR2A = (1 << WGM21);           /* set CTC mode */
    1242:	22 e0       	ldi	r18, 0x02	; 2
    1244:	20 93 b0 00 	sts	0x00B0, r18	; 0x8000b0 <__TEXT_REGION_LENGTH__+0x7f80b0>
  TIMSK2 = (1 << OCIE2A);          /* enable interrupt for OCR2A match */
    1248:	20 93 70 00 	sts	0x0070, r18	; 0x800070 <__TEXT_REGION_LENGTH__+0x7f8070>

  #ifdef SAVE_POWER
  set_sleep_mode(Mode);            /* set sleep mode */
    124c:	23 b7       	in	r18, 0x33	; 51
    124e:	21 7f       	andi	r18, 0xF1	; 241
    1250:	23 2b       	or	r18, r19
    1252:	23 bf       	out	0x33, r18	; 51
  #endif

  if (SREG & (1 << SREG_I))        /* if interrupts are already enabled */
    1254:	0f b6       	in	r0, 0x3f	; 63
    1256:	07 fc       	sbrc	r0, 7
    1258:	2e c0       	rjmp	.+92     	; 0x12b6 <MilliSleep+0xa0>
  {
    Flag = 1;                      /* keep that in mind */
  }
  else                             /* otherwise */
  {
    sei();                         /* enable interrupts */
    125a:	78 94       	sei

void MilliSleep(uint16_t Time)
{
  uint32_t               Cycles;        /* timer cycles */
  uint8_t                Timeout;       /* compare value */
  uint8_t                Flag = 0;      /* interrupt flag */
    125c:	30 e0       	ldi	r19, 0x00	; 0

    /* update timer */
    OCR2A = Timeout;               /* set compare value (timeout) */

    /* start timer by setting clock prescaler to 1024 */
    TCCR2B = (1 << CS22) | (1 << CS21) | (1 << CS20);
    125e:	e7 e0       	ldi	r30, 0x07	; 7
    1260:	1a c0       	rjmp	.+52     	; 0x1296 <MilliSleep+0x80>
   *  - sleep for several intervals until requested time is reached
   */

  while (Cycles > 0)
  {
    wdt_reset();              /* reset watchdog */
    1262:	a8 95       	wdr
    1264:	ac 01       	movw	r20, r24
    1266:	bd 01       	movw	r22, r26
    1268:	8f 3f       	cpi	r24, 0xFF	; 255
    126a:	91 05       	cpc	r25, r1
    126c:	a1 05       	cpc	r26, r1
    126e:	b1 05       	cpc	r27, r1
    1270:	29 f0       	breq	.+10     	; 0x127c <MilliSleep+0x66>
    1272:	20 f0       	brcs	.+8      	; 0x127c <MilliSleep+0x66>
    1274:	4f ef       	ldi	r20, 0xFF	; 255
    1276:	50 e0       	ldi	r21, 0x00	; 0
    1278:	60 e0       	ldi	r22, 0x00	; 0
    127a:	70 e0       	ldi	r23, 0x00	; 0
    else                      /* within 8 bit range */
    {
      Timeout = (uint8_t)Cycles;
    }

    Cycles -= Timeout;        /* update counter */
    127c:	84 1b       	sub	r24, r20
    127e:	95 0b       	sbc	r25, r21
    1280:	a6 0b       	sbc	r26, r22
    1282:	b7 0b       	sbc	r27, r23
    Timeout--;                /* interrupt is triggered by cycle after match */
    1284:	41 50       	subi	r20, 0x01	; 1
    /* todo: what happens if Timeout is 0? */

    /* update timer */
    OCR2A = Timeout;               /* set compare value (timeout) */
    1286:	40 93 b3 00 	sts	0x00B3, r20	; 0x8000b3 <__TEXT_REGION_LENGTH__+0x7f80b3>

    /* start timer by setting clock prescaler to 1024 */
    TCCR2B = (1 << CS22) | (1 << CS21) | (1 << CS20);
    128a:	e0 93 b1 00 	sts	0x00B1, r30	; 0x8000b1 <__TEXT_REGION_LENGTH__+0x7f80b1>
     *  sleep
     *  - since any interrupt would wake up the MCU we have to make sure
     *    that we track the right interrupt
     */

    while (TCCR2B != 0)       /* as long as Timer2 is running */
    128e:	20 91 b1 00 	lds	r18, 0x00B1	; 0x8000b1 <__TEXT_REGION_LENGTH__+0x7f80b1>
    1292:	21 11       	cpse	r18, r1
    1294:	08 c0       	rjmp	.+16     	; 0x12a6 <MilliSleep+0x90>
  /*
   *  processing loop
   *  - sleep for several intervals until requested time is reached
   */

  while (Cycles > 0)
    1296:	00 97       	sbiw	r24, 0x00	; 0
    1298:	a1 05       	cpc	r26, r1
    129a:	b1 05       	cpc	r27, r1
    129c:	11 f7       	brne	.-60     	; 0x1262 <MilliSleep+0x4c>
        );
      #endif
    }
  }

  if (Flag == 0)              /* restore former interrupt setting */
    129e:	31 11       	cpse	r19, r1
    12a0:	01 c0       	rjmp	.+2      	; 0x12a4 <MilliSleep+0x8e>
  {
    cli();                    /* disable interrupts */
    12a2:	f8 94       	cli
  }
}
    12a4:	08 95       	ret

    while (TCCR2B != 0)       /* as long as Timer2 is running */
    {
      #ifdef SAVE_POWER
        /* enter sleep mode to save power */
        sleep_mode();              /* sleep (again) */
    12a6:	23 b7       	in	r18, 0x33	; 51
    12a8:	21 60       	ori	r18, 0x01	; 1
    12aa:	23 bf       	out	0x33, r18	; 51
    12ac:	88 95       	sleep
    12ae:	23 b7       	in	r18, 0x33	; 51
    12b0:	2e 7f       	andi	r18, 0xFE	; 254
    12b2:	23 bf       	out	0x33, r18	; 51
    12b4:	ec cf       	rjmp	.-40     	; 0x128e <MilliSleep+0x78>
  set_sleep_mode(Mode);            /* set sleep mode */
  #endif

  if (SREG & (1 << SREG_I))        /* if interrupts are already enabled */
  {
    Flag = 1;                      /* keep that in mind */
    12b6:	31 e0       	ldi	r19, 0x01	; 1
    12b8:	d2 cf       	rjmp	.-92     	; 0x125e <MilliSleep+0x48>

000012ba <__vector_7>:
/*
 *  ISR for match of Timer2's OCR2A (Output Compare Register A)
 */

ISR(TIMER2_COMPA_vect, ISR_BLOCK)
{
    12ba:	1f 92       	push	r1
    12bc:	0f 92       	push	r0
    12be:	0f b6       	in	r0, 0x3f	; 63
    12c0:	0f 92       	push	r0
    12c2:	11 24       	eor	r1, r1
   *  - the OCF2A interrupt flag is cleared automatically
   *  - interrupt processing is disabled while this ISR runs
   *    (no nested interrupts)
   */

  TCCR2B = 0;                 /* stop Timer2 */
    12c4:	10 92 b1 00 	sts	0x00B1, r1	; 0x8000b1 <__TEXT_REGION_LENGTH__+0x7f80b1>
}
    12c8:	0f 90       	pop	r0
    12ca:	0f be       	out	0x3f, r0	; 63
    12cc:	0f 90       	pop	r0
    12ce:	1f 90       	pop	r1
    12d0:	18 95       	reti

000012d2 <SetAdjustmentDefaults>:
  /*
   *  set defaults for basic offsets/values
   */

  /* MCU I/O pin's internal resistance */
  NV.RiL = R_MCU_LOW;              /* low side */
    12d2:	e7 ec       	ldi	r30, 0xC7	; 199
    12d4:	f1 e0       	ldi	r31, 0x01	; 1
    12d6:	88 ec       	ldi	r24, 0xC8	; 200
    12d8:	90 e0       	ldi	r25, 0x00	; 0
    12da:	91 83       	std	Z+1, r25	; 0x01
    12dc:	80 83       	st	Z, r24
  NV.RiH = R_MCU_HIGH;             /* high side */
    12de:	8c ed       	ldi	r24, 0xDC	; 220
    12e0:	90 e0       	ldi	r25, 0x00	; 0
    12e2:	93 83       	std	Z+3, r25	; 0x03
    12e4:	82 83       	std	Z+2, r24	; 0x02
  #ifdef R_MULTIOFFSET
    NV.RZero[0] = R_ZERO;
    NV.RZero[1] = R_ZERO;
    NV.RZero[2] = R_ZERO;
  #else
    NV.RZero = R_ZERO;
    12e6:	84 e1       	ldi	r24, 0x14	; 20
    12e8:	90 e0       	ldi	r25, 0x00	; 0
    12ea:	95 83       	std	Z+5, r25	; 0x05
    12ec:	84 83       	std	Z+4, r24	; 0x04
  #ifdef CAP_MULTIOFFSET
    NV.CapZero[0] = C_ZERO;
    NV.CapZero[1] = C_ZERO;
    NV.CapZero[2] = C_ZERO;
  #else
    NV.CapZero = C_ZERO;
    12ee:	8b e2       	ldi	r24, 0x2B	; 43
    12f0:	86 83       	std	Z+6, r24	; 0x06
  #endif

  NV.RefOffset = UREF_OFFSET;           /* offset of internal band-gap reference */
    12f2:	17 82       	std	Z+7, r1	; 0x07
  NV.CompOffset = COMPARATOR_OFFSET;    /* offset of analog comparator */
    12f4:	10 86       	std	Z+8, r1	; 0x08
  NV.Contrast = LCD_CONTRAST;           /* display contrast */
    12f6:	11 86       	std	Z+9, r1	; 0x09
  Touch.X_Stop = 0;
  Touch.Y_Start = 0;
  Touch.Y_Stop = 0;
  /* this triggers the touch adjustment at startup */
  #endif
}
    12f8:	08 95       	ret

000012fa <CheckSum>:

uint8_t CheckSum(void)
{
  uint8_t      Checksum = 0;            /* checksum / return value */
  uint8_t      n;                       /* counter */
  uint8_t      *Data = (uint8_t *)&NV;  /* pointer to RAM */
    12fa:	e7 ec       	ldi	r30, 0xC7	; 199
    12fc:	f1 e0       	ldi	r31, 0x01	; 1
 *  calculate checksum for adjustment values
 */

uint8_t CheckSum(void)
{
  uint8_t      Checksum = 0;            /* checksum / return value */
    12fe:	80 e0       	ldi	r24, 0x00	; 0
  uint8_t      *Data = (uint8_t *)&NV;  /* pointer to RAM */

  /* we simply add all bytes, besides the checksum */
  for (n = 0; n < (sizeof(Adjust_Type) - 1); n++)
  {  
    Checksum += *Data;        /* add byte */
    1300:	91 91       	ld	r25, Z+
    1302:	89 0f       	add	r24, r25
  uint8_t      Checksum = 0;            /* checksum / return value */
  uint8_t      n;                       /* counter */
  uint8_t      *Data = (uint8_t *)&NV;  /* pointer to RAM */

  /* we simply add all bytes, besides the checksum */
  for (n = 0; n < (sizeof(Adjust_Type) - 1); n++)
    1304:	91 e0       	ldi	r25, 0x01	; 1
    1306:	e1 3d       	cpi	r30, 0xD1	; 209
    1308:	f9 07       	cpc	r31, r25
    130a:	d1 f7       	brne	.-12     	; 0x1300 <CheckSum+0x6>
    Checksum += *Data;        /* add byte */
    Data++;                   /* next byte */
  }

  /* fix for zero (not updated yet) */
  if (Checksum == 0) Checksum++;
    130c:	81 11       	cpse	r24, r1
    130e:	01 c0       	rjmp	.+2      	; 0x1312 <CheckSum+0x18>
    1310:	81 e0       	ldi	r24, 0x01	; 1

  return Checksum;
}
    1312:	08 95       	ret

00001314 <ManageAdjustmentStorage>:
 *    STORAGE_SAVE  save data from RAM to EEPROM
 *  - ID: profile ID (1 or 2)
 */

void ManageAdjustmentStorage(uint8_t Mode, uint8_t ID)
{
    1314:	1f 93       	push	r17
    1316:	cf 93       	push	r28
    1318:	df 93       	push	r29
    131a:	18 2f       	mov	r17, r24
    Addr_EE = (uint8_t *)&NV_Adjust_3;
  }
  #endif
  else                             /* profile #1 */
  {
    Addr_EE = (uint8_t *)&NV_Adjust_1;
    131c:	c9 ed       	ldi	r28, 0xD9	; 217
    131e:	d2 e0       	ldi	r29, 0x02	; 2
  uint8_t      n;                            /* counter */
  uint8_t      *Addr_RAM = (uint8_t *)&NV;   /* pointer to RAM */
  uint8_t      *Addr_EE;                     /* pointer to EEPROM */

  /* determine EEPROM address */
  if (ID == 2)                     /* profile #2 */
    1320:	62 30       	cpi	r22, 0x02	; 2
    1322:	11 f4       	brne	.+4      	; 0x1328 <ManageAdjustmentStorage+0x14>
  {
    Addr_EE = (uint8_t *)&NV_Adjust_2;
    1324:	ce ec       	ldi	r28, 0xCE	; 206
    1326:	d2 e0       	ldi	r29, 0x02	; 2
  else                             /* profile #1 */
  {
    Addr_EE = (uint8_t *)&NV_Adjust_1;
  }

  NV.CheckSum = CheckSum();        /* update checksum */
    1328:	0e 94 7d 09 	call	0x12fa	; 0x12fa <CheckSum>
    132c:	80 93 d1 01 	sts	0x01D1, r24	; 0x8001d1 <NV+0xa>
   */

  if (Mode == STORAGE_SAVE)           /* write */
  {
    /* write data block from RAM to EEPROM */
    eeprom_write_block(Addr_RAM, Addr_EE, sizeof(Adjust_Type));
    1330:	4b e0       	ldi	r20, 0x0B	; 11
    1332:	50 e0       	ldi	r21, 0x00	; 0
    1334:	be 01       	movw	r22, r28
    1336:	87 ec       	ldi	r24, 0xC7	; 199
    1338:	91 e0       	ldi	r25, 0x01	; 1

  /*
   *  read/write EEPROM block-wise to/from data structure 
   */

  if (Mode == STORAGE_SAVE)           /* write */
    133a:	12 30       	cpi	r17, 0x02	; 2
    133c:	31 f4       	brne	.+12     	; 0x134a <ManageAdjustmentStorage+0x36>
  {
    /* write data block from RAM to EEPROM */
    eeprom_write_block(Addr_RAM, Addr_EE, sizeof(Adjust_Type));
    133e:	0e 94 f7 2d 	call	0x5bee	; 0x5bee <eeprom_write_block>

        SetAdjustmentDefaults();             /* set defaults */
      }
    }
  }
}
    1342:	df 91       	pop	r29
    1344:	cf 91       	pop	r28
    1346:	1f 91       	pop	r17
    1348:	08 95       	ret
    eeprom_write_block(Addr_RAM, Addr_EE, sizeof(Adjust_Type));
  }
  else                                /* read */
  {
    /* read data block from EEPROM to RAM */
    eeprom_read_block(Addr_RAM, Addr_EE, sizeof(Adjust_Type));
    134a:	0e 94 d9 2d 	call	0x5bb2	; 0x5bb2 <eeprom_read_block>
   *  check checksum on read
   */

  if (Mode != STORAGE_SAVE)        /* read mode */
  {
    n = CheckSum();                /* get checksum */
    134e:	0e 94 7d 09 	call	0x12fa	; 0x12fa <CheckSum>

    if (NV.CheckSum != 0)          /* EEPROM updated */
    1352:	90 91 d1 01 	lds	r25, 0x01D1	; 0x8001d1 <NV+0xa>
    1356:	99 23       	and	r25, r25
    1358:	a1 f3       	breq	.-24     	; 0x1342 <ManageAdjustmentStorage+0x2e>
    {
      if (NV.CheckSum != n)        /* mismatch */
    135a:	98 17       	cp	r25, r24
    135c:	91 f3       	breq	.-28     	; 0x1342 <ManageAdjustmentStorage+0x2e>
      {
        /* tell user */
        LCD_Clear();
    135e:	0e 94 16 2b 	call	0x562c	; 0x562c <LCD_Clear>
        #ifdef UI_CENTER_ALIGN
          Display_CenterLine(2);                  /* center block: 2 lines */
          Display_EEString_Center(Checksum_str);  /* display: Checksum */
          Display_NL_EEString_Center(Error_str);  /* display: error! */
        #else
          Display_EEString(Checksum_str);    /* display: Checksum */
    1362:	8d e2       	ldi	r24, 0x2D	; 45
    1364:	92 e0       	ldi	r25, 0x02	; 2
    1366:	0e 94 0f 11 	call	0x221e	; 0x221e <Display_EEString>
          Display_NL_EEString(Error_str);    /* display: error! */
    136a:	8b e3       	ldi	r24, 0x3B	; 59
    136c:	92 e0       	ldi	r25, 0x02	; 2
    136e:	0e 94 38 11 	call	0x2270	; 0x2270 <Display_NL_EEString>
        #endif
        MilliSleep(2000);                    /* give user some time to read */
    1372:	80 ed       	ldi	r24, 0xD0	; 208
    1374:	97 e0       	ldi	r25, 0x07	; 7
    1376:	0e 94 0b 09 	call	0x1216	; 0x1216 <MilliSleep>

        SetAdjustmentDefaults();             /* set defaults */
    137a:	0e 94 69 09 	call	0x12d2	; 0x12d2 <SetAdjustmentDefaults>
      }
    }
  }
}
    137e:	e1 cf       	rjmp	.-62     	; 0x1342 <ManageAdjustmentStorage+0x2e>

00001380 <ShowAdjustmentValues>:
/*
 *  show basic adjustment values and offsets
 */

void ShowAdjustmentValues(void)
{
    1380:	0f 93       	push	r16
    1382:	1f 93       	push	r17
    1384:	cf 93       	push	r28
    1386:	df 93       	push	r29
  UI.LineMode = LINE_KEY;     /* next-line mode: wait for key/timeout */
    1388:	81 e0       	ldi	r24, 0x01	; 1
    138a:	80 93 1f 01 	sts	0x011F, r24	; 0x80011f <UI>

  /* display RiL and RiH (values are in 0.1 Ohms) */
  LCD_Clear();
    138e:	0e 94 16 2b 	call	0x562c	; 0x562c <LCD_Clear>
  Display_EEString_Space(RiLow_str);              /* display: Ri- */
    1392:	8d e6       	ldi	r24, 0x6D	; 109
    1394:	91 e0       	ldi	r25, 0x01	; 1
    1396:	0e 94 33 11 	call	0x2266	; 0x2266 <Display_EEString_Space>
  Display_Value(NV.RiL, -1, LCD_CHAR_OMEGA);
    139a:	c7 ec       	ldi	r28, 0xC7	; 199
    139c:	d1 e0       	ldi	r29, 0x01	; 1
    139e:	68 81       	ld	r22, Y
    13a0:	79 81       	ldd	r23, Y+1	; 0x01
    13a2:	90 e0       	ldi	r25, 0x00	; 0
    13a4:	80 e0       	ldi	r24, 0x00	; 0
    13a6:	24 e0       	ldi	r18, 0x04	; 4
    13a8:	4f ef       	ldi	r20, 0xFF	; 255
    13aa:	0e 94 74 11 	call	0x22e8	; 0x22e8 <Display_Value>
  Display_NL_EEString_Space(RiHigh_str);          /* display: Ri+ */
    13ae:	89 e6       	ldi	r24, 0x69	; 105
    13b0:	91 e0       	ldi	r25, 0x01	; 1
    13b2:	0e 94 43 11 	call	0x2286	; 0x2286 <Display_NL_EEString_Space>
  Display_Value(NV.RiH, -1, LCD_CHAR_OMEGA);
    13b6:	6a 81       	ldd	r22, Y+2	; 0x02
    13b8:	7b 81       	ldd	r23, Y+3	; 0x03
    13ba:	90 e0       	ldi	r25, 0x00	; 0
    13bc:	80 e0       	ldi	r24, 0x00	; 0
    13be:	24 e0       	ldi	r18, 0x04	; 4
    13c0:	4f ef       	ldi	r20, 0xFF	; 255
    13c2:	0e 94 74 11 	call	0x22e8	; 0x22e8 <Display_Value>

  /* display C-Zero (values are in pF) */
  Display_NL_EEString_Space(CapOffset_str);       /* display: C0 */
    13c6:	83 e5       	ldi	r24, 0x53	; 83
    13c8:	91 e0       	ldi	r25, 0x01	; 1
    13ca:	0e 94 43 11 	call	0x2286	; 0x2286 <Display_NL_EEString_Space>
  Display_Space();                           /* display space */
  Display_Value2(NV.CapZero[1]);             /* display C0 offset for probes 1-3 */
  Display_Space();                           /* display space */
  Display_Value(NV.CapZero[2], -12, 'F');    /* display C0 offset for probes 2-3 */
  #else
  Display_Value(NV.CapZero, -12, 'F');       /* display C0 offset */
    13ce:	6e 81       	ldd	r22, Y+6	; 0x06
    13d0:	70 e0       	ldi	r23, 0x00	; 0
    13d2:	90 e0       	ldi	r25, 0x00	; 0
    13d4:	80 e0       	ldi	r24, 0x00	; 0
    13d6:	26 e4       	ldi	r18, 0x46	; 70
    13d8:	44 ef       	ldi	r20, 0xF4	; 244
    13da:	0e 94 74 11 	call	0x22e8	; 0x22e8 <Display_Value>
  #endif

  /* display R-Zero (values are in 0.01 Ohms) */
  Display_NL_EEString_Space(ROffset_str);    /* display: R0 */
    13de:	80 e5       	ldi	r24, 0x50	; 80
    13e0:	91 e0       	ldi	r25, 0x01	; 1
    13e2:	0e 94 43 11 	call	0x2286	; 0x2286 <Display_NL_EEString_Space>
  Display_Value(NV.RZero[1], -2, 0);         /* display R0 offset for probes 1-3 */
  Display_NextLine();
  Display_Space();                           /* display space */
  Display_Value(NV.RZero[2], -2, LCD_CHAR_OMEGA); /* display R0 offset for probes 2-3 */
  #else
  Display_Value(NV.RZero, -2, LCD_CHAR_OMEGA);    /* display R0 */
    13e6:	6c 81       	ldd	r22, Y+4	; 0x04
    13e8:	7d 81       	ldd	r23, Y+5	; 0x05
    13ea:	90 e0       	ldi	r25, 0x00	; 0
    13ec:	80 e0       	ldi	r24, 0x00	; 0
    13ee:	24 e0       	ldi	r18, 0x04	; 4
    13f0:	4e ef       	ldi	r20, 0xFE	; 254
    13f2:	0e 94 74 11 	call	0x22e8	; 0x22e8 <Display_Value>
  #endif

  /* display internal bandgap reference (value is in mV) */
  Display_NL_EEString_Space(URef_str);       /* display: Vref */
    13f6:	89 e7       	ldi	r24, 0x79	; 121
    13f8:	91 e0       	ldi	r25, 0x01	; 1
    13fa:	0e 94 43 11 	call	0x2286	; 0x2286 <Display_NL_EEString_Space>
  Display_Value(Cfg.Bandgap, -3, 'V');       /* display bandgap ref */
    13fe:	06 e8       	ldi	r16, 0x86	; 134
    1400:	11 e0       	ldi	r17, 0x01	; 1
    1402:	f8 01       	movw	r30, r16
    1404:	66 81       	ldd	r22, Z+6	; 0x06
    1406:	77 81       	ldd	r23, Z+7	; 0x07
    1408:	90 e0       	ldi	r25, 0x00	; 0
    140a:	80 e0       	ldi	r24, 0x00	; 0
    140c:	26 e5       	ldi	r18, 0x56	; 86
    140e:	4d ef       	ldi	r20, 0xFD	; 253
    1410:	0e 94 74 11 	call	0x22e8	; 0x22e8 <Display_Value>

  /* display Vcc (value is in mV) */
  Display_NL_EEString_Space(Vcc_str);        /* display: Vcc */
    1414:	8c e4       	ldi	r24, 0x4C	; 76
    1416:	91 e0       	ldi	r25, 0x01	; 1
    1418:	0e 94 43 11 	call	0x2286	; 0x2286 <Display_NL_EEString_Space>
  Display_Value(Cfg.Vcc, -3, 'V');           /* display Vcc */
    141c:	f8 01       	movw	r30, r16
    141e:	60 85       	ldd	r22, Z+8	; 0x08
    1420:	71 85       	ldd	r23, Z+9	; 0x09
    1422:	90 e0       	ldi	r25, 0x00	; 0
    1424:	80 e0       	ldi	r24, 0x00	; 0
    1426:	26 e5       	ldi	r18, 0x56	; 86
    1428:	4d ef       	ldi	r20, 0xFD	; 253
    142a:	0e 94 74 11 	call	0x22e8	; 0x22e8 <Display_Value>
    Display_Char('*');                  /* display: * */
  }
  #endif

  /* display offset of analog comparator (value is in mV) */
  Display_NL_EEString_Space(CompOffset_str);      /* display: AComp */
    142e:	86 e4       	ldi	r24, 0x46	; 70
    1430:	91 e0       	ldi	r25, 0x01	; 1
    1432:	0e 94 43 11 	call	0x2286	; 0x2286 <Display_NL_EEString_Space>
  Display_SignedValue(NV.CompOffset, -3, 'V');    /* display offset */
    1436:	68 85       	ldd	r22, Y+8	; 0x08
    1438:	06 2e       	mov	r0, r22
    143a:	00 0c       	add	r0, r0
    143c:	77 0b       	sbc	r23, r23
    143e:	88 0b       	sbc	r24, r24
    1440:	99 0b       	sbc	r25, r25
    1442:	26 e5       	ldi	r18, 0x56	; 86
    1444:	4d ef       	ldi	r20, 0xFD	; 253
    1446:	0e 94 05 12 	call	0x240a	; 0x240a <Display_SignedValue>

  WaitKey();                  /* let the user read */
    144a:	0e 94 44 07 	call	0xe88	; 0xe88 <WaitKey>
}
    144e:	df 91       	pop	r29
    1450:	cf 91       	pop	r28
    1452:	1f 91       	pop	r17
    1454:	0f 91       	pop	r16
    1456:	08 95       	ret

00001458 <SelfAdjustment>:
 *  - 0 on error
 *  - 1 on success
 */

uint8_t SelfAdjustment(void)
{
    1458:	a5 e0       	ldi	r26, 0x05	; 5
    145a:	b0 e0       	ldi	r27, 0x00	; 0
    145c:	e2 e3       	ldi	r30, 0x32	; 50
    145e:	fa e0       	ldi	r31, 0x0A	; 10
    1460:	0c 94 6c 2d 	jmp	0x5ad8	; 0x5ad8 <__prologue_saves__>
  /*
   *  measurements
   */

  /* make sure all probes are shorted */
  Flag = ShortCircuit(1);
    1464:	81 e0       	ldi	r24, 0x01	; 1
    1466:	0e 94 4b 07 	call	0xe96	; 0xe96 <ShortCircuit>
  if (Flag == 0)              /* aborted */
    146a:	88 23       	and	r24, r24
    146c:	09 f4       	brne	.+2      	; 0x1470 <SelfAdjustment+0x18>
    146e:	29 c1       	rjmp	.+594    	; 0x16c2 <SelfAdjustment+0x26a>
    1470:	51 2c       	mov	r5, r1
    1472:	41 2c       	mov	r4, r1
    1474:	1b 82       	std	Y+3, r1	; 0x03
    1476:	b1 2c       	mov	r11, r1
    1478:	a1 2c       	mov	r10, r1
    147a:	1a 82       	std	Y+2, r1	; 0x02
    147c:	91 2c       	mov	r9, r1
    147e:	81 2c       	mov	r8, r1
    1480:	21 2c       	mov	r2, r1
    1482:	d1 2c       	mov	r13, r1
    1484:	c1 2c       	mov	r12, r1
    1486:	31 2c       	mov	r3, r1
    1488:	f1 2c       	mov	r15, r1
    148a:	e1 2c       	mov	r14, r1
    148c:	10 e0       	ldi	r17, 0x00	; 0
    148e:	00 e0       	ldi	r16, 0x00	; 0
    1490:	1d 82       	std	Y+5, r1	; 0x05
    1492:	1c 82       	std	Y+4, r1	; 0x04
  #endif

  #ifdef HW_ADJUST_CAP
    Step = 1;            /* start with step #1 */
  #else
    Step = 2;            /* start with step #2 */
    1494:	62 e0       	ldi	r22, 0x02	; 2
    1496:	76 2e       	mov	r7, r22
    Step = 10;                /* skip adjustment */
  }

  while (Step <= 6)      /* loop through steps */
  {
    Flag = 1;            /* reset loop counter */
    1498:	21 e0       	ldi	r18, 0x01	; 1
    149a:	29 83       	std	Y+1, r18	; 0x01
          #endif
          Display_EEString(RiLow_str);  /* display: Ri- */

          /* TP1:  Gnd -- RiL -- probe-1 -- Rl -- RiH -- Vcc */
          ADC_PORT = 0;
          ADC_DDR = (1 << TP1);
    149c:	66 24       	eor	r6, r6
    149e:	63 94       	inc	r6
    /* repeat each measurement 5 times */
    while (Flag <= 5)
    {
      #ifndef UI_TEST_PAGEMODE
      /* display step number */
      LCD_Clear();
    14a0:	0e 94 16 2b 	call	0x562c	; 0x562c <LCD_Clear>
        #ifdef UI_COLORED_TITLES
        Display_UseTitleColor();        /* use title color */
        #endif
      Display_Char('A');                /* display: A (for Adjust) */
    14a4:	81 e4       	ldi	r24, 0x41	; 65
    14a6:	0e 94 fe 2a 	call	0x55fc	; 0x55fc <LCD_Char>
      Display_Char('0' + Step);         /* display number */
    14aa:	80 e3       	ldi	r24, 0x30	; 48
    14ac:	87 0d       	add	r24, r7
    14ae:	0e 94 fe 2a 	call	0x55fc	; 0x55fc <LCD_Char>
        #ifdef UI_COLORED_TITLES
        Display_UseOldColor();          /* use old color */
        #endif
      Display_Space();
    14b2:	0e 94 27 11 	call	0x224e	; 0x224e <Display_Space>

      /*
       *  adjustment steps
       */

      switch (Step)
    14b6:	84 e0       	ldi	r24, 0x04	; 4
    14b8:	78 16       	cp	r7, r24
    14ba:	09 f4       	brne	.+2      	; 0x14be <SelfAdjustment+0x66>
    14bc:	07 c1       	rjmp	.+526    	; 0x16cc <SelfAdjustment+0x274>
    14be:	87 15       	cp	r24, r7
    14c0:	68 f0       	brcs	.+26     	; 0x14dc <SelfAdjustment+0x84>
    14c2:	92 e0       	ldi	r25, 0x02	; 2
    14c4:	79 16       	cp	r7, r25
    14c6:	09 f4       	brne	.+2      	; 0x14ca <SelfAdjustment+0x72>
    14c8:	6a c0       	rjmp	.+212    	; 0x159e <SelfAdjustment+0x146>
    14ca:	23 e0       	ldi	r18, 0x03	; 3
    14cc:	72 16       	cp	r7, r18
    14ce:	09 f4       	brne	.+2      	; 0x14d2 <SelfAdjustment+0x7a>
    14d0:	9c c0       	rjmp	.+312    	; 0x160a <SelfAdjustment+0x1b2>
        Display_UseOldColor();          /* use old color */
        #endif
      Display_Space();
      #endif

      DisplayFlag = 1;        /* display values by default */
    14d2:	81 e0       	ldi	r24, 0x01	; 1
    14d4:	a0 c0       	rjmp	.+320    	; 0x1616 <SelfAdjustment+0x1be>
    Step = 10;                /* skip adjustment */
  }

  while (Step <= 6)      /* loop through steps */
  {
    Flag = 1;            /* reset loop counter */
    14d6:	31 e0       	ldi	r19, 0x01	; 1
    14d8:	39 83       	std	Y+1, r19	; 0x01
    14da:	e2 cf       	rjmp	.-60     	; 0x14a0 <SelfAdjustment+0x48>

      /*
       *  adjustment steps
       */

      switch (Step)
    14dc:	35 e0       	ldi	r19, 0x05	; 5
    14de:	73 16       	cp	r7, r19
    14e0:	09 f4       	brne	.+2      	; 0x14e4 <SelfAdjustment+0x8c>
    14e2:	1e c1       	rjmp	.+572    	; 0x1720 <SelfAdjustment+0x2c8>
    14e4:	86 e0       	ldi	r24, 0x06	; 6
    14e6:	78 12       	cpse	r7, r24
    14e8:	f4 cf       	rjmp	.-24     	; 0x14d2 <SelfAdjustment+0x7a>
        case 6:     /* capacitance offset (PCB and probe leads) */
          #ifdef UI_TEST_PAGEMODE
          if (Flag == 1)                     /* first run */
          {
          #endif
          Display_EEString_Space(CapOffset_str);  /* display: C0 */
    14ea:	83 e5       	ldi	r24, 0x53	; 83
    14ec:	91 e0       	ldi	r25, 0x01	; 1
    14ee:	0e 94 33 11 	call	0x2266	; 0x2266 <Display_EEString_Space>
          Display_EEString(ProbeComb_str);        /* display: 12 13 23 */
    14f2:	86 e5       	ldi	r24, 0x56	; 86
    14f4:	91 e0       	ldi	r25, 0x01	; 1
    14f6:	0e 94 0f 11 	call	0x221e	; 0x221e <Display_EEString>
           *  - take raw capacitance value (no offset considered)
           *  - we expect a value less than 100pF
           */

          /* probe pair 1-2 */
          MeasureCap(PROBE_2, PROBE_1, 0);   /* measure C */
    14fa:	40 e0       	ldi	r20, 0x00	; 0
    14fc:	60 e0       	ldi	r22, 0x00	; 0
    14fe:	81 e0       	ldi	r24, 0x01	; 1
    1500:	0e 94 59 19 	call	0x32b2	; 0x32b2 <MeasureCap>
          /* limit offset to 100pF */
          if ((Caps[0].Scale == -12) && (Caps[0].Raw <= 100UL))
    1504:	80 91 3a 01 	lds	r24, 0x013A	; 0x80013a <Caps+0x2>
    1508:	84 3f       	cpi	r24, 0xF4	; 244
    150a:	91 f4       	brne	.+36     	; 0x1530 <SelfAdjustment+0xd8>
    150c:	80 91 3f 01 	lds	r24, 0x013F	; 0x80013f <Caps+0x7>
    1510:	90 91 40 01 	lds	r25, 0x0140	; 0x800140 <Caps+0x8>
    1514:	a0 91 41 01 	lds	r26, 0x0141	; 0x800141 <Caps+0x9>
    1518:	b0 91 42 01 	lds	r27, 0x0142	; 0x800142 <Caps+0xa>
    151c:	85 36       	cpi	r24, 0x65	; 101
    151e:	91 05       	cpc	r25, r1
    1520:	a1 05       	cpc	r26, r1
    1522:	b1 05       	cpc	r27, r1
    1524:	28 f4       	brcc	.+10     	; 0x1530 <SelfAdjustment+0xd8>
          {
            Val1 = (uint16_t)Caps[0].Raw;    /* get C (in pF) */
    1526:	9d 83       	std	Y+5, r25	; 0x05
    1528:	8c 83       	std	Y+4, r24	; 0x04

            #ifdef CAP_MULTIOFFSET
            CapSum1 += Val1;                 /* add C to probe pair sum */
            #else
            CapSum += Val1;                  /* add C to total sum */
    152a:	c8 0e       	add	r12, r24
    152c:	d9 1e       	adc	r13, r25
            #endif

            CapCounter++;                    /* valid measurement */
    152e:	33 94       	inc	r3
          }

          /* probe pair 1-3 */
          MeasureCap(PROBE_3, PROBE_1, 1);   /* measure C */
    1530:	41 e0       	ldi	r20, 0x01	; 1
    1532:	60 e0       	ldi	r22, 0x00	; 0
    1534:	82 e0       	ldi	r24, 0x02	; 2
    1536:	0e 94 59 19 	call	0x32b2	; 0x32b2 <MeasureCap>
          /* limit offset to 100pF */
          if ((Caps[1].Scale == -12) && (Caps[1].Raw <= 100UL))
    153a:	80 91 48 01 	lds	r24, 0x0148	; 0x800148 <Caps+0x10>
    153e:	84 3f       	cpi	r24, 0xF4	; 244
    1540:	89 f4       	brne	.+34     	; 0x1564 <SelfAdjustment+0x10c>
    1542:	80 91 4d 01 	lds	r24, 0x014D	; 0x80014d <Caps+0x15>
    1546:	90 91 4e 01 	lds	r25, 0x014E	; 0x80014e <Caps+0x16>
    154a:	a0 91 4f 01 	lds	r26, 0x014F	; 0x80014f <Caps+0x17>
    154e:	b0 91 50 01 	lds	r27, 0x0150	; 0x800150 <Caps+0x18>
    1552:	85 36       	cpi	r24, 0x65	; 101
    1554:	91 05       	cpc	r25, r1
    1556:	a1 05       	cpc	r26, r1
    1558:	b1 05       	cpc	r27, r1
    155a:	20 f4       	brcc	.+8      	; 0x1564 <SelfAdjustment+0x10c>
          {
            Val2 = (uint16_t)Caps[1].Raw;    /* get C (in pF) */
    155c:	8c 01       	movw	r16, r24

            #ifdef CAP_MULTIOFFSET
            CapSum2 += Val2;                 /* add C to probe pair sum */
            #else
            CapSum += Val2;                  /* add C to total sum */
    155e:	c8 0e       	add	r12, r24
    1560:	d9 1e       	adc	r13, r25
            #endif

            CapCounter++;                    /* valid measurement */
    1562:	33 94       	inc	r3
          }

          /* probe pair 2-3 */
          MeasureCap(PROBE_3, PROBE_2, 2);   /* measure C */
    1564:	42 e0       	ldi	r20, 0x02	; 2
    1566:	61 e0       	ldi	r22, 0x01	; 1
    1568:	82 e0       	ldi	r24, 0x02	; 2
    156a:	0e 94 59 19 	call	0x32b2	; 0x32b2 <MeasureCap>
          /* limit offset to 100pF */
          if ((Caps[2].Scale == -12) && (Caps[2].Raw <= 100UL))
    156e:	80 91 56 01 	lds	r24, 0x0156	; 0x800156 <Caps+0x1e>
    1572:	84 3f       	cpi	r24, 0xF4	; 244
    1574:	09 f0       	breq	.+2      	; 0x1578 <SelfAdjustment+0x120>
    1576:	ad cf       	rjmp	.-166    	; 0x14d2 <SelfAdjustment+0x7a>
    1578:	80 91 5b 01 	lds	r24, 0x015B	; 0x80015b <Caps+0x23>
    157c:	90 91 5c 01 	lds	r25, 0x015C	; 0x80015c <Caps+0x24>
    1580:	a0 91 5d 01 	lds	r26, 0x015D	; 0x80015d <Caps+0x25>
    1584:	b0 91 5e 01 	lds	r27, 0x015E	; 0x80015e <Caps+0x26>
    1588:	85 36       	cpi	r24, 0x65	; 101
    158a:	91 05       	cpc	r25, r1
    158c:	a1 05       	cpc	r26, r1
    158e:	b1 05       	cpc	r27, r1
    1590:	08 f0       	brcs	.+2      	; 0x1594 <SelfAdjustment+0x13c>
    1592:	9f cf       	rjmp	.-194    	; 0x14d2 <SelfAdjustment+0x7a>
          {
            Val3 = (uint16_t)Caps[2].Raw;    /* get C (in pF) */
    1594:	7c 01       	movw	r14, r24

            #ifdef CAP_MULTIOFFSET
            CapSum3 += Val3;                 /* add C to probe pair sum */
            #else
            CapSum += Val3;                  /* add C to total sum */
    1596:	c8 0e       	add	r12, r24
    1598:	d9 1e       	adc	r13, r25
            #endif

            CapCounter++;                    /* valid measurement */
    159a:	33 94       	inc	r3
    159c:	9a cf       	rjmp	.-204    	; 0x14d2 <SelfAdjustment+0x7a>
        case 2:     /* resistance of probe leads (probes shorted) */
          #ifdef UI_TEST_PAGEMODE
          if (Flag == 1)                     /* first run */
          {
          #endif
          Display_EEString_Space(ROffset_str);    /* display: R0 */
    159e:	80 e5       	ldi	r24, 0x50	; 80
    15a0:	91 e0       	ldi	r25, 0x01	; 1
    15a2:	0e 94 33 11 	call	0x2266	; 0x2266 <Display_EEString_Space>
          Display_EEString(ProbeComb_str);        /* display: 12 13 23 */          
    15a6:	86 e5       	ldi	r24, 0x56	; 86
    15a8:	91 e0       	ldi	r25, 0x01	; 1
    15aa:	0e 94 0f 11 	call	0x221e	; 0x221e <Display_EEString>
           *  The resistance is for two probes in series and we expect it to be
           *  lower than 1.50 Ohms, i.e. 0.75 Ohms for a single probe.
           */

          /* probe pair 1-2 */
          UpdateProbes2(PROBE_2, PROBE_1);   /* update probes (#2 and #1) */
    15ae:	60 e0       	ldi	r22, 0x00	; 0
    15b0:	81 e0       	ldi	r24, 0x01	; 1
    15b2:	0e 94 31 0e 	call	0x1c62	; 0x1c62 <UpdateProbes2>
          Val1 = SmallResistor(0);           /* get R in 0.01 Ohm */
    15b6:	80 e0       	ldi	r24, 0x00	; 0
    15b8:	0e 94 28 12 	call	0x2450	; 0x2450 <SmallResistor>
    15bc:	9d 83       	std	Y+5, r25	; 0x05
    15be:	8c 83       	std	Y+4, r24	; 0x04
          if (Val1 < 150)                    /* within limit (< 1.5 Ohm) */
    15c0:	86 39       	cpi	r24, 0x96	; 150
    15c2:	91 05       	cpc	r25, r1
    15c4:	18 f4       	brcc	.+6      	; 0x15cc <SelfAdjustment+0x174>
          {
            #ifdef R_MULTIOFFSET
            RSum1 += Val1;                   /* add R to probe pair sum */
            #else
            RSum += Val1;                    /* add R to total sum */
    15c6:	88 0e       	add	r8, r24
    15c8:	99 1e       	adc	r9, r25
            #endif

            RCounter++;                      /* valid measurement */
    15ca:	23 94       	inc	r2
          }

          /* probe pair 1-3 */
          UpdateProbes2(PROBE_3, PROBE_1);   /* update probes (#3 and #1) */
    15cc:	60 e0       	ldi	r22, 0x00	; 0
    15ce:	82 e0       	ldi	r24, 0x02	; 2
    15d0:	0e 94 31 0e 	call	0x1c62	; 0x1c62 <UpdateProbes2>
          Val2 = SmallResistor(0);           /* get R in 0.01 Ohm */
    15d4:	80 e0       	ldi	r24, 0x00	; 0
    15d6:	0e 94 28 12 	call	0x2450	; 0x2450 <SmallResistor>
    15da:	8c 01       	movw	r16, r24
          if (Val2 < 150)                    /* within limit (< 1.5 Ohm) */
    15dc:	86 39       	cpi	r24, 0x96	; 150
    15de:	91 05       	cpc	r25, r1
    15e0:	18 f4       	brcc	.+6      	; 0x15e8 <SelfAdjustment+0x190>
          {
            #ifdef R_MULTIOFFSET
            RSum2 += Val2;                   /* add R to probe pair sum */
            #else
            RSum += Val2;                    /* add R to total sum */
    15e2:	88 0e       	add	r8, r24
    15e4:	99 1e       	adc	r9, r25
            #endif

            RCounter++;                      /* valid measurement */
    15e6:	23 94       	inc	r2
          }

          /* probe pair 2-3 */
          UpdateProbes2(PROBE_3, PROBE_2);   /* update probes (#3 and #2) */
    15e8:	61 e0       	ldi	r22, 0x01	; 1
    15ea:	82 e0       	ldi	r24, 0x02	; 2
    15ec:	0e 94 31 0e 	call	0x1c62	; 0x1c62 <UpdateProbes2>
          Val3 = SmallResistor(0);           /* get R in 0.01 Ohm */
    15f0:	80 e0       	ldi	r24, 0x00	; 0
    15f2:	0e 94 28 12 	call	0x2450	; 0x2450 <SmallResistor>
    15f6:	7c 01       	movw	r14, r24
          if (Val3 < 150)                    /* within limit (< 1.5 Ohm) */
    15f8:	96 e9       	ldi	r25, 0x96	; 150
    15fa:	e9 16       	cp	r14, r25
    15fc:	f1 04       	cpc	r15, r1
    15fe:	08 f0       	brcs	.+2      	; 0x1602 <SelfAdjustment+0x1aa>
    1600:	68 cf       	rjmp	.-304    	; 0x14d2 <SelfAdjustment+0x7a>
          {
            #ifdef R_MULTIOFFSET
            RSum3 += Val3;                   /* add R to probe pair sum */
            #else
            RSum += Val3;                    /* add R to total sum */
    1602:	8e 0c       	add	r8, r14
    1604:	9f 1c       	adc	r9, r15
            #endif

            RCounter++;                      /* valid measurement */
    1606:	23 94       	inc	r2
    1608:	64 cf       	rjmp	.-312    	; 0x14d2 <SelfAdjustment+0x7a>
          }

          break;

        case 3:     /* un-short probes */
          ShortCircuit(0);              /* make sure probes are not shorted */
    160a:	80 e0       	ldi	r24, 0x00	; 0
    160c:	0e 94 4b 07 	call	0xe96	; 0xe96 <ShortCircuit>
          Flag = 100;                   /* skip test */
          DisplayFlag = 0;              /* don't display any result */
    1610:	80 e0       	ldi	r24, 0x00	; 0

          break;

        case 3:     /* un-short probes */
          ShortCircuit(0);              /* make sure probes are not shorted */
          Flag = 100;                   /* skip test */
    1612:	24 e6       	ldi	r18, 0x64	; 100
    1614:	29 83       	std	Y+1, r18	; 0x01

          break;
      }

      /* reset ports to defaults */
      ADC_DDR = 0;                      /* input mode */
    1616:	17 b8       	out	0x07, r1	; 7
      ADC_PORT = 0;                     /* all pins low */
    1618:	18 b8       	out	0x08, r1	; 8
      R_DDR = 0;                        /* input mode */
    161a:	1a b8       	out	0x0a, r1	; 10
      R_PORT = 0;                       /* all pins low */
    161c:	1b b8       	out	0x0b, r1	; 11

      /* display values */
      if (DisplayFlag)                  /* display requested */
    161e:	88 23       	and	r24, r24
    1620:	b9 f0       	breq	.+46     	; 0x1650 <SelfAdjustment+0x1f8>
      {
        Display_NextLine();             /* move to line #2 */
    1622:	0e 94 ed 10 	call	0x21da	; 0x21da <Display_NextLine>
        Display_Value2(Val1);           /* display value probe-1 */
    1626:	2c 81       	ldd	r18, Y+4	; 0x04
    1628:	3d 81       	ldd	r19, Y+5	; 0x05
    162a:	b9 01       	movw	r22, r18
    162c:	90 e0       	ldi	r25, 0x00	; 0
    162e:	80 e0       	ldi	r24, 0x00	; 0
    1630:	0e 94 00 12 	call	0x2400	; 0x2400 <Display_Value2>
        Display_Space();
    1634:	0e 94 27 11 	call	0x224e	; 0x224e <Display_Space>
        Display_Value2(Val2);           /* display value probe-2 */
    1638:	b8 01       	movw	r22, r16
    163a:	90 e0       	ldi	r25, 0x00	; 0
    163c:	80 e0       	ldi	r24, 0x00	; 0
    163e:	0e 94 00 12 	call	0x2400	; 0x2400 <Display_Value2>
        Display_Space();
    1642:	0e 94 27 11 	call	0x224e	; 0x224e <Display_Space>
        Display_Value2(Val3);           /* display value probe-3 */
    1646:	b7 01       	movw	r22, r14
    1648:	90 e0       	ldi	r25, 0x00	; 0
    164a:	80 e0       	ldi	r24, 0x00	; 0
    164c:	0e 94 00 12 	call	0x2400	; 0x2400 <Display_Value2>
      }

      /* wait and check test push button */
      if (Flag < 100)                   /* when we don't skip this test */
    1650:	39 81       	ldd	r19, Y+1	; 0x01
    1652:	34 36       	cpi	r19, 0x64	; 100
    1654:	61 f0       	breq	.+24     	; 0x166e <SelfAdjustment+0x216>
      {
        /* catch key press or timeout */
        DisplayFlag = TestKey(1000, CHECK_BAT);
    1656:	60 e1       	ldi	r22, 0x10	; 16
    1658:	88 ee       	ldi	r24, 0xE8	; 232
    165a:	93 e0       	ldi	r25, 0x03	; 3
    165c:	0e 94 0f 2b 	call	0x561e	; 0x561e <brutzelboy_get_key>

        /* short press -> next test / long press -> end selftest */
        if (DisplayFlag > KEY_TIMEOUT)
    1660:	88 23       	and	r24, r24
    1662:	29 f0       	breq	.+10     	; 0x166e <SelfAdjustment+0x216>
        {
          Flag = 100;                   /* skip current test anyway */
          if (DisplayFlag == KEY_LONG) Step = 100;  /* also skip selftest */
    1664:	82 30       	cpi	r24, 0x02	; 2
    1666:	09 f4       	brne	.+2      	; 0x166a <SelfAdjustment+0x212>
    1668:	9b c0       	rjmp	.+310    	; 0x17a0 <SelfAdjustment+0x348>
        DisplayFlag = TestKey(1000, CHECK_BAT);

        /* short press -> next test / long press -> end selftest */
        if (DisplayFlag > KEY_TIMEOUT)
        {
          Flag = 100;                   /* skip current test anyway */
    166a:	84 e6       	ldi	r24, 0x64	; 100
    166c:	89 83       	std	Y+1, r24	; 0x01
          if (DisplayFlag == KEY_LONG) Step = 100;  /* also skip selftest */
        } 
      }
 
      Flag++;                           /* next run */
    166e:	29 81       	ldd	r18, Y+1	; 0x01
    1670:	2f 5f       	subi	r18, 0xFF	; 255
    1672:	29 83       	std	Y+1, r18	; 0x01
      #endif
    Display_Space();
    #endif

    /* repeat each measurement 5 times */
    while (Flag <= 5)
    1674:	26 30       	cpi	r18, 0x06	; 6
    1676:	08 f4       	brcc	.+2      	; 0x167a <SelfAdjustment+0x222>
    1678:	13 cf       	rjmp	.-474    	; 0x14a0 <SelfAdjustment+0x48>
      }
 
      Flag++;                           /* next run */
    }

    Step++;                             /* next step */
    167a:	73 94       	inc	r7
  if (Flag == 0)              /* aborted */
  {
    Step = 10;                /* skip adjustment */
  }

  while (Step <= 6)      /* loop through steps */
    167c:	36 e0       	ldi	r19, 0x06	; 6
    167e:	37 15       	cp	r19, r7
    1680:	08 f0       	brcs	.+2      	; 0x1684 <SelfAdjustment+0x22c>
    1682:	29 cf       	rjmp	.-430    	; 0x14d6 <SelfAdjustment+0x7e>
   */

  Flag = 0;                   /* reset adjustment counter */

  /* capacitance auto-zero: calculate average value for probe pairs */
  if (CapCounter == 15)
    1684:	8f e0       	ldi	r24, 0x0F	; 15
    1686:	38 12       	cpse	r3, r24
    1688:	90 c0       	rjmp	.+288    	; 0x17aa <SelfAdjustment+0x352>
    NV.CapZero[0] = CapSum1 / 5;        /* probes 1-2 */
    NV.CapZero[1] = CapSum2 / 5;        /* probes 1-3 */
    NV.CapZero[2] = CapSum3 / 5;        /* probes 2-3 */
    #else
    /* for all probe pairs (in pF) */
    NV.CapZero = CapSum / CapCounter;
    168a:	c6 01       	movw	r24, r12
    168c:	6f e0       	ldi	r22, 0x0F	; 15
    168e:	70 e0       	ldi	r23, 0x00	; 0
    1690:	0e 94 dc 2c 	call	0x59b8	; 0x59b8 <__udivmodhi4>
    1694:	60 93 cd 01 	sts	0x01CD, r22	; 0x8001cd <NV+0x6>
    #endif

    Flag++;                   /* adjustment done */
    1698:	91 e0       	ldi	r25, 0x01	; 1
    169a:	99 83       	std	Y+1, r25	; 0x01
  }

  /* resistance auto-zero: calculate average value for probe pairs */
  if (RCounter == 15)
    169c:	2f e0       	ldi	r18, 0x0F	; 15
    169e:	22 12       	cpse	r2, r18
    16a0:	0c c0       	rjmp	.+24     	; 0x16ba <SelfAdjustment+0x262>
    NV.RZero[0] = RSum1 / 5;            /* probes 1-2 */
    NV.RZero[1] = RSum2 / 5;            /* probes 1-3 */
    NV.RZero[2] = RSum3 / 5;            /* probes 2-3 */
    #else
    /* for all probe pairs (in 0.01 Ohms) */
    NV.RZero = RSum / RCounter;
    16a2:	c4 01       	movw	r24, r8
    16a4:	6f e0       	ldi	r22, 0x0F	; 15
    16a6:	70 e0       	ldi	r23, 0x00	; 0
    16a8:	0e 94 dc 2c 	call	0x59b8	; 0x59b8 <__udivmodhi4>
    16ac:	70 93 cc 01 	sts	0x01CC, r23	; 0x8001cc <NV+0x5>
    16b0:	60 93 cb 01 	sts	0x01CB, r22	; 0x8001cb <NV+0x4>
    #endif

    Flag++;                   /* adjustment done */
    16b4:	39 81       	ldd	r19, Y+1	; 0x01
    16b6:	3f 5f       	subi	r19, 0xFF	; 255
    16b8:	39 83       	std	Y+1, r19	; 0x01
  }

  /* RiL & RiH */
  if ((RiL_Counter == 15) && (RiH_Counter == 15))
    16ba:	8a 81       	ldd	r24, Y+2	; 0x02
    16bc:	8f 30       	cpi	r24, 0x0F	; 15
    16be:	09 f4       	brne	.+2      	; 0x16c2 <SelfAdjustment+0x26a>
    16c0:	76 c0       	rjmp	.+236    	; 0x17ae <SelfAdjustment+0x356>

    Flag = 1;            /* signal success */
  }
  else                   /* missing adjustments */
  {
    Flag = 0;            /* signal error */
    16c2:	80 e0       	ldi	r24, 0x00	; 0
  }

  return Flag;
}
    16c4:	25 96       	adiw	r28, 0x05	; 5
    16c6:	e2 e1       	ldi	r30, 0x12	; 18
    16c8:	0c 94 88 2d 	jmp	0x5b10	; 0x5b10 <__epilogue_restores__>

        case 4:     /* internal resistance of MCU pin in pull-down mode */
          #ifdef UI_TEST_PAGEMODE
          if (Flag == 1)                     /* first run */
          #endif
          Display_EEString(RiLow_str);  /* display: Ri- */
    16cc:	8d e6       	ldi	r24, 0x6D	; 109
    16ce:	91 e0       	ldi	r25, 0x01	; 1
    16d0:	0e 94 0f 11 	call	0x221e	; 0x221e <Display_EEString>

          /* TP1:  Gnd -- RiL -- probe-1 -- Rl -- RiH -- Vcc */
          ADC_PORT = 0;
    16d4:	18 b8       	out	0x08, r1	; 8
          ADC_DDR = (1 << TP1);
    16d6:	67 b8       	out	0x07, r6	; 7
          R_PORT = (1 << R_RL_1);
    16d8:	7b b8       	out	0x0b, r7	; 11
          R_DDR = (1 << R_RL_1);
    16da:	7a b8       	out	0x0a, r7	; 10
          Val1 = ReadU_5ms(TP1);             /* U across RiL */
    16dc:	80 e0       	ldi	r24, 0x00	; 0
    16de:	0e 94 c1 0d 	call	0x1b82	; 0x1b82 <ReadU_5ms>
    16e2:	9d 83       	std	Y+5, r25	; 0x05
    16e4:	8c 83       	std	Y+4, r24	; 0x04
          U_RiL += Val1;                     /* add U to total sum */

          /* TP2: Gnd -- RiL -- probe-2 -- Rl -- RiH -- Vcc */
          ADC_DDR = (1 << TP2);
    16e6:	32 e0       	ldi	r19, 0x02	; 2
    16e8:	37 b9       	out	0x07, r19	; 7
          R_PORT =  (1 << R_RL_2);
    16ea:	80 e1       	ldi	r24, 0x10	; 16
    16ec:	8b b9       	out	0x0b, r24	; 11
          R_DDR = (1 << R_RL_2);
    16ee:	8a b9       	out	0x0a, r24	; 10
          Val2 = ReadU_5ms(TP2);             /* U across RiL */
    16f0:	81 e0       	ldi	r24, 0x01	; 1
    16f2:	0e 94 c1 0d 	call	0x1b82	; 0x1b82 <ReadU_5ms>
    16f6:	8c 01       	movw	r16, r24
          U_RiL += Val2;                     /* add U to total sum */
    16f8:	8c 81       	ldd	r24, Y+4	; 0x04
    16fa:	9d 81       	ldd	r25, Y+5	; 0x05
    16fc:	80 0f       	add	r24, r16
    16fe:	91 1f       	adc	r25, r17
    1700:	a8 0e       	add	r10, r24
    1702:	b9 1e       	adc	r11, r25

          /* TP3: Gnd -- RiL -- probe-3 -- Rl -- RiH -- Vcc */
          ADC_DDR = (1 << TP3);
    1704:	77 b8       	out	0x07, r7	; 7
          R_PORT =  (1 << R_RL_3);
    1706:	90 e4       	ldi	r25, 0x40	; 64
    1708:	9b b9       	out	0x0b, r25	; 11
          R_DDR = (1 << R_RL_3);
    170a:	9a b9       	out	0x0a, r25	; 10
          Val3 = ReadU_5ms(TP3);             /* U across RiL */
    170c:	82 e0       	ldi	r24, 0x02	; 2
    170e:	0e 94 c1 0d 	call	0x1b82	; 0x1b82 <ReadU_5ms>
    1712:	7c 01       	movw	r14, r24
          U_RiL += Val3;                     /* add U to total sum */
    1714:	a8 0e       	add	r10, r24
    1716:	b9 1e       	adc	r11, r25

          RiL_Counter += 3;
    1718:	2a 81       	ldd	r18, Y+2	; 0x02
    171a:	2d 5f       	subi	r18, 0xFD	; 253
    171c:	2a 83       	std	Y+2, r18	; 0x02
    171e:	d9 ce       	rjmp	.-590    	; 0x14d2 <SelfAdjustment+0x7a>

        case 5:     /* internal resistance of MCU pin in pull-up mode */
          #ifdef UI_TEST_PAGEMODE
          if (Flag == 1)                     /* first run */
          #endif
          Display_EEString(RiHigh_str);      /* display: Ri+ */
    1720:	89 e6       	ldi	r24, 0x69	; 105
    1722:	91 e0       	ldi	r25, 0x01	; 1
    1724:	0e 94 0f 11 	call	0x221e	; 0x221e <Display_EEString>

          /* TP1: Gnd -- RiL -- Rl -- probe-1 -- RiH -- Vcc */
          R_PORT = 0;
    1728:	1b b8       	out	0x0b, r1	; 11
          ADC_PORT = (1 << TP1);
    172a:	68 b8       	out	0x08, r6	; 8
          ADC_DDR = (1 << TP1);
    172c:	67 b8       	out	0x07, r6	; 7
          R_DDR = (1 << R_RL_1);
    172e:	34 e0       	ldi	r19, 0x04	; 4
    1730:	3a b9       	out	0x0a, r19	; 10
          Val1 = Cfg.Vcc - ReadU_5ms(TP1);   /* U across RiH */
    1732:	80 91 8e 01 	lds	r24, 0x018E	; 0x80018e <Cfg+0x8>
    1736:	90 91 8f 01 	lds	r25, 0x018F	; 0x80018f <Cfg+0x9>
    173a:	9d 83       	std	Y+5, r25	; 0x05
    173c:	8c 83       	std	Y+4, r24	; 0x04
    173e:	80 e0       	ldi	r24, 0x00	; 0
    1740:	0e 94 c1 0d 	call	0x1b82	; 0x1b82 <ReadU_5ms>
    1744:	2c 81       	ldd	r18, Y+4	; 0x04
    1746:	3d 81       	ldd	r19, Y+5	; 0x05
    1748:	28 1b       	sub	r18, r24
    174a:	39 0b       	sbc	r19, r25
    174c:	3d 83       	std	Y+5, r19	; 0x05
    174e:	2c 83       	std	Y+4, r18	; 0x04
          U_RiH += Val1;                     /* add U to total sum */

          /* TP2: Gnd -- RiL -- Rl -- probe-2 -- RiH -- Vcc */
          ADC_PORT = (1 << TP2);
    1750:	32 e0       	ldi	r19, 0x02	; 2
    1752:	38 b9       	out	0x08, r19	; 8
          ADC_DDR = (1 << TP2);
    1754:	37 b9       	out	0x07, r19	; 7
          R_DDR = (1 << R_RL_2);
    1756:	80 e1       	ldi	r24, 0x10	; 16
    1758:	8a b9       	out	0x0a, r24	; 10
          Val2 = Cfg.Vcc - ReadU_5ms(TP2);   /* U across RiH */
    175a:	00 91 8e 01 	lds	r16, 0x018E	; 0x80018e <Cfg+0x8>
    175e:	10 91 8f 01 	lds	r17, 0x018F	; 0x80018f <Cfg+0x9>
    1762:	81 e0       	ldi	r24, 0x01	; 1
    1764:	0e 94 c1 0d 	call	0x1b82	; 0x1b82 <ReadU_5ms>
    1768:	08 1b       	sub	r16, r24
    176a:	19 0b       	sbc	r17, r25
          U_RiH += Val2;                     /* add U to total sum */
    176c:	8c 81       	ldd	r24, Y+4	; 0x04
    176e:	9d 81       	ldd	r25, Y+5	; 0x05
    1770:	80 0f       	add	r24, r16
    1772:	91 1f       	adc	r25, r17
    1774:	48 0e       	add	r4, r24
    1776:	59 1e       	adc	r5, r25

          /* TP3: Gnd -- RiL -- Rl -- probe-3 -- RiH -- Vcc */
          ADC_PORT = (1 << TP3);
    1778:	94 e0       	ldi	r25, 0x04	; 4
    177a:	98 b9       	out	0x08, r25	; 8
          ADC_DDR = (1 << TP3);
    177c:	97 b9       	out	0x07, r25	; 7
          R_DDR = (1 << R_RL_3);
    177e:	20 e4       	ldi	r18, 0x40	; 64
    1780:	2a b9       	out	0x0a, r18	; 10
          Val3 = Cfg.Vcc - ReadU_5ms(TP3);   /* U across RiH */
    1782:	e0 90 8e 01 	lds	r14, 0x018E	; 0x80018e <Cfg+0x8>
    1786:	f0 90 8f 01 	lds	r15, 0x018F	; 0x80018f <Cfg+0x9>
    178a:	82 e0       	ldi	r24, 0x02	; 2
    178c:	0e 94 c1 0d 	call	0x1b82	; 0x1b82 <ReadU_5ms>
    1790:	e8 1a       	sub	r14, r24
    1792:	f9 0a       	sbc	r15, r25
          U_RiH += Val3;                     /* add U to total sum */
    1794:	4e 0c       	add	r4, r14
    1796:	5f 1c       	adc	r5, r15

          RiH_Counter += 3;
    1798:	3b 81       	ldd	r19, Y+3	; 0x03
    179a:	3d 5f       	subi	r19, 0xFD	; 253
    179c:	3b 83       	std	Y+3, r19	; 0x03
    179e:	99 ce       	rjmp	.-718    	; 0x14d2 <SelfAdjustment+0x7a>

        /* short press -> next test / long press -> end selftest */
        if (DisplayFlag > KEY_TIMEOUT)
        {
          Flag = 100;                   /* skip current test anyway */
          if (DisplayFlag == KEY_LONG) Step = 100;  /* also skip selftest */
    17a0:	54 e6       	ldi	r21, 0x64	; 100
    17a2:	75 2e       	mov	r7, r21
        DisplayFlag = TestKey(1000, CHECK_BAT);

        /* short press -> next test / long press -> end selftest */
        if (DisplayFlag > KEY_TIMEOUT)
        {
          Flag = 100;                   /* skip current test anyway */
    17a4:	94 e6       	ldi	r25, 0x64	; 100
    17a6:	99 83       	std	Y+1, r25	; 0x01
    17a8:	62 cf       	rjmp	.-316    	; 0x166e <SelfAdjustment+0x216>

  /*
   *  calculate values and offsets
   */

  Flag = 0;                   /* reset adjustment counter */
    17aa:	19 82       	std	Y+1, r1	; 0x01
    17ac:	77 cf       	rjmp	.-274    	; 0x169c <SelfAdjustment+0x244>

    Flag++;                   /* adjustment done */
  }

  /* RiL & RiH */
  if ((RiL_Counter == 15) && (RiH_Counter == 15))
    17ae:	9b 81       	ldd	r25, Y+3	; 0x03
    17b0:	9f 30       	cpi	r25, 0x0F	; 15
    17b2:	09 f0       	breq	.+2      	; 0x17b6 <SelfAdjustment+0x35e>
    17b4:	86 cf       	rjmp	.-244    	; 0x16c2 <SelfAdjustment+0x26a>
     *  Ri = Rl * (U_Ri / U_Rl)
     *  - scale up by 100, round up/down and scale down by 10
     */

    /* use values multiplied by 3 to increase accuracy */    
    U_RiL /= 5;                         /* average sum of 3 U_RiL */
    17b6:	e5 e0       	ldi	r30, 0x05	; 5
    17b8:	f0 e0       	ldi	r31, 0x00	; 0
    17ba:	c5 01       	movw	r24, r10
    17bc:	bf 01       	movw	r22, r30
    17be:	0e 94 dc 2c 	call	0x59b8	; 0x59b8 <__udivmodhi4>
    17c2:	9b 01       	movw	r18, r22
    U_RiH /= 5;                         /* average sum of 3 U_RiH */
    17c4:	c2 01       	movw	r24, r4
    17c6:	bf 01       	movw	r22, r30
    17c8:	0e 94 dc 2c 	call	0x59b8	; 0x59b8 <__udivmodhi4>
    17cc:	8b 01       	movw	r16, r22
    Val1 = (Cfg.Vcc * 3) - U_RiL - U_RiH;    /* U_Rl * 3 */
    17ce:	80 91 8e 01 	lds	r24, 0x018E	; 0x80018e <Cfg+0x8>
    17d2:	90 91 8f 01 	lds	r25, 0x018F	; 0x80018f <Cfg+0x9>
    17d6:	6c 01       	movw	r12, r24
    17d8:	cc 0c       	add	r12, r12
    17da:	dd 1c       	adc	r13, r13
    17dc:	c8 0e       	add	r12, r24
    17de:	d9 1e       	adc	r13, r25
    17e0:	c2 1a       	sub	r12, r18
    17e2:	d3 0a       	sbc	r13, r19
    17e4:	c6 1a       	sub	r12, r22
    17e6:	d7 0a       	sbc	r13, r23

    /* RiL */
    Val0 = ((uint32_t)R_LOW * 100 * U_RiL) / Val1;     /* Rl * U_Ri / U_Rl in 0.01 Ohm */
    17e8:	f1 2c       	mov	r15, r1
    17ea:	e1 2c       	mov	r14, r1
    17ec:	d9 01       	movw	r26, r18
    17ee:	20 ea       	ldi	r18, 0xA0	; 160
    17f0:	39 e0       	ldi	r19, 0x09	; 9
    17f2:	41 e0       	ldi	r20, 0x01	; 1
    17f4:	50 e0       	ldi	r21, 0x00	; 0
    17f6:	0e 94 61 2d 	call	0x5ac2	; 0x5ac2 <__muluhisi3>
    17fa:	a7 01       	movw	r20, r14
    17fc:	96 01       	movw	r18, r12
    17fe:	0e 94 04 2d 	call	0x5a08	; 0x5a08 <__udivmodsi4>
    Val0 += 5;                                         /* for automagic rounding */
    1802:	ca 01       	movw	r24, r20
    1804:	b9 01       	movw	r22, r18
    1806:	6b 5f       	subi	r22, 0xFB	; 251
    1808:	7f 4f       	sbci	r23, 0xFF	; 255
    180a:	8f 4f       	sbci	r24, 0xFF	; 255
    180c:	9f 4f       	sbci	r25, 0xFF	; 255
    Val0 /= 10;                                        /* scale down to 0.1 Ohm */
    180e:	2a e0       	ldi	r18, 0x0A	; 10
    1810:	30 e0       	ldi	r19, 0x00	; 0
    1812:	40 e0       	ldi	r20, 0x00	; 0
    1814:	50 e0       	ldi	r21, 0x00	; 0
    1816:	0e 94 04 2d 	call	0x5a08	; 0x5a08 <__udivmodsi4>
    if (Val0 < 250UL)         /* < 25 Ohms */
    181a:	2a 3f       	cpi	r18, 0xFA	; 250
    181c:	31 05       	cpc	r19, r1
    181e:	41 05       	cpc	r20, r1
    1820:	51 05       	cpc	r21, r1
    1822:	38 f4       	brcc	.+14     	; 0x1832 <SelfAdjustment+0x3da>
    {
      NV.RiL = (uint16_t)Val0;
    1824:	30 93 c8 01 	sts	0x01C8, r19	; 0x8001c8 <NV+0x1>
    1828:	20 93 c7 01 	sts	0x01C7, r18	; 0x8001c7 <NV>
      Flag++;                 /* adjustment done */
    182c:	29 81       	ldd	r18, Y+1	; 0x01
    182e:	2f 5f       	subi	r18, 0xFF	; 255
    1830:	29 83       	std	Y+1, r18	; 0x01
    }

    /* RiH */
    Val0 = ((uint32_t)R_LOW * 100 * U_RiH) / Val1;     /* Rl * U_Ri / U_Rl in 0.01 Ohm */
    1832:	d8 01       	movw	r26, r16
    1834:	20 ea       	ldi	r18, 0xA0	; 160
    1836:	39 e0       	ldi	r19, 0x09	; 9
    1838:	41 e0       	ldi	r20, 0x01	; 1
    183a:	50 e0       	ldi	r21, 0x00	; 0
    183c:	0e 94 61 2d 	call	0x5ac2	; 0x5ac2 <__muluhisi3>
    1840:	a7 01       	movw	r20, r14
    1842:	96 01       	movw	r18, r12
    1844:	0e 94 04 2d 	call	0x5a08	; 0x5a08 <__udivmodsi4>
    Val0 += 5;                                         /* for automagic rounding */
    1848:	ca 01       	movw	r24, r20
    184a:	b9 01       	movw	r22, r18
    184c:	6b 5f       	subi	r22, 0xFB	; 251
    184e:	7f 4f       	sbci	r23, 0xFF	; 255
    1850:	8f 4f       	sbci	r24, 0xFF	; 255
    1852:	9f 4f       	sbci	r25, 0xFF	; 255
    Val0 /= 10;                                        /* scale down to 0.1 Ohm */
    1854:	2a e0       	ldi	r18, 0x0A	; 10
    1856:	30 e0       	ldi	r19, 0x00	; 0
    1858:	40 e0       	ldi	r20, 0x00	; 0
    185a:	50 e0       	ldi	r21, 0x00	; 0
    185c:	0e 94 04 2d 	call	0x5a08	; 0x5a08 <__udivmodsi4>
    if (Val0 < 280UL)         /* < 29 Ohms */
    1860:	28 31       	cpi	r18, 0x18	; 24
    1862:	81 e0       	ldi	r24, 0x01	; 1
    1864:	38 07       	cpc	r19, r24
    1866:	41 05       	cpc	r20, r1
    1868:	51 05       	cpc	r21, r1
    186a:	08 f0       	brcs	.+2      	; 0x186e <SelfAdjustment+0x416>
    186c:	2a cf       	rjmp	.-428    	; 0x16c2 <SelfAdjustment+0x26a>
    {
      NV.RiH = (uint16_t)Val0;
    186e:	30 93 ca 01 	sts	0x01CA, r19	; 0x8001ca <NV+0x3>
    1872:	20 93 c9 01 	sts	0x01C9, r18	; 0x8001c9 <NV+0x2>
  {
    Flag = 0;                 /* signal error */
  }
  #endif

  if (Flag == 4)         /* all adjustments done */
    1876:	99 81       	ldd	r25, Y+1	; 0x01
    1878:	93 30       	cpi	r25, 0x03	; 3
    187a:	09 f0       	breq	.+2      	; 0x187e <SelfAdjustment+0x426>
    187c:	22 cf       	rjmp	.-444    	; 0x16c2 <SelfAdjustment+0x26a>
  {
    /* show basic values and offsets */
    ShowAdjustmentValues();
    187e:	0e 94 c0 09 	call	0x1380	; 0x1380 <ShowAdjustmentValues>

    Flag = 1;            /* signal success */
    1882:	81 e0       	ldi	r24, 0x01	; 1
  else                   /* missing adjustments */
  {
    Flag = 0;            /* signal error */
  }

  return Flag;
    1884:	1f cf       	rjmp	.-450    	; 0x16c4 <SelfAdjustment+0x26c>

00001886 <SelfTest>:
 *  - 0 on error
 *  - 1 on success
 */

uint8_t SelfTest(void)
{
    1886:	b0 e0       	ldi	r27, 0x00	; 0
    1888:	a0 e0       	ldi	r26, 0x00	; 0
    188a:	e9 e4       	ldi	r30, 0x49	; 73
    188c:	fc e0       	ldi	r31, 0x0C	; 12
    188e:	0c 94 6c 2d 	jmp	0x5ad8	; 0x5ad8 <__prologue_saves__>
  uint16_t          Val0;               /* voltage/value */
  int16_t           Val1 = 0, Val2 = 0, Val3 = 0;   /* voltages/values */
  int16_t           Temp;               /* value */

  /* make sure all probes are shorted */
  Flag = ShortCircuit(1);
    1892:	81 e0       	ldi	r24, 0x01	; 1
    1894:	0e 94 4b 07 	call	0xe96	; 0xe96 <ShortCircuit>
  if (Flag == 0)              /* aborted */
    1898:	81 11       	cpse	r24, r1
    189a:	06 c0       	rjmp	.+12     	; 0x18a8 <SelfTest+0x22>
    Test++;                             /* next one */
  }

  Flag = 1;         /* signal success */
  return Flag;
} 
    189c:	81 e0       	ldi	r24, 0x01	; 1
    189e:	cd b7       	in	r28, 0x3d	; 61
    18a0:	de b7       	in	r29, 0x3e	; 62
    18a2:	e2 e1       	ldi	r30, 0x12	; 18
    18a4:	0c 94 88 2d 	jmp	0x5b10	; 0x5b10 <__epilogue_restores__>
    18a8:	d1 2c       	mov	r13, r1
    18aa:	c1 2c       	mov	r12, r1
    18ac:	f1 2c       	mov	r15, r1
    18ae:	e1 2c       	mov	r14, r1
    18b0:	10 e0       	ldi	r17, 0x00	; 0
    18b2:	00 e0       	ldi	r16, 0x00	; 0
 */

uint8_t SelfTest(void)
{
  uint8_t           Flag = 0;           /* return value & loop counter */
  uint8_t           Test = 1;           /* test counter */
    18b4:	c1 e0       	ldi	r28, 0x01	; 1
  }

  /* loop through all tests */
  while (Test <= 6)
  {
    Flag = 1;                 /* reset loop counter */
    18b6:	d1 e0       	ldi	r29, 0x01	; 1

          /* voltage of voltage divider (ignore RiL and RiH) */
          Temp = Cfg.Vcc / 2;

          /* TP3: Gnd -- Rh -- probe-2 -- probe-1 -- Rh -- Vcc */
          R_PORT = (1 << R_RH_1);
    18b8:	98 e0       	ldi	r25, 0x08	; 8
    18ba:	29 2e       	mov	r2, r25
          R_DDR = (1 << R_RH_1) | (1 << R_RH_3);
          Val2 = ReadU_20ms(TP2);
          Val2 -= Temp;

          /* TP1: Gnd -- Rh -- probe-3 -- probe-2 -- Rh -- Vcc */
          R_PORT = (1 << R_RH_2);
    18bc:	20 e2       	ldi	r18, 0x20	; 32
    18be:	32 2e       	mov	r3, r18

          /* set up a voltage divider using two Rl */
          /* get offset by substracting theoretical voltage of voltage divider */

          /* voltage of voltage divider (in mV) */
          Temp = ((int32_t)Cfg.Vcc * (R_MCU_LOW/10 + R_LOW)) / (R_MCU_LOW/10 + R_LOW + R_LOW + R_MCU_HIGH/10);
    18c0:	3a e7       	ldi	r19, 0x7A	; 122
    18c2:	43 2e       	mov	r4, r19
    18c4:	35 e0       	ldi	r19, 0x05	; 5
    18c6:	53 2e       	mov	r5, r19
    18c8:	61 2c       	mov	r6, r1
    18ca:	71 2c       	mov	r7, r1
    18cc:	6a c0       	rjmp	.+212    	; 0x19a2 <SelfTest+0x11c>

      /*
       *  tests
       */

      switch (Test)
    18ce:	c5 30       	cpi	r28, 0x05	; 5
    18d0:	09 f4       	brne	.+2      	; 0x18d4 <SelfTest+0x4e>
    18d2:	df c0       	rjmp	.+446    	; 0x1a92 <SelfTest+0x20c>
    18d4:	08 f4       	brcc	.+2      	; 0x18d8 <SelfTest+0x52>
    18d6:	d7 c0       	rjmp	.+430    	; 0x1a86 <SelfTest+0x200>
    18d8:	c6 30       	cpi	r28, 0x06	; 6
    18da:	09 f0       	breq	.+2      	; 0x18de <SelfTest+0x58>
    18dc:	76 c0       	rjmp	.+236    	; 0x19ca <SelfTest+0x144>

        case 6:     /* leakage check: probes pulled up */
          #ifdef UI_TEST_PAGEMODE
          if (Flag == 1)                     /* first run */
          #endif
          Display_EEString(RhHigh_str);      /* display: Rh+ */
    18de:	81 e7       	ldi	r24, 0x71	; 113
    18e0:	91 e0       	ldi	r25, 0x01	; 1
    18e2:	0e 94 0f 11 	call	0x221e	; 0x221e <Display_EEString>

          /* pull up probe via Rh and get voltage */
          /* voltage expected to be near Vcc */

          /* TP1: probe-1 -- Rh -- Vcc */
          R_PORT = (1 << R_RH_1);
    18e6:	2b b8       	out	0x0b, r2	; 11
          R_DDR = (1 << R_RH_1);
    18e8:	2a b8       	out	0x0a, r2	; 10
          Val1 = ReadU_20ms(TP1);
    18ea:	80 e0       	ldi	r24, 0x00	; 0
    18ec:	0e 94 ca 0d 	call	0x1b94	; 0x1b94 <ReadU_20ms>
    18f0:	8c 01       	movw	r16, r24

          /* TP2: probe-2 -- Rh -- Vcc */
          R_PORT = (1 << R_RH_2);
    18f2:	3b b8       	out	0x0b, r3	; 11
          R_DDR = (1 << R_RH_2);
    18f4:	3a b8       	out	0x0a, r3	; 10
          Val2 = ReadU_20ms(TP2);
    18f6:	81 e0       	ldi	r24, 0x01	; 1
    18f8:	0e 94 ca 0d 	call	0x1b94	; 0x1b94 <ReadU_20ms>
    18fc:	7c 01       	movw	r14, r24

          /* TP3: probe-3 -- Rh -- Vcc */
          R_PORT = (1 << R_RH_3);
    18fe:	80 e8       	ldi	r24, 0x80	; 128
    1900:	8b b9       	out	0x0b, r24	; 11
    1902:	d7 c0       	rjmp	.+430    	; 0x1ab2 <SelfTest+0x22c>
       */

      switch (Test)
      {
        case 1:     /* reference voltage */
          Val0 = ReadU(ADC_CHAN_BANDGAP);    /* dummy read for bandgap stabilization */
    1904:	8e e0       	ldi	r24, 0x0E	; 14
    1906:	0e 94 61 0d 	call	0x1ac2	; 0x1ac2 <ReadU>
          Val0 = ReadU(ADC_CHAN_BANDGAP);    /* read bandgap reference voltage */ 
    190a:	8e e0       	ldi	r24, 0x0E	; 14
    190c:	0e 94 61 0d 	call	0x1ac2	; 0x1ac2 <ReadU>
    1910:	5c 01       	movw	r10, r24

          #ifdef UI_TEST_PAGEMODE
          if (Flag == 1)                     /* first run */
          #endif
          Display_EEString(URef_str);        /* display: Vref */
    1912:	89 e7       	ldi	r24, 0x79	; 121
    1914:	91 e0       	ldi	r25, 0x01	; 1
    1916:	0e 94 0f 11 	call	0x221e	; 0x221e <Display_EEString>

          Display_NextLine();
    191a:	0e 94 ed 10 	call	0x21da	; 0x21da <Display_NextLine>
          Display_Value(Val0, -3, 'V');      /* display voltage in mV */
    191e:	b5 01       	movw	r22, r10
    1920:	90 e0       	ldi	r25, 0x00	; 0
    1922:	80 e0       	ldi	r24, 0x00	; 0
    1924:	26 e5       	ldi	r18, 0x56	; 86
    1926:	4d ef       	ldi	r20, 0xFD	; 253
    1928:	0e 94 74 11 	call	0x22e8	; 0x22e8 <Display_Value>

          DisplayFlag = 0;                   /* reset flag */
    192c:	80 e0       	ldi	r24, 0x00	; 0

          break;
      }

      /* reset ports to defaults */
      R_DDR = 0;                             /* input mode */
    192e:	1a b8       	out	0x0a, r1	; 10
      R_PORT = 0;                            /* all pins low */
    1930:	1b b8       	out	0x0b, r1	; 11

      /* display voltages/values of all probes */
      if (DisplayFlag)                       /* display requested */
    1932:	88 23       	and	r24, r24
    1934:	09 f1       	breq	.+66     	; 0x1978 <SelfTest+0xf2>
      {
        Display_NextLine();                  /* move to line #2 */
    1936:	0e 94 ed 10 	call	0x21da	; 0x21da <Display_NextLine>

        #ifndef UI_PREFIX
        Display_SignedValue(Val1, 0, 0);     /* display value probe-1 */
    193a:	20 e0       	ldi	r18, 0x00	; 0
    193c:	40 e0       	ldi	r20, 0x00	; 0
    193e:	b8 01       	movw	r22, r16
    1940:	01 2e       	mov	r0, r17
    1942:	00 0c       	add	r0, r0
    1944:	88 0b       	sbc	r24, r24
    1946:	99 0b       	sbc	r25, r25
    1948:	0e 94 05 12 	call	0x240a	; 0x240a <Display_SignedValue>
        Display_Space();
    194c:	0e 94 27 11 	call	0x224e	; 0x224e <Display_Space>
        Display_SignedValue(Val2, 0, 0);     /* display value probe-2 */
    1950:	20 e0       	ldi	r18, 0x00	; 0
    1952:	40 e0       	ldi	r20, 0x00	; 0
    1954:	b7 01       	movw	r22, r14
    1956:	0f 2c       	mov	r0, r15
    1958:	00 0c       	add	r0, r0
    195a:	88 0b       	sbc	r24, r24
    195c:	99 0b       	sbc	r25, r25
    195e:	0e 94 05 12 	call	0x240a	; 0x240a <Display_SignedValue>
        Display_Space();
    1962:	0e 94 27 11 	call	0x224e	; 0x224e <Display_Space>
        Display_SignedValue(Val3, 0, 0);     /* display value probe-3 */
    1966:	20 e0       	ldi	r18, 0x00	; 0
    1968:	40 e0       	ldi	r20, 0x00	; 0
    196a:	b6 01       	movw	r22, r12
    196c:	0d 2c       	mov	r0, r13
    196e:	00 0c       	add	r0, r0
    1970:	88 0b       	sbc	r24, r24
    1972:	99 0b       	sbc	r25, r25
    1974:	0e 94 05 12 	call	0x240a	; 0x240a <Display_SignedValue>
        Display_SignedFullValue(Val3, 0, 0);      /* display value probe-3 */
        #endif
      }

      /* wait and check test push button */
      if (Flag < 100)                   /* when we don't skip this test */
    1978:	d4 36       	cpi	r29, 0x64	; 100
    197a:	59 f0       	breq	.+22     	; 0x1992 <SelfTest+0x10c>
      {
        /* catch key press or timeout */
        DisplayFlag = TestKey(1000, CHECK_BAT);
    197c:	60 e1       	ldi	r22, 0x10	; 16
    197e:	88 ee       	ldi	r24, 0xE8	; 232
    1980:	93 e0       	ldi	r25, 0x03	; 3
    1982:	0e 94 0f 2b 	call	0x561e	; 0x561e <brutzelboy_get_key>

        /* short press -> next test / long press -> end selftest */
        if (DisplayFlag > KEY_TIMEOUT)
    1986:	88 23       	and	r24, r24
    1988:	21 f0       	breq	.+8      	; 0x1992 <SelfTest+0x10c>
        {
          Flag = 100;                   /* skip current test anyway */
          if (DisplayFlag == KEY_LONG) Test = 100;  /* also skip selftest */
    198a:	82 30       	cpi	r24, 0x02	; 2
    198c:	09 f4       	brne	.+2      	; 0x1990 <SelfTest+0x10a>
    198e:	97 c0       	rjmp	.+302    	; 0x1abe <SelfTest+0x238>
        DisplayFlag = TestKey(1000, CHECK_BAT);

        /* short press -> next test / long press -> end selftest */
        if (DisplayFlag > KEY_TIMEOUT)
        {
          Flag = 100;                   /* skip current test anyway */
    1990:	d4 e6       	ldi	r29, 0x64	; 100
          if (DisplayFlag == KEY_LONG) Test = 100;  /* also skip selftest */
        } 
      }
 
      Flag++;                      /* next run */
    1992:	df 5f       	subi	r29, 0xFF	; 255
      #endif
    Display_Space();
    #endif

    /* repeat each test 5 times */
    while (Flag <= 5)
    1994:	d6 30       	cpi	r29, 0x06	; 6
    1996:	28 f0       	brcs	.+10     	; 0x19a2 <SelfTest+0x11c>
      }
 
      Flag++;                      /* next run */
    }

    Test++;                             /* next one */
    1998:	cf 5f       	subi	r28, 0xFF	; 255
  {
    Test = 10;                /* skip selftest */
  }

  /* loop through all tests */
  while (Test <= 6)
    199a:	c7 30       	cpi	r28, 0x07	; 7
    199c:	08 f0       	brcs	.+2      	; 0x19a0 <SelfTest+0x11a>
    199e:	7e cf       	rjmp	.-260    	; 0x189c <SelfTest+0x16>
  {
    Flag = 1;                 /* reset loop counter */
    19a0:	d1 e0       	ldi	r29, 0x01	; 1
    /* repeat each test 5 times */
    while (Flag <= 5)
    {
      #ifndef UI_TEST_PAGEMODE
      /* display test number */
      LCD_Clear();
    19a2:	0e 94 16 2b 	call	0x562c	; 0x562c <LCD_Clear>
        #ifdef UI_COLORED_TITLES
        Display_UseTitleColor();        /* use title color */
        #endif
      Display_Char('T');                /* display: T */
    19a6:	84 e5       	ldi	r24, 0x54	; 84
    19a8:	0e 94 fe 2a 	call	0x55fc	; 0x55fc <LCD_Char>
      Display_Char('0' + Test);         /* display test number */
    19ac:	80 e3       	ldi	r24, 0x30	; 48
    19ae:	8c 0f       	add	r24, r28
    19b0:	0e 94 fe 2a 	call	0x55fc	; 0x55fc <LCD_Char>
        #ifdef UI_COLORED_TITLES
        Display_UseOldColor();          /* use old color */
        #endif
      Display_Space();
    19b4:	0e 94 27 11 	call	0x224e	; 0x224e <Display_Space>

      /*
       *  tests
       */

      switch (Test)
    19b8:	c3 30       	cpi	r28, 0x03	; 3
    19ba:	e1 f1       	breq	.+120    	; 0x1a34 <SelfTest+0x1ae>
    19bc:	08 f0       	brcs	.+2      	; 0x19c0 <SelfTest+0x13a>
    19be:	87 cf       	rjmp	.-242    	; 0x18ce <SelfTest+0x48>
    19c0:	c1 30       	cpi	r28, 0x01	; 1
    19c2:	09 f4       	brne	.+2      	; 0x19c6 <SelfTest+0x140>
    19c4:	9f cf       	rjmp	.-194    	; 0x1904 <SelfTest+0x7e>
    19c6:	c2 30       	cpi	r28, 0x02	; 2
    19c8:	11 f0       	breq	.+4      	; 0x19ce <SelfTest+0x148>
        Display_UseOldColor();          /* use old color */
        #endif
      Display_Space();
      #endif

      DisplayFlag = 1;                  /* display values by default */
    19ca:	81 e0       	ldi	r24, 0x01	; 1
    19cc:	b0 cf       	rjmp	.-160    	; 0x192e <SelfTest+0xa8>
        case 2:     /* compare Rl resistors (probes still shorted) */
          #ifdef UI_TEST_PAGEMODE
          if (Flag == 1)                     /* first run */
          {
          #endif
          Display_EEString_Space(Rl_str);    /* display: +Rl- */
    19ce:	84 e6       	ldi	r24, 0x64	; 100
    19d0:	91 e0       	ldi	r25, 0x01	; 1
    19d2:	0e 94 33 11 	call	0x2266	; 0x2266 <Display_EEString_Space>
          Display_EEString(ProbeComb_str);   /* display: 12 13 23 */
    19d6:	86 e5       	ldi	r24, 0x56	; 86
    19d8:	91 e0       	ldi	r25, 0x01	; 1
    19da:	0e 94 0f 11 	call	0x221e	; 0x221e <Display_EEString>

          /* set up a voltage divider using two Rl */
          /* get offset by substracting theoretical voltage of voltage divider */

          /* voltage of voltage divider (in mV) */
          Temp = ((int32_t)Cfg.Vcc * (R_MCU_LOW/10 + R_LOW)) / (R_MCU_LOW/10 + R_LOW + R_LOW + R_MCU_HIGH/10);
    19de:	20 91 8e 01 	lds	r18, 0x018E	; 0x80018e <Cfg+0x8>
    19e2:	30 91 8f 01 	lds	r19, 0x018F	; 0x80018f <Cfg+0x9>
    19e6:	ac eb       	ldi	r26, 0xBC	; 188
    19e8:	b2 e0       	ldi	r27, 0x02	; 2
    19ea:	0e 94 4b 2d 	call	0x5a96	; 0x5a96 <__umulhisi3>
    19ee:	a3 01       	movw	r20, r6
    19f0:	92 01       	movw	r18, r4
    19f2:	0e 94 26 2d 	call	0x5a4c	; 0x5a4c <__divmodsi4>
    19f6:	49 01       	movw	r8, r18
    19f8:	5a 01       	movw	r10, r20

          /* TP3: Gnd -- Rl -- probe-2 -- probe-1 -- Rl -- Vcc */
          R_PORT = (1 << R_RL_1);
    19fa:	84 e0       	ldi	r24, 0x04	; 4
    19fc:	8b b9       	out	0x0b, r24	; 11
          R_DDR = (1 << R_RL_1) | (1 << R_RL_2);
    19fe:	84 e1       	ldi	r24, 0x14	; 20
    1a00:	8a b9       	out	0x0a, r24	; 10
          Val3 = ReadU_20ms(TP3);
    1a02:	82 e0       	ldi	r24, 0x02	; 2
    1a04:	0e 94 ca 0d 	call	0x1b94	; 0x1b94 <ReadU_20ms>
          Val3 -= Temp;
    1a08:	6c 01       	movw	r12, r24
    1a0a:	c8 18       	sub	r12, r8
    1a0c:	d9 08       	sbc	r13, r9

          /* TP2: Gnd -- Rl -- probe-3 -- probe-1 -- Rl -- Vcc */
          R_DDR = (1 << R_RL_1) | (1 << R_RL_3);
    1a0e:	84 e4       	ldi	r24, 0x44	; 68
    1a10:	8a b9       	out	0x0a, r24	; 10
          Val2 = ReadU_20ms(TP2);
    1a12:	81 e0       	ldi	r24, 0x01	; 1
    1a14:	0e 94 ca 0d 	call	0x1b94	; 0x1b94 <ReadU_20ms>
          Val2 -= Temp;
    1a18:	7c 01       	movw	r14, r24
    1a1a:	e8 18       	sub	r14, r8
    1a1c:	f9 08       	sbc	r15, r9

          /* TP1: Gnd -- Rl -- probe-3 -- probe-2 -- Rl -- Vcc */
          R_PORT = (1 << R_RL_2);
    1a1e:	80 e1       	ldi	r24, 0x10	; 16
    1a20:	8b b9       	out	0x0b, r24	; 11
          R_DDR = (1 << R_RL_2) | (1 << R_RL_3);
    1a22:	80 e5       	ldi	r24, 0x50	; 80
    1a24:	8a b9       	out	0x0a, r24	; 10
          Val1 = ReadU_20ms(TP1);
    1a26:	80 e0       	ldi	r24, 0x00	; 0
    1a28:	0e 94 ca 0d 	call	0x1b94	; 0x1b94 <ReadU_20ms>
          Val1 -= Temp;
    1a2c:	8c 01       	movw	r16, r24
    1a2e:	08 19       	sub	r16, r8
    1a30:	19 09       	sbc	r17, r9
    1a32:	cb cf       	rjmp	.-106    	; 0x19ca <SelfTest+0x144>
        case 3:     /* compare Rh resistors (probes still shorted) */
          #ifdef UI_TEST_PAGEMODE
          if (Flag == 1)                     /* first run */
          {
          #endif
          Display_EEString_Space(Rh_str);    /* display: +Rh- */
    1a34:	8f e5       	ldi	r24, 0x5F	; 95
    1a36:	91 e0       	ldi	r25, 0x01	; 1
    1a38:	0e 94 33 11 	call	0x2266	; 0x2266 <Display_EEString_Space>
          Display_EEString(ProbeComb_str);   /* display: 12 13 23 */
    1a3c:	86 e5       	ldi	r24, 0x56	; 86
    1a3e:	91 e0       	ldi	r25, 0x01	; 1
    1a40:	0e 94 0f 11 	call	0x221e	; 0x221e <Display_EEString>

          /* set up a voltage divider using two Rh */
          /* get offset by substracting theoretical voltage of voltage divider */

          /* voltage of voltage divider (ignore RiL and RiH) */
          Temp = Cfg.Vcc / 2;
    1a44:	00 91 8e 01 	lds	r16, 0x018E	; 0x80018e <Cfg+0x8>
    1a48:	10 91 8f 01 	lds	r17, 0x018F	; 0x80018f <Cfg+0x9>
    1a4c:	16 95       	lsr	r17
    1a4e:	07 95       	ror	r16

          /* TP3: Gnd -- Rh -- probe-2 -- probe-1 -- Rh -- Vcc */
          R_PORT = (1 << R_RH_1);
    1a50:	2b b8       	out	0x0b, r2	; 11
          R_DDR = (1 << R_RH_1) | (1 << R_RH_2);
    1a52:	88 e2       	ldi	r24, 0x28	; 40
    1a54:	8a b9       	out	0x0a, r24	; 10
          Val3 = ReadU_20ms(TP3);
    1a56:	82 e0       	ldi	r24, 0x02	; 2
    1a58:	0e 94 ca 0d 	call	0x1b94	; 0x1b94 <ReadU_20ms>
          Val3 -= Temp;
    1a5c:	6c 01       	movw	r12, r24
    1a5e:	c0 1a       	sub	r12, r16
    1a60:	d1 0a       	sbc	r13, r17

          /* TP2: Gnd -- Rh -- probe-3 -- probe-1 -- Rh -- Vcc */
          R_DDR = (1 << R_RH_1) | (1 << R_RH_3);
    1a62:	88 e8       	ldi	r24, 0x88	; 136
    1a64:	8a b9       	out	0x0a, r24	; 10
          Val2 = ReadU_20ms(TP2);
    1a66:	81 e0       	ldi	r24, 0x01	; 1
    1a68:	0e 94 ca 0d 	call	0x1b94	; 0x1b94 <ReadU_20ms>
          Val2 -= Temp;
    1a6c:	7c 01       	movw	r14, r24
    1a6e:	e0 1a       	sub	r14, r16
    1a70:	f1 0a       	sbc	r15, r17

          /* TP1: Gnd -- Rh -- probe-3 -- probe-2 -- Rh -- Vcc */
          R_PORT = (1 << R_RH_2);
    1a72:	3b b8       	out	0x0b, r3	; 11
          R_DDR = (1 << R_RH_2) | (1 << R_RH_3);
    1a74:	80 ea       	ldi	r24, 0xA0	; 160
    1a76:	8a b9       	out	0x0a, r24	; 10
          Val1 = ReadU_20ms(TP1);
    1a78:	80 e0       	ldi	r24, 0x00	; 0
    1a7a:	0e 94 ca 0d 	call	0x1b94	; 0x1b94 <ReadU_20ms>
          Val1 -= Temp;
    1a7e:	80 1b       	sub	r24, r16
    1a80:	91 0b       	sbc	r25, r17
    1a82:	8c 01       	movw	r16, r24
    1a84:	a2 cf       	rjmp	.-188    	; 0x19ca <SelfTest+0x144>

          break;

        case 4:     /* un-short probes */
          ShortCircuit(0);         /* make sure probes are not shorted */
    1a86:	80 e0       	ldi	r24, 0x00	; 0
    1a88:	0e 94 4b 07 	call	0xe96	; 0xe96 <ShortCircuit>
          Flag = 100;              /* skip test */
          DisplayFlag = 0;         /* don't display any result */
    1a8c:	80 e0       	ldi	r24, 0x00	; 0

          break;

        case 4:     /* un-short probes */
          ShortCircuit(0);         /* make sure probes are not shorted */
          Flag = 100;              /* skip test */
    1a8e:	d4 e6       	ldi	r29, 0x64	; 100
          DisplayFlag = 0;         /* don't display any result */
          break;
    1a90:	4e cf       	rjmp	.-356    	; 0x192e <SelfTest+0xa8>

        case 5:     /* leakage check: probes pulled down */
          #ifdef UI_TEST_PAGEMODE
          if (Flag == 1)                     /* first run */
          #endif
          Display_EEString(RhLow_str);       /* display: Rh- */
    1a92:	85 e7       	ldi	r24, 0x75	; 117
    1a94:	91 e0       	ldi	r25, 0x01	; 1
    1a96:	0e 94 0f 11 	call	0x221e	; 0x221e <Display_EEString>

          /* pull down probe via Rh and get voltage */
          /* voltage expected to be near zero */

          /* TP1: Gnd -- Rh -- probe-1 */
          R_PORT = 0;
    1a9a:	1b b8       	out	0x0b, r1	; 11
          R_DDR = (1 << R_RH_1);
    1a9c:	2a b8       	out	0x0a, r2	; 10
          Val1 = ReadU_20ms(TP1);
    1a9e:	80 e0       	ldi	r24, 0x00	; 0
    1aa0:	0e 94 ca 0d 	call	0x1b94	; 0x1b94 <ReadU_20ms>
    1aa4:	8c 01       	movw	r16, r24

          /* TP2: Gnd -- Rh -- probe-2 */
          R_DDR = (1 << R_RH_2);
    1aa6:	3a b8       	out	0x0a, r3	; 10
          Val2 = ReadU_20ms(TP2);
    1aa8:	81 e0       	ldi	r24, 0x01	; 1
    1aaa:	0e 94 ca 0d 	call	0x1b94	; 0x1b94 <ReadU_20ms>
    1aae:	7c 01       	movw	r14, r24

          /* TP3: Gnd -- Rh -- probe-3 */
          R_DDR = (1 << R_RH_3);
    1ab0:	80 e8       	ldi	r24, 0x80	; 128
          R_DDR = (1 << R_RH_2);
          Val2 = ReadU_20ms(TP2);

          /* TP3: probe-3 -- Rh -- Vcc */
          R_PORT = (1 << R_RH_3);
          R_DDR = (1 << R_RH_3);
    1ab2:	8a b9       	out	0x0a, r24	; 10
          Val3 = ReadU_20ms(TP3);
    1ab4:	82 e0       	ldi	r24, 0x02	; 2
    1ab6:	0e 94 ca 0d 	call	0x1b94	; 0x1b94 <ReadU_20ms>
    1aba:	6c 01       	movw	r12, r24
    1abc:	86 cf       	rjmp	.-244    	; 0x19ca <SelfTest+0x144>

        /* short press -> next test / long press -> end selftest */
        if (DisplayFlag > KEY_TIMEOUT)
        {
          Flag = 100;                   /* skip current test anyway */
          if (DisplayFlag == KEY_LONG) Test = 100;  /* also skip selftest */
    1abe:	c4 e6       	ldi	r28, 0x64	; 100
    1ac0:	67 cf       	rjmp	.-306    	; 0x1990 <SelfTest+0x10a>

00001ac2 <ReadU>:
 *    - ATmega640/1280/2560: register bits corresponding with MUX0-4
 *      (todo: add MUX5 to support also ADC8-15)
 */

uint16_t ReadU(uint8_t Channel)
{
    1ac2:	cf 93       	push	r28
    1ac4:	df 93       	push	r29
    ADCSRB &= ~(1 << MUX5);        /* clear MUX5 */
  }
  #endif

  /* prepare bitfield for register: start with AVcc as voltage reference */
  Channel &= ADC_CHAN_MASK;        /* filter reg bits for MUX channel */
    1ac6:	8f 70       	andi	r24, 0x0F	; 15
  Channel |= ADC_REF_VCC;          /* add bits for voltage reference: AVcc */
    1ac8:	c8 2f       	mov	r28, r24
    1aca:	c0 64       	ori	r28, 0x40	; 64

sample:

  ADMUX = Channel;                 /* set input channel and U reference */
    1acc:	c0 93 7c 00 	sts	0x007C, r28	; 0x80007c <__TEXT_REGION_LENGTH__+0x7f807c>
   *  - run a dummy conversion after change (recommended by datasheet)
   *  - It seems that we have to run a dummy conversion also after the
   *    ADC hasn't run for a while. So let's do one anyway.
   */

  Ref = Channel & ADC_REF_MASK;    /* get register bits for voltage reference */
    1ad0:	dc 2f       	mov	r29, r28
    1ad2:	d0 7c       	andi	r29, 0xC0	; 192
  if (Ref != Cfg.Ref)              /* reference source has changed */
    1ad4:	80 91 8b 01 	lds	r24, 0x018B	; 0x80018b <Cfg+0x5>
    1ad8:	8d 17       	cp	r24, r29
    1ada:	21 f0       	breq	.+8      	; 0x1ae4 <ReadU+0x22>
  {
    /* wait some time for voltage stabilization */
    #ifndef ADC_LARGE_BUFFER_CAP
      /* buffer cap: 1nF or none at all */
      wait100us();                   /* 100 Ás */
    1adc:	0e 94 32 2b 	call	0x5664	; 0x5664 <wait100us>
    /* dummy conversion */
    ADCSRA |= (1 << ADSC);         /* start conversion */
    while (ADCSRA & (1 << ADSC));  /* wait until conversion is done */
    #endif

    Cfg.Ref = Ref;                 /* update reference source */
    1ae0:	d0 93 8b 01 	sts	0x018B, r29	; 0x80018b <Cfg+0x5>
  }

  /* perform dummy conversion anyway */
  ADCSRA |= (1 << ADSC);         /* start conversion */
    1ae4:	80 91 7a 00 	lds	r24, 0x007A	; 0x80007a <__TEXT_REGION_LENGTH__+0x7f807a>
    1ae8:	80 64       	ori	r24, 0x40	; 64
    1aea:	80 93 7a 00 	sts	0x007A, r24	; 0x80007a <__TEXT_REGION_LENGTH__+0x7f807a>
  while (ADCSRA & (1 << ADSC));  /* wait until conversion is done */
    1aee:	80 91 7a 00 	lds	r24, 0x007A	; 0x80007a <__TEXT_REGION_LENGTH__+0x7f807a>
    1af2:	86 fd       	sbrc	r24, 6
    1af4:	fc cf       	rjmp	.-8      	; 0x1aee <ReadU+0x2c>

  /*
   *  sample ADC readings
   */

  Value = 0UL;                     /* reset sampling variable */
    1af6:	20 e0       	ldi	r18, 0x00	; 0
    1af8:	30 e0       	ldi	r19, 0x00	; 0
    1afa:	a9 01       	movw	r20, r18
  Counter = 0;                     /* reset counter */
    1afc:	80 e0       	ldi	r24, 0x00	; 0

  while (Counter < Cfg.Samples)    /* take samples */
    1afe:	e0 91 89 01 	lds	r30, 0x0189	; 0x800189 <Cfg+0x3>
    1b02:	8e 17       	cp	r24, r30
    1b04:	e8 f0       	brcs	.+58     	; 0x1b40 <ReadU+0x7e>
   */

  /* get voltage of reference used */
  if (Ref == ADC_REF_BANDGAP)      /* bandgap reference */
  {
    U = Cfg.Bandgap;                 /* voltage of bandgap reference */
    1b06:	a0 91 8c 01 	lds	r26, 0x018C	; 0x80018c <Cfg+0x6>
    1b0a:	b0 91 8d 01 	lds	r27, 0x018D	; 0x80018d <Cfg+0x7>
   *  convert ADC reading to voltage
   *  - single sample: U = ADC reading * U_ref / 1024
   */

  /* get voltage of reference used */
  if (Ref == ADC_REF_BANDGAP)      /* bandgap reference */
    1b0e:	d0 3c       	cpi	r29, 0xC0	; 192
    1b10:	21 f0       	breq	.+8      	; 0x1b1a <ReadU+0x58>
  {
    U = Cfg.Bandgap;                 /* voltage of bandgap reference */
  }
  else                             /* Vcc as reference */
  {
    U = Cfg.Vcc;                     /* voltage of Vcc */   
    1b12:	a0 91 8e 01 	lds	r26, 0x018E	; 0x80018e <Cfg+0x8>
    1b16:	b0 91 8f 01 	lds	r27, 0x018F	; 0x80018f <Cfg+0x9>
  }

  /* convert to voltage; */
  Value *= U;                      /* ADC readings * U_ref */
    1b1a:	0e 94 61 2d 	call	0x5ac2	; 0x5ac2 <__muluhisi3>
//  Value += 511 * Cfg.Samples;      /* automagic rounding */
  Value /= 1024;                   /* / 1024 for 10-bit ADC */
    1b1e:	2a e0       	ldi	r18, 0x0A	; 10
    1b20:	96 95       	lsr	r25
    1b22:	87 95       	ror	r24
    1b24:	77 95       	ror	r23
    1b26:	67 95       	ror	r22
    1b28:	2a 95       	dec	r18
    1b2a:	d1 f7       	brne	.-12     	; 0x1b20 <ReadU+0x5e>

  /* de-sample to get average voltage */
  Value /= Cfg.Samples;
    1b2c:	2e 2f       	mov	r18, r30
    1b2e:	30 e0       	ldi	r19, 0x00	; 0
    1b30:	50 e0       	ldi	r21, 0x00	; 0
    1b32:	40 e0       	ldi	r20, 0x00	; 0
    1b34:	0e 94 04 2d 	call	0x5a08	; 0x5a08 <__udivmodsi4>
  U = (uint16_t)Value;

// todo: do we need a sanity check for U <= Vcc?

  return U; 
}
    1b38:	c9 01       	movw	r24, r18
    1b3a:	df 91       	pop	r29
    1b3c:	cf 91       	pop	r28
    1b3e:	08 95       	ret
  Value = 0UL;                     /* reset sampling variable */
  Counter = 0;                     /* reset counter */

  while (Counter < Cfg.Samples)    /* take samples */
  {
    ADCSRA |= (1 << ADSC);         /* start conversion */
    1b40:	90 91 7a 00 	lds	r25, 0x007A	; 0x80007a <__TEXT_REGION_LENGTH__+0x7f807a>
    1b44:	90 64       	ori	r25, 0x40	; 64
    1b46:	90 93 7a 00 	sts	0x007A, r25	; 0x80007a <__TEXT_REGION_LENGTH__+0x7f807a>
    while (ADCSRA & (1 << ADSC));  /* wait until conversion is done */
    1b4a:	90 91 7a 00 	lds	r25, 0x007A	; 0x80007a <__TEXT_REGION_LENGTH__+0x7f807a>
    1b4e:	96 fd       	sbrc	r25, 6
    1b50:	fc cf       	rjmp	.-8      	; 0x1b4a <ReadU+0x88>

    Value += ADCW;                 /* add ADC reading */
    1b52:	60 91 78 00 	lds	r22, 0x0078	; 0x800078 <__TEXT_REGION_LENGTH__+0x7f8078>
    1b56:	70 91 79 00 	lds	r23, 0x0079	; 0x800079 <__TEXT_REGION_LENGTH__+0x7f8079>
    1b5a:	26 0f       	add	r18, r22
    1b5c:	37 1f       	adc	r19, r23
    1b5e:	41 1d       	adc	r20, r1
    1b60:	51 1d       	adc	r21, r1

    /* auto-switch voltage reference for low readings */
    if (Counter == 4)                   /* 5 samples */
    1b62:	84 30       	cpi	r24, 0x04	; 4
    1b64:	61 f4       	brne	.+24     	; 0x1b7e <ReadU+0xbc>
    {
      if ((uint16_t)Value < 1024)       /* < 1 V (5 samples -> 5 V) */
    1b66:	21 15       	cp	r18, r1
    1b68:	94 e0       	ldi	r25, 0x04	; 4
    1b6a:	39 07       	cpc	r19, r25
    1b6c:	40 f4       	brcc	.+16     	; 0x1b7e <ReadU+0xbc>
      {
        if (Ref != ADC_REF_BANDGAP)     /* bandgap ref not selected */
    1b6e:	d0 3c       	cpi	r29, 0xC0	; 192
    1b70:	31 f0       	breq	.+12     	; 0x1b7e <ReadU+0xbc>
        {
          if (Cfg.AutoScale == 1)       /* autoscaling enabled */
    1b72:	90 91 8a 01 	lds	r25, 0x018A	; 0x80018a <Cfg+0x4>
    1b76:	91 30       	cpi	r25, 0x01	; 1
    1b78:	11 f4       	brne	.+4      	; 0x1b7e <ReadU+0xbc>
          {
            Channel &= ~ADC_REF_MASK;     /* clear reference bits */
            Channel |= ADC_REF_BANDGAP;   /* select bandgap reference */
    1b7a:	c0 6c       	ori	r28, 0xC0	; 192

            goto sample;                /* re-run sampling */
    1b7c:	a7 cf       	rjmp	.-178    	; 0x1acc <ReadU+0xa>
          }
        }
      }
    }

    Counter++;                     /* another sample done */
    1b7e:	8f 5f       	subi	r24, 0xFF	; 255
    1b80:	be cf       	rjmp	.-132    	; 0x1afe <ReadU+0x3c>

00001b82 <ReadU_5ms>:
 *  wait 5ms and then read ADC
 *  - same as ReadU()
 */

uint16_t ReadU_5ms(uint8_t Channel)
{
    1b82:	cf 93       	push	r28
    1b84:	c8 2f       	mov	r28, r24
   wait5ms();       /* wait 5ms */
    1b86:	0e 94 29 2b 	call	0x5652	; 0x5652 <wait5ms>

   return (ReadU(Channel));
    1b8a:	8c 2f       	mov	r24, r28
    1b8c:	0e 94 61 0d 	call	0x1ac2	; 0x1ac2 <ReadU>
}
    1b90:	cf 91       	pop	r28
    1b92:	08 95       	ret

00001b94 <ReadU_20ms>:
 *  wait 20ms and then read ADC
 *  - same as ReadU()
 */

uint16_t ReadU_20ms(uint8_t Channel)
{
    1b94:	cf 93       	push	r28
    1b96:	c8 2f       	mov	r28, r24
  wait20ms();       /* wait 20ms */
    1b98:	0e 94 27 2b 	call	0x564e	; 0x564e <wait20ms>

  return (ReadU(Channel));
    1b9c:	8c 2f       	mov	r24, r28
    1b9e:	0e 94 61 0d 	call	0x1ac2	; 0x1ac2 <ReadU>
}
    1ba2:	cf 91       	pop	r28
    1ba4:	08 95       	ret

00001ba6 <UpdateProbes>:
 *  - Probe2: pin ID [0-2], mostly low level pin
 *  - Probe3: pin ID [0-2], mostly switch/gate pin
 */

void UpdateProbes(uint8_t Probe1, uint8_t Probe2, uint8_t Probe3)
{
    1ba6:	b0 e0       	ldi	r27, 0x00	; 0
    1ba8:	a0 e0       	ldi	r26, 0x00	; 0
    1baa:	e9 ed       	ldi	r30, 0xD9	; 217
    1bac:	fd e0       	ldi	r31, 0x0D	; 13
    1bae:	0c 94 76 2d 	jmp	0x5aec	; 0x5aec <__prologue_saves__+0x14>
    1bb2:	e6 2e       	mov	r14, r22
    1bb4:	04 2f       	mov	r16, r20
  /* set probe IDs */
  Probes.ID_1 = Probe1;
    1bb6:	c5 eb       	ldi	r28, 0xB5	; 181
    1bb8:	d1 e0       	ldi	r29, 0x01	; 1
    1bba:	88 83       	st	Y, r24
  Probes.ID_2 = Probe2;
    1bbc:	69 83       	std	Y+1, r22	; 0x01
  Probes.ID_3 = Probe3;
    1bbe:	4a 83       	std	Y+2, r20	; 0x02
    1bc0:	c8 2e       	mov	r12, r24
    1bc2:	d1 2c       	mov	r13, r1

  /* set register bits for probe resistors based on ID */
  Probes.Rl_1 = DATA_read_byte(&Rl_table[Probe1]);
    1bc4:	c6 01       	movw	r24, r12
    1bc6:	87 5f       	subi	r24, 0xF7	; 247
    1bc8:	9f 4f       	sbci	r25, 0xFF	; 255
    1bca:	0e 94 e9 2d 	call	0x5bd2	; 0x5bd2 <eeprom_read_byte>
    1bce:	8e 83       	std	Y+6, r24	; 0x06
    1bd0:	f1 2c       	mov	r15, r1
  Probes.Rl_2 = DATA_read_byte(&Rl_table[Probe2]);
    1bd2:	c7 01       	movw	r24, r14
    1bd4:	87 5f       	subi	r24, 0xF7	; 247
    1bd6:	9f 4f       	sbci	r25, 0xFF	; 255
    1bd8:	0e 94 e9 2d 	call	0x5bd2	; 0x5bd2 <eeprom_read_byte>
    1bdc:	8f 83       	std	Y+7, r24	; 0x07
    1bde:	10 e0       	ldi	r17, 0x00	; 0
  Probes.Rl_3 = DATA_read_byte(&Rl_table[Probe3]);
    1be0:	c8 01       	movw	r24, r16
    1be2:	87 5f       	subi	r24, 0xF7	; 247
    1be4:	9f 4f       	sbci	r25, 0xFF	; 255
    1be6:	0e 94 e9 2d 	call	0x5bd2	; 0x5bd2 <eeprom_read_byte>
    1bea:	88 87       	std	Y+8, r24	; 0x08
  Probes.Rh_1 = DATA_read_byte(&Rh_table[Probe1]);
    1bec:	c6 01       	movw	r24, r12
    1bee:	8a 5f       	subi	r24, 0xFA	; 250
    1bf0:	9f 4f       	sbci	r25, 0xFF	; 255
    1bf2:	0e 94 e9 2d 	call	0x5bd2	; 0x5bd2 <eeprom_read_byte>
    1bf6:	89 87       	std	Y+9, r24	; 0x09
  Probes.Rh_2 = DATA_read_byte(&Rh_table[Probe2]);
    1bf8:	c7 01       	movw	r24, r14
    1bfa:	8a 5f       	subi	r24, 0xFA	; 250
    1bfc:	9f 4f       	sbci	r25, 0xFF	; 255
    1bfe:	0e 94 e9 2d 	call	0x5bd2	; 0x5bd2 <eeprom_read_byte>
    1c02:	8a 87       	std	Y+10, r24	; 0x0a
  Probes.Rh_3 = DATA_read_byte(&Rh_table[Probe3]);
    1c04:	c8 01       	movw	r24, r16
    1c06:	8a 5f       	subi	r24, 0xFA	; 250
    1c08:	9f 4f       	sbci	r25, 0xFF	; 255
    1c0a:	0e 94 e9 2d 	call	0x5bd2	; 0x5bd2 <eeprom_read_byte>
    1c0e:	8b 87       	std	Y+11, r24	; 0x0b

  /* set register bits for ADC port pins based on ID */ 
  Probes.Pin_1 = DATA_read_byte(&Pin_table[Probe1]);
    1c10:	c6 01       	movw	r24, r12
    1c12:	8d 5f       	subi	r24, 0xFD	; 253
    1c14:	9f 4f       	sbci	r25, 0xFF	; 255
    1c16:	0e 94 e9 2d 	call	0x5bd2	; 0x5bd2 <eeprom_read_byte>
    1c1a:	8c 87       	std	Y+12, r24	; 0x0c
  Probes.Pin_2 = DATA_read_byte(&Pin_table[Probe2]);
    1c1c:	c7 01       	movw	r24, r14
    1c1e:	8d 5f       	subi	r24, 0xFD	; 253
    1c20:	9f 4f       	sbci	r25, 0xFF	; 255
    1c22:	0e 94 e9 2d 	call	0x5bd2	; 0x5bd2 <eeprom_read_byte>
    1c26:	8d 87       	std	Y+13, r24	; 0x0d
  Probes.Pin_3 = DATA_read_byte(&Pin_table[Probe3]);
    1c28:	c8 01       	movw	r24, r16
    1c2a:	8d 5f       	subi	r24, 0xFD	; 253
    1c2c:	9f 4f       	sbci	r25, 0xFF	; 255
    1c2e:	0e 94 e9 2d 	call	0x5bd2	; 0x5bd2 <eeprom_read_byte>
    1c32:	8e 87       	std	Y+14, r24	; 0x0e

  /* set register bits for ADC MUX input channels based on ID */
  Probes.Ch_1 = DATA_read_byte(&Channel_table[Probe1]);
    1c34:	c6 01       	movw	r24, r12
    1c36:	80 50       	subi	r24, 0x00	; 0
    1c38:	90 40       	sbci	r25, 0x00	; 0
    1c3a:	0e 94 e9 2d 	call	0x5bd2	; 0x5bd2 <eeprom_read_byte>
    1c3e:	8f 87       	std	Y+15, r24	; 0x0f
  Probes.Ch_2 = DATA_read_byte(&Channel_table[Probe2]);
    1c40:	c7 01       	movw	r24, r14
    1c42:	80 50       	subi	r24, 0x00	; 0
    1c44:	90 40       	sbci	r25, 0x00	; 0
    1c46:	0e 94 e9 2d 	call	0x5bd2	; 0x5bd2 <eeprom_read_byte>
    1c4a:	88 8b       	std	Y+16, r24	; 0x10
  Probes.Ch_3 = DATA_read_byte(&Channel_table[Probe3]);
    1c4c:	c8 01       	movw	r24, r16
    1c4e:	80 50       	subi	r24, 0x00	; 0
    1c50:	90 40       	sbci	r25, 0x00	; 0
    1c52:	0e 94 e9 2d 	call	0x5bd2	; 0x5bd2 <eeprom_read_byte>
    1c56:	89 8b       	std	Y+17, r24	; 0x11
}
    1c58:	cd b7       	in	r28, 0x3d	; 61
    1c5a:	de b7       	in	r29, 0x3e	; 62
    1c5c:	e8 e0       	ldi	r30, 0x08	; 8
    1c5e:	0c 94 92 2d 	jmp	0x5b24	; 0x5b24 <__epilogue_restores__+0x14>

00001c62 <UpdateProbes2>:
   *    probes #2 & #3: 1 + 2 = 3  -> probe #1: 0
   *  - third probe = 3 - (probe ID #1 + probe ID #2)
   */

  Probe3 = 3;                 /* = 3 */
  Probe3 -= Probe1;           /* - ID #1 */
    1c62:	43 e0       	ldi	r20, 0x03	; 3
    1c64:	48 1b       	sub	r20, r24
  Probe3 -= Probe2;           /* - ID #2 */
    1c66:	46 1b       	sub	r20, r22

  /* and now update probes */
  UpdateProbes(Probe1, Probe2, Probe3);
    1c68:	0e 94 d3 0d 	call	0x1ba6	; 0x1ba6 <UpdateProbes>
}
    1c6c:	08 95       	ret

00001c6e <RestoreProbes>:
 */

void RestoreProbes(void)
{
  /* call probe update for saved IDs */
  UpdateProbes(Probes.ID2_1, Probes.ID2_2, Probes.ID2_3);
    1c6e:	e5 eb       	ldi	r30, 0xB5	; 181
    1c70:	f1 e0       	ldi	r31, 0x01	; 1
    1c72:	45 81       	ldd	r20, Z+5	; 0x05
    1c74:	64 81       	ldd	r22, Z+4	; 0x04
    1c76:	83 81       	ldd	r24, Z+3	; 0x03
    1c78:	0e 94 d3 0d 	call	0x1ba6	; 0x1ba6 <UpdateProbes>
}
    1c7c:	08 95       	ret

00001c7e <BackupProbes>:
 */

void BackupProbes(void)
{
  /* copy current probe IDs to backup set */
  Probes.ID2_1 = Probes.ID_1;
    1c7e:	e5 eb       	ldi	r30, 0xB5	; 181
    1c80:	f1 e0       	ldi	r31, 0x01	; 1
    1c82:	80 81       	ld	r24, Z
    1c84:	83 83       	std	Z+3, r24	; 0x03
  Probes.ID2_2 = Probes.ID_2;
    1c86:	81 81       	ldd	r24, Z+1	; 0x01
    1c88:	84 83       	std	Z+4, r24	; 0x04
  Probes.ID2_3 = Probes.ID_3;
    1c8a:	82 81       	ldd	r24, Z+2	; 0x02
    1c8c:	85 83       	std	Z+5, r24	; 0x05
}
    1c8e:	08 95       	ret

00001c90 <ShortedPair>:
 *  - 0 if not shorted
 *  - 1 if shorted
 */

uint8_t ShortedPair(uint8_t Probe1, uint8_t Probe2)
{
    1c90:	cf 93       	push	r28
    1c92:	df 93       	push	r29
  uint16_t          U1;            /* voltage at probe #1 in mV */
  uint16_t          U2;            /* voltage at probe #2 in mV */
  uint16_t          Min;           /* lower threshold */
  uint16_t          Max;           /* upper threshold */

  UpdateProbes2(Probe1, Probe2);        /* update probes */
    1c94:	0e 94 31 0e 	call	0x1c62	; 0x1c62 <UpdateProbes2>
   *  Set up a voltage divider between the two probes:
   *  - Gnd -- Rl -- probe-2 / probe-1 -- Rl -- Vcc
   *  - third probe: HiZ
   */

  ADC_DDR = 0;                          /* set ADC port to HiZ */
    1c98:	17 b8       	out	0x07, r1	; 7
  R_PORT = Probes.Rl_1;                 /* pull up probe-1 via Rl */
    1c9a:	80 91 bb 01 	lds	r24, 0x01BB	; 0x8001bb <Probes+0x6>
    1c9e:	8b b9       	out	0x0b, r24	; 11
  R_DDR = Probes.Rl_1 | Probes.Rl_2;    /* and pull down probe-2 via Rl */
    1ca0:	90 91 bc 01 	lds	r25, 0x01BC	; 0x8001bc <Probes+0x7>
    1ca4:	89 2b       	or	r24, r25
    1ca6:	8a b9       	out	0x0a, r24	; 10

  /* read voltages */
  U1 = ReadU_5ms(Probes.Ch_1);
    1ca8:	80 91 c4 01 	lds	r24, 0x01C4	; 0x8001c4 <Probes+0xf>
    1cac:	0e 94 c1 0d 	call	0x1b82	; 0x1b82 <ReadU_5ms>
    1cb0:	ec 01       	movw	r28, r24
  U2 = ReadU(Probes.Ch_2);
    1cb2:	80 91 c5 01 	lds	r24, 0x01C5	; 0x8001c5 <Probes+0x10>
    1cb6:	0e 94 61 0d 	call	0x1ac2	; 0x1ac2 <ReadU>
    1cba:	ac 01       	movw	r20, r24
  /*
   *  We expect both probe voltages to be about the same and
   *  to be half of Vcc (allowed difference +/- 30mV).
   */

  Min = (Cfg.Vcc / 2) - 30;        /* lower voltage */
    1cbc:	20 91 8e 01 	lds	r18, 0x018E	; 0x80018e <Cfg+0x8>
    1cc0:	30 91 8f 01 	lds	r19, 0x018F	; 0x80018f <Cfg+0x9>
    1cc4:	36 95       	lsr	r19
    1cc6:	27 95       	ror	r18
    1cc8:	c9 01       	movw	r24, r18
    1cca:	4e 97       	sbiw	r24, 0x1e	; 30
  Max = (Cfg.Vcc / 2) + 30;        /* upper voltage */

  if ((U1 > Min) && (U1 < Max))    /* U1 within window */
    1ccc:	8c 17       	cp	r24, r28
    1cce:	9d 07       	cpc	r25, r29
    1cd0:	60 f4       	brcc	.+24     	; 0x1cea <ShortedPair+0x5a>
   *  We expect both probe voltages to be about the same and
   *  to be half of Vcc (allowed difference +/- 30mV).
   */

  Min = (Cfg.Vcc / 2) - 30;        /* lower voltage */
  Max = (Cfg.Vcc / 2) + 30;        /* upper voltage */
    1cd2:	22 5e       	subi	r18, 0xE2	; 226
    1cd4:	3f 4f       	sbci	r19, 0xFF	; 255

  if ((U1 > Min) && (U1 < Max))    /* U1 within window */
    1cd6:	c2 17       	cp	r28, r18
    1cd8:	d3 07       	cpc	r29, r19
    1cda:	38 f4       	brcc	.+14     	; 0x1cea <ShortedPair+0x5a>
  { 
    if ((U2 > Min) && (U2 < Max))  /* U2 within window */
    1cdc:	84 17       	cp	r24, r20
    1cde:	95 07       	cpc	r25, r21
    1ce0:	20 f4       	brcc	.+8      	; 0x1cea <ShortedPair+0x5a>
    1ce2:	81 e0       	ldi	r24, 0x01	; 1
    1ce4:	42 17       	cp	r20, r18
    1ce6:	53 07       	cpc	r21, r19
    1ce8:	08 f0       	brcs	.+2      	; 0x1cec <ShortedPair+0x5c>
 *  - 1 if shorted
 */

uint8_t ShortedPair(uint8_t Probe1, uint8_t Probe2)
{
  uint8_t           Flag = 0;      /* return value */
    1cea:	80 e0       	ldi	r24, 0x00	; 0
    {
      Flag = 1;                    /* about the same */
    }    
  }

  R_DDR = 0;             /* reset port */
    1cec:	1a b8       	out	0x0a, r1	; 10

  return Flag;
}
    1cee:	df 91       	pop	r29
    1cf0:	cf 91       	pop	r28
    1cf2:	08 95       	ret

00001cf4 <ShortedProbes>:
 *  - number of short-circuited probe pairs
 *    (0 = none, 3 = all)
 */

uint8_t ShortedProbes(void)
{
    1cf4:	cf 93       	push	r28
  uint8_t           Flag = 0;      /* return value */

  /* check all possible combinations */
  Flag = ShortedPair(PROBE_1, PROBE_2);
    1cf6:	61 e0       	ldi	r22, 0x01	; 1
    1cf8:	80 e0       	ldi	r24, 0x00	; 0
    1cfa:	0e 94 48 0e 	call	0x1c90	; 0x1c90 <ShortedPair>
    1cfe:	c8 2f       	mov	r28, r24
  Flag += ShortedPair(PROBE_1, PROBE_3);
    1d00:	62 e0       	ldi	r22, 0x02	; 2
    1d02:	80 e0       	ldi	r24, 0x00	; 0
    1d04:	0e 94 48 0e 	call	0x1c90	; 0x1c90 <ShortedPair>
    1d08:	c8 0f       	add	r28, r24
  Flag += ShortedPair(PROBE_2, PROBE_3);
    1d0a:	62 e0       	ldi	r22, 0x02	; 2
    1d0c:	81 e0       	ldi	r24, 0x01	; 1
    1d0e:	0e 94 48 0e 	call	0x1c90	; 0x1c90 <ShortedPair>

  return Flag;  
}
    1d12:	8c 0f       	add	r24, r28
    1d14:	cf 91       	pop	r28
    1d16:	08 95       	ret

00001d18 <DischargeCap>:
 *  - Probe1: ID of probe-1
 *  - Probe2: ID of probe-2
 */

void DischargeCap(uint8_t Probe1, uint8_t Probe2)
{
    1d18:	0f 93       	push	r16
    1d1a:	1f 93       	push	r17
    1d1c:	cf 93       	push	r28
    1d1e:	df 93       	push	r29
    1d20:	d8 2f       	mov	r29, r24
    1d22:	c6 2f       	mov	r28, r22
  uint8_t           n;             /* counter */
  uint16_t          U_1;           /* voltage #1 */
  uint16_t          U_2;           /* voltage #2 */

  /* probes: set to safe mode */
  ADC_DDR = 0;
    1d24:	17 b8       	out	0x07, r1	; 7
  ADC_PORT = 0;
    1d26:	18 b8       	out	0x08, r1	; 8
  R_DDR = 0;
    1d28:	1a b8       	out	0x0a, r1	; 10
  R_PORT = 0;
    1d2a:	1b b8       	out	0x0b, r1	; 11

  /*
   *  figure out the positive charged pin
   */

  UpdateProbes2(Probe1, Probe2);        /* update probes */
    1d2c:	0e 94 31 0e 	call	0x1c62	; 0x1c62 <UpdateProbes2>

  /* try probe-1 */ 
  ADC_DDR = Probes.Pin_1;          /* pull down probe-1 directly */
    1d30:	80 91 c1 01 	lds	r24, 0x01C1	; 0x8001c1 <Probes+0xc>
    1d34:	87 b9       	out	0x07, r24	; 7
  U_1 = ReadU(Probes.Ch_2);        /* get voltage at probe-2 */
    1d36:	80 91 c5 01 	lds	r24, 0x01C5	; 0x8001c5 <Probes+0x10>
    1d3a:	0e 94 61 0d 	call	0x1ac2	; 0x1ac2 <ReadU>
    1d3e:	8c 01       	movw	r16, r24

  /* try probe-2 */
  ADC_DDR = Probes.Pin_2;          /* pull down probe-2 directly */
    1d40:	80 91 c2 01 	lds	r24, 0x01C2	; 0x8001c2 <Probes+0xd>
    1d44:	87 b9       	out	0x07, r24	; 7
  U_2 = ReadU(Probes.Ch_1);        /* get voltage at probe-1 */
    1d46:	80 91 c4 01 	lds	r24, 0x01C4	; 0x8001c4 <Probes+0xf>
    1d4a:	0e 94 61 0d 	call	0x1ac2	; 0x1ac2 <ReadU>

  if (U_2 > U_1)                   /* probe-1 is positive */
    1d4e:	08 17       	cp	r16, r24
    1d50:	19 07       	cpc	r17, r25
    1d52:	20 f4       	brcc	.+8      	; 0x1d5c <DischargeCap+0x44>
  {
    /* reverse probes */
    UpdateProbes2(Probe2, Probe1);      /* update probes */
    1d54:	6d 2f       	mov	r22, r29
    1d56:	8c 2f       	mov	r24, r28
    1d58:	0e 94 31 0e 	call	0x1c62	; 0x1c62 <UpdateProbes2>
  /*
   *  discharge cap to voltage below 40mV
   */

  /* discharge positive side via Rl */
  ADC_DDR = Probes.Pin_1;          /* pull down probe-1 directly */
    1d5c:	80 91 c1 01 	lds	r24, 0x01C1	; 0x8001c1 <Probes+0xc>
    1d60:	87 b9       	out	0x07, r24	; 7
  R_DDR = Probes.Rl_2;             /* pull down probe-2 via Rl */
    1d62:	80 91 bc 01 	lds	r24, 0x01BC	; 0x8001bc <Probes+0x7>
    1d66:	8a b9       	out	0x0a, r24	; 10

  n = 1;

  while (n)                        /* processing loop */
    1d68:	c2 e3       	ldi	r28, 0x32	; 50
  {
    U_1 = ReadU(Probes.Ch_2);      /* get voltage at probe-2 */
    1d6a:	80 91 c5 01 	lds	r24, 0x01C5	; 0x8001c5 <Probes+0x10>
    1d6e:	0e 94 61 0d 	call	0x1ac2	; 0x1ac2 <ReadU>
    1d72:	9c 01       	movw	r18, r24

    if (U_1 < 400)                 /* below 400mV */
    1d74:	20 39       	cpi	r18, 0x90	; 144
    1d76:	81 e0       	ldi	r24, 0x01	; 1
    1d78:	38 07       	cpc	r19, r24
    1d7a:	40 f4       	brcc	.+16     	; 0x1d8c <DischargeCap+0x74>
    {
      ADC_DDR |= Probes.Pin_2;     /* also pull down probe-2 directly */
    1d7c:	97 b1       	in	r25, 0x07	; 7
    1d7e:	80 91 c2 01 	lds	r24, 0x01C2	; 0x8001c2 <Probes+0xd>
    1d82:	98 2b       	or	r25, r24
    1d84:	97 b9       	out	0x07, r25	; 7
    }

    if (U_1 < 40)                  /* discharged < 40mV */
    1d86:	28 32       	cpi	r18, 0x28	; 40
    1d88:	31 05       	cpc	r19, r1
    1d8a:	38 f0       	brcs	.+14     	; 0x1d9a <DischargeCap+0x82>
    1d8c:	c1 50       	subi	r28, 0x01	; 1
    }
    else                           /* not discharged yet */
    {
      n++;                         /* another cycle */

      if (n > 50)                  /* timeout (5s) */
    1d8e:	29 f0       	breq	.+10     	; 0x1d9a <DischargeCap+0x82>
      {
        n = 0;                     /* end loop */
      }
      else                         /* keep discharging */
      {
        MilliSleep(100);           /* wait */
    1d90:	84 e6       	ldi	r24, 0x64	; 100
    1d92:	90 e0       	ldi	r25, 0x00	; 0
    1d94:	0e 94 0b 09 	call	0x1216	; 0x1216 <MilliSleep>
    1d98:	e8 cf       	rjmp	.-48     	; 0x1d6a <DischargeCap+0x52>
      }
    }
  }

  /* probes: reset to safe mode */
  ADC_DDR = 0;
    1d9a:	17 b8       	out	0x07, r1	; 7
  R_DDR = 0;
    1d9c:	1a b8       	out	0x0a, r1	; 10
}
    1d9e:	df 91       	pop	r29
    1da0:	cf 91       	pop	r28
    1da2:	1f 91       	pop	r17
    1da4:	0f 91       	pop	r16
    1da6:	08 95       	ret

00001da8 <DischargeProbes>:
 *  - detect batteries
 *  - sometimes large caps are detected as a battery
 */

void DischargeProbes(void)
{
    1da8:	a6 e0       	ldi	r26, 0x06	; 6
    1daa:	b0 e0       	ldi	r27, 0x00	; 0
    1dac:	ea ed       	ldi	r30, 0xDA	; 218
    1dae:	fe e0       	ldi	r31, 0x0E	; 14
    1db0:	0c 94 72 2d 	jmp	0x5ae4	; 0x5ae4 <__prologue_saves__+0xc>
  /*
   *  set probes to a safe discharge mode (pull-down via Rh) 
   */

  /* set ADC port to HiZ input */
  ADC_DDR = 0;
    1db4:	17 b8       	out	0x07, r1	; 7
  ADC_PORT = 0;
    1db6:	18 b8       	out	0x08, r1	; 8

  /* all probe pins: Rh and Rl pull-down */
  R_PORT = 0;
    1db8:	1b b8       	out	0x0b, r1	; 11
  R_DDR = (1 << R_RH_1) | (1 << R_RH_2) | (1 << R_RH_3) |
    1dba:	8c ef       	ldi	r24, 0xFC	; 252
    1dbc:	8a b9       	out	0x0a, r24	; 10
          (1 << R_RL_1) | (1 << R_RL_2) | (1 << R_RL_3);

  /* get current voltages */
  U_old[0] = ReadU(TP1);
    1dbe:	80 e0       	ldi	r24, 0x00	; 0
    1dc0:	0e 94 61 0d 	call	0x1ac2	; 0x1ac2 <ReadU>
    1dc4:	9a 83       	std	Y+2, r25	; 0x02
    1dc6:	89 83       	std	Y+1, r24	; 0x01
  U_old[1] = ReadU(TP2);
    1dc8:	81 e0       	ldi	r24, 0x01	; 1
    1dca:	0e 94 61 0d 	call	0x1ac2	; 0x1ac2 <ReadU>
    1dce:	9c 83       	std	Y+4, r25	; 0x04
    1dd0:	8b 83       	std	Y+3, r24	; 0x03
  U_old[2] = ReadU(TP3);
    1dd2:	82 e0       	ldi	r24, 0x02	; 2
    1dd4:	0e 94 61 0d 	call	0x1ac2	; 0x1ac2 <ReadU>
    1dd8:	9e 83       	std	Y+6, r25	; 0x06
    1dda:	8d 83       	std	Y+5, r24	; 0x05
   */

  /* reset variables */
  Counter = 1;                          /* enter loop */
  ID = 2;                               /* probe #3 */
  Flags = 0;                            /* no probe discharged */
    1ddc:	e1 2c       	mov	r14, r1
   *    simple.
   */

  /* reset variables */
  Counter = 1;                          /* enter loop */
  ID = 2;                               /* probe #3 */
    1dde:	02 e0       	ldi	r16, 0x02	; 2
 */

void DischargeProbes(void)
{
  uint8_t           Counter;            /* loop control */
  uint8_t           Limit = 40;         /* sliding timeout (2s) */
    1de0:	18 e2       	ldi	r17, 0x28	; 40
   *    directly or via resistors. So we dont't use it here to keep things
   *    simple.
   */

  /* reset variables */
  Counter = 1;                          /* enter loop */
    1de2:	ff 24       	eor	r15, r15
    1de4:	f3 94       	inc	r15
      Counter++;                        /* increase no-changes counter */
    }

    if (U_c <= CAP_DISCHARGED)          /* seems to be discharged */
    {
      Flags |= (1 << ID);               /* set flag for probe */
    1de6:	aa 24       	eor	r10, r10
    1de8:	a3 94       	inc	r10
    1dea:	b1 2c       	mov	r11, r1
  Flags = 0;                            /* no probe discharged */

  /* processing loop */
  while (Counter > 0)
  {
    ID++;                               /* next probe */
    1dec:	0f 5f       	subi	r16, 0xFF	; 255
    if (ID > 2) ID = 0;                 /* start with probe #1 again */
    1dee:	03 30       	cpi	r16, 0x03	; 3
    1df0:	09 f4       	brne	.+2      	; 0x1df4 <DischargeProbes+0x4c>
    1df2:	00 e0       	ldi	r16, 0x00	; 0

    if (Flags & (1 << ID))              /* skip discharged probe */
    1df4:	c0 2e       	mov	r12, r16
    1df6:	d1 2c       	mov	r13, r1
    1df8:	8e 2d       	mov	r24, r14
    1dfa:	90 e0       	ldi	r25, 0x00	; 0
    1dfc:	00 2e       	mov	r0, r16
    1dfe:	02 c0       	rjmp	.+4      	; 0x1e04 <DischargeProbes+0x5c>
    1e00:	95 95       	asr	r25
    1e02:	87 95       	ror	r24
    1e04:	0a 94       	dec	r0
    1e06:	e2 f7       	brpl	.-8      	; 0x1e00 <DischargeProbes+0x58>
    1e08:	80 fd       	sbrc	r24, 0
    1e0a:	f0 cf       	rjmp	.-32     	; 0x1dec <DischargeProbes+0x44>
      continue;

    /* get voltage at probe */
    Channel = DATA_read_byte(&Channel_table[ID]);    /* update ADC channel */
    1e0c:	c6 01       	movw	r24, r12
    1e0e:	80 50       	subi	r24, 0x00	; 0
    1e10:	90 40       	sbci	r25, 0x00	; 0
    1e12:	0e 94 e9 2d 	call	0x5bd2	; 0x5bd2 <eeprom_read_byte>
    1e16:	98 2e       	mov	r9, r24
    U_c = ReadU(Channel);                            /* get voltage */
    1e18:	0e 94 61 0d 	call	0x1ac2	; 0x1ac2 <ReadU>

    if (U_c < U_old[ID])                /* voltage decreased */
    1e1c:	f6 01       	movw	r30, r12
    1e1e:	ee 0f       	add	r30, r30
    1e20:	ff 1f       	adc	r31, r31
    1e22:	21 e0       	ldi	r18, 0x01	; 1
    1e24:	30 e0       	ldi	r19, 0x00	; 0
    1e26:	2c 0f       	add	r18, r28
    1e28:	3d 1f       	adc	r19, r29
    1e2a:	e2 0f       	add	r30, r18
    1e2c:	f3 1f       	adc	r31, r19
    1e2e:	20 81       	ld	r18, Z
    1e30:	31 81       	ldd	r19, Z+1	; 0x01
    1e32:	82 17       	cp	r24, r18
    1e34:	93 07       	cpc	r25, r19
    1e36:	70 f4       	brcc	.+28     	; 0x1e54 <DischargeProbes+0xac>
    {
      U_old[ID] = U_c;                  /* update old value */
    1e38:	91 83       	std	Z+1, r25	; 0x01
    1e3a:	80 83       	st	Z, r24

      /* adapt timeout based on discharge rate */
      if ((Limit - Counter) < 20)
    1e3c:	41 2f       	mov	r20, r17
    1e3e:	4f 19       	sub	r20, r15
    1e40:	55 0b       	sbc	r21, r21
    1e42:	44 31       	cpi	r20, 0x14	; 20
    1e44:	51 05       	cpc	r21, r1
    1e46:	1c f4       	brge	.+6      	; 0x1e4e <DischargeProbes+0xa6>
      {
        /* increase timeout while preventing overflow */
        if (Limit < (255 - 20)) Limit += 20;
    1e48:	1b 3e       	cpi	r17, 0xEB	; 235
    1e4a:	08 f4       	brcc	.+2      	; 0x1e4e <DischargeProbes+0xa6>
    1e4c:	1c 5e       	subi	r17, 0xEC	; 236
      }

      Counter = 1;                      /* reset no-changes counter */
    1e4e:	ff 24       	eor	r15, r15
    1e50:	f3 94       	inc	r15
    1e52:	07 c0       	rjmp	.+14     	; 0x1e62 <DischargeProbes+0xba>
    }
    else                                /* voltage not decreased */
    {
      /* increase limit if we start at a low voltage */
      if ((U_c < 10) && (Limit <= 40)) Limit = 80;
    1e54:	8a 30       	cpi	r24, 0x0A	; 10
    1e56:	91 05       	cpc	r25, r1
    1e58:	18 f4       	brcc	.+6      	; 0x1e60 <DischargeProbes+0xb8>
    1e5a:	18 32       	cpi	r17, 0x28	; 40
    1e5c:	09 f4       	brne	.+2      	; 0x1e60 <DischargeProbes+0xb8>
    1e5e:	10 e5       	ldi	r17, 0x50	; 80

      Counter++;                        /* increase no-changes counter */
    1e60:	f3 94       	inc	r15
    }

    if (U_c <= CAP_DISCHARGED)          /* seems to be discharged */
    1e62:	83 30       	cpi	r24, 0x03	; 3
    1e64:	91 05       	cpc	r25, r1
    1e66:	c8 f5       	brcc	.+114    	; 0x1eda <DischargeProbes+0x132>
    {
      Flags |= (1 << ID);               /* set flag for probe */
    1e68:	c5 01       	movw	r24, r10
    1e6a:	0c 2c       	mov	r0, r12
    1e6c:	01 c0       	rjmp	.+2      	; 0x1e70 <DischargeProbes+0xc8>
    1e6e:	88 0f       	add	r24, r24
    1e70:	0a 94       	dec	r0
    1e72:	ea f7       	brpl	.-6      	; 0x1e6e <DischargeProbes+0xc6>
    1e74:	e8 2a       	or	r14, r24
    {
      /* it's safe now to pull down probe pin directly */
      ADC_DDR |= DATA_read_byte(&Pin_table[ID]);
    }

    if (Flags == 0b00000111)            /* all probes discharged */
    1e76:	87 e0       	ldi	r24, 0x07	; 7
    1e78:	e8 16       	cp	r14, r24
    1e7a:	49 f1       	breq	.+82     	; 0x1ece <DischargeProbes+0x126>
    {
      Counter = 0;                      /* end loop */
    }
    else if (Counter > Limit)           /* no decrease for some time */
    1e7c:	1f 15       	cp	r17, r15
    1e7e:	c8 f5       	brcc	.+114    	; 0x1ef2 <DischargeProbes+0x14a>
    {
      /* might be a battery or a super cap */
      Check.Found = COMP_ERROR;         /* report error */
    1e80:	81 e0       	ldi	r24, 0x01	; 1
    1e82:	80 93 01 01 	sts	0x0101, r24	; 0x800101 <Check>
      Check.Type = TYPE_DISCHARGE;      /* discharge problem */
    1e86:	80 93 02 01 	sts	0x0102, r24	; 0x800102 <Check+0x1>
      Check.Probe = ID;                 /* save probe */
    1e8a:	00 93 07 01 	sts	0x0107, r16	; 0x800107 <Check+0x6>

      /* measure unloaded voltage */
      Flags = DATA_read_byte(&Pin_table[ID]);
    1e8e:	c6 01       	movw	r24, r12
    1e90:	8d 5f       	subi	r24, 0xFD	; 253
    1e92:	9f 4f       	sbci	r25, 0xFF	; 255
    1e94:	0e 94 e9 2d 	call	0x5bd2	; 0x5bd2 <eeprom_read_byte>
      ADC_DDR &= ~Flags;                /* remove direct pull-down */
    1e98:	97 b1       	in	r25, 0x07	; 7
    1e9a:	80 95       	com	r24
    1e9c:	89 23       	and	r24, r25
    1e9e:	87 b9       	out	0x07, r24	; 7
      Flags = DATA_read_byte(&Rh_table[ID]) | DATA_read_byte(&Rl_table[ID]);
    1ea0:	c6 01       	movw	r24, r12
    1ea2:	8a 5f       	subi	r24, 0xFA	; 250
    1ea4:	9f 4f       	sbci	r25, 0xFF	; 255
    1ea6:	0e 94 e9 2d 	call	0x5bd2	; 0x5bd2 <eeprom_read_byte>
    1eaa:	18 2f       	mov	r17, r24
    1eac:	c6 01       	movw	r24, r12
    1eae:	87 5f       	subi	r24, 0xF7	; 247
    1eb0:	9f 4f       	sbci	r25, 0xFF	; 255
    1eb2:	0e 94 e9 2d 	call	0x5bd2	; 0x5bd2 <eeprom_read_byte>
      R_DDR &= ~Flags;                  /* disable load resistors */
    1eb6:	9a b1       	in	r25, 0x0a	; 10
      Check.Probe = ID;                 /* save probe */

      /* measure unloaded voltage */
      Flags = DATA_read_byte(&Pin_table[ID]);
      ADC_DDR &= ~Flags;                /* remove direct pull-down */
      Flags = DATA_read_byte(&Rh_table[ID]) | DATA_read_byte(&Rl_table[ID]);
    1eb8:	81 2b       	or	r24, r17
      R_DDR &= ~Flags;                  /* disable load resistors */
    1eba:	80 95       	com	r24
    1ebc:	89 23       	and	r24, r25
    1ebe:	8a b9       	out	0x0a, r24	; 10
      Check.U = ReadU(Channel);         /* get and save voltage */
    1ec0:	89 2d       	mov	r24, r9
    1ec2:	0e 94 61 0d 	call	0x1ac2	; 0x1ac2 <ReadU>
    1ec6:	90 93 09 01 	sts	0x0109, r25	; 0x800109 <Check+0x8>
    1eca:	80 93 08 01 	sts	0x0108, r24	; 0x800108 <Check+0x7>
      MilliSleep(50);                   /* wait for 50ms */
    }
  }

  /* reset probes */
  R_DDR = 0;                  /* set resistor port to input mode */
    1ece:	1a b8       	out	0x0a, r1	; 10
  ADC_DDR = 0;                /* set ADC port to input mode */
    1ed0:	17 b8       	out	0x07, r1	; 7
}
    1ed2:	26 96       	adiw	r28, 0x06	; 6
    1ed4:	ec e0       	ldi	r30, 0x0C	; 12
    1ed6:	0c 94 8e 2d 	jmp	0x5b1c	; 0x5b1c <__epilogue_restores__+0xc>

    if (U_c <= CAP_DISCHARGED)          /* seems to be discharged */
    {
      Flags |= (1 << ID);               /* set flag for probe */
    }
    else if (U_c < 400)                 /* extra pull-down (< 400mV) */
    1eda:	80 39       	cpi	r24, 0x90	; 144
    1edc:	91 40       	sbci	r25, 0x01	; 1
    1ede:	58 f6       	brcc	.-106    	; 0x1e76 <DischargeProbes+0xce>
    {
      /* it's safe now to pull down probe pin directly */
      ADC_DDR |= DATA_read_byte(&Pin_table[ID]);
    1ee0:	87 b0       	in	r8, 0x07	; 7
    1ee2:	c6 01       	movw	r24, r12
    1ee4:	8d 5f       	subi	r24, 0xFD	; 253
    1ee6:	9f 4f       	sbci	r25, 0xFF	; 255
    1ee8:	0e 94 e9 2d 	call	0x5bd2	; 0x5bd2 <eeprom_read_byte>
    1eec:	88 29       	or	r24, r8
    1eee:	87 b9       	out	0x07, r24	; 7
    1ef0:	c2 cf       	rjmp	.-124    	; 0x1e76 <DischargeProbes+0xce>

      Counter = 0;                      /* end loop */
    }
    else                                /* go for another round */
    {
      wdt_reset();                      /* reset watchdog */
    1ef2:	a8 95       	wdr
      MilliSleep(50);                   /* wait for 50ms */
    1ef4:	82 e3       	ldi	r24, 0x32	; 50
    1ef6:	90 e0       	ldi	r25, 0x00	; 0
    1ef8:	0e 94 0b 09 	call	0x1216	; 0x1216 <MilliSleep>
    1efc:	77 cf       	rjmp	.-274    	; 0x1dec <DischargeProbes+0x44>

00001efe <PullProbe>:
 *    PULL_1MS   for 1ms
 *    PULL_10MS  for 10ms
 */

void PullProbe(uint8_t Mask, uint8_t Mode)
{
    1efe:	cf 93       	push	r28
    1f00:	c8 2f       	mov	r28, r24
    1f02:	c0 95       	com	r28
  /* set pull mode */
  if (Mode & PULL_UP)         /* pull-up */
  {
    R_PORT |= Mask;                /* set bit */
    1f04:	9b b1       	in	r25, 0x0b	; 11
 */

void PullProbe(uint8_t Mask, uint8_t Mode)
{
  /* set pull mode */
  if (Mode & PULL_UP)         /* pull-up */
    1f06:	60 ff       	sbrs	r22, 0
    1f08:	11 c0       	rjmp	.+34     	; 0x1f2c <PullProbe+0x2e>
  {
    R_PORT |= Mask;                /* set bit */
    1f0a:	98 2b       	or	r25, r24
  }
  else                        /* pull-down */
  {
    R_PORT &= ~Mask;               /* clear bit */
    1f0c:	9b b9       	out	0x0b, r25	; 11
  }
  R_DDR |= Mask;              /* enable pulling */
    1f0e:	9a b1       	in	r25, 0x0a	; 10
    1f10:	89 2b       	or	r24, r25
    1f12:	8a b9       	out	0x0a, r24	; 10

  if (Mode & PULL_1MS)        /* wait 1ms */
    1f14:	63 ff       	sbrs	r22, 3
    1f16:	0c c0       	rjmp	.+24     	; 0x1f30 <PullProbe+0x32>
  {
    wait1ms();
    1f18:	0e 94 2d 2b 	call	0x565a	; 0x565a <wait1ms>
  {
    wait10ms();
  }

  /* reset pulling */
  R_DDR &= ~Mask;             /* set to HiZ mode */
    1f1c:	8a b1       	in	r24, 0x0a	; 10
    1f1e:	8c 23       	and	r24, r28
    1f20:	8a b9       	out	0x0a, r24	; 10
  R_PORT &= ~Mask;            /* set 0 */
    1f22:	8b b1       	in	r24, 0x0b	; 11
    1f24:	8c 23       	and	r24, r28
    1f26:	8b b9       	out	0x0b, r24	; 11
}
    1f28:	cf 91       	pop	r28
    1f2a:	08 95       	ret
  {
    R_PORT |= Mask;                /* set bit */
  }
  else                        /* pull-down */
  {
    R_PORT &= ~Mask;               /* clear bit */
    1f2c:	9c 23       	and	r25, r28
    1f2e:	ee cf       	rjmp	.-36     	; 0x1f0c <PullProbe+0xe>
  {
    wait1ms();
  }
  else                        /* wait 10ms */
  {
    wait10ms();
    1f30:	0e 94 28 2b 	call	0x5650	; 0x5650 <wait10ms>
    1f34:	f3 cf       	rjmp	.-26     	; 0x1f1c <PullProbe+0x1e>

00001f36 <GetFactor>:
 *  returns:
 *  - multiplicator/factor
 */

uint16_t GetFactor(uint16_t U_in, uint8_t ID)
{
    1f36:	cf 92       	push	r12
    1f38:	df 92       	push	r13
    1f3a:	ff 92       	push	r15
    1f3c:	0f 93       	push	r16
    1f3e:	1f 93       	push	r17
    1f40:	cf 93       	push	r28
    1f42:	df 93       	push	r29

  /*
   *  set up table specific stuff
   */

  if (ID == TABLE_SMALL_CAP)
    1f44:	61 30       	cpi	r22, 0x01	; 1
    1f46:	09 f4       	brne	.+2      	; 0x1f4a <GetFactor+0x14>
    1f48:	46 c0       	rjmp	.+140    	; 0x1fd6 <GetFactor+0xa0>
    TabStart = 1000;                         /* table starts at 1000mV */
    TabStep = 50;                            /* 50mV steps between entries */
    TabIndex = (NUM_SMALL_CAP - 2);          /* entries in table - 2 */
    Table = (uint16_t *)&SmallCap_table[0];  /* pointer to table */
  }
  else if (ID == TABLE_LARGE_CAP)
    1f4a:	62 30       	cpi	r22, 0x02	; 2
    1f4c:	09 f4       	brne	.+2      	; 0x1f50 <GetFactor+0x1a>
    1f4e:	4c c0       	rjmp	.+152    	; 0x1fe8 <GetFactor+0xb2>
    TabStep = 25;                            /* 25mV steps between entries */
    TabIndex = (NUM_LARGE_CAP - 2);          /* entries in table - 2 */
    Table = (uint16_t *)&LargeCap_table[0];  /* pointer to table */
  }
  #ifdef SW_INDUCTOR
  else if (ID == TABLE_INDUCTOR)
    1f50:	63 30       	cpi	r22, 0x03	; 3
    1f52:	09 f0       	breq	.+2      	; 0x1f56 <GetFactor+0x20>
    1f54:	55 c0       	rjmp	.+170    	; 0x2000 <GetFactor+0xca>
  {
    TabStart = 200;                          /* table starts at 200 */
    TabStep = 25;                            /* steps between entries */
    TabIndex = (NUM_INDUCTOR - 2);           /* entries in table - 2 */
    Table = (uint16_t *)&Inductor_table[0];  /* pointer to table */
    1f56:	0c e0       	ldi	r16, 0x0C	; 12
    1f58:	10 e0       	ldi	r17, 0x00	; 0
  #ifdef SW_INDUCTOR
  else if (ID == TABLE_INDUCTOR)
  {
    TabStart = 200;                          /* table starts at 200 */
    TabStep = 25;                            /* steps between entries */
    TabIndex = (NUM_INDUCTOR - 2);           /* entries in table - 2 */
    1f5a:	ee e1       	ldi	r30, 0x1E	; 30
    1f5c:	f0 e0       	ldi	r31, 0x00	; 0
  }
  #ifdef SW_INDUCTOR
  else if (ID == TABLE_INDUCTOR)
  {
    TabStart = 200;                          /* table starts at 200 */
    TabStep = 25;                            /* steps between entries */
    1f5e:	c9 e1       	ldi	r28, 0x19	; 25
    1f60:	d0 e0       	ldi	r29, 0x00	; 0
    Table = (uint16_t *)&LargeCap_table[0];  /* pointer to table */
  }
  #ifdef SW_INDUCTOR
  else if (ID == TABLE_INDUCTOR)
  {
    TabStart = 200;                          /* table starts at 200 */
    1f62:	48 ec       	ldi	r20, 0xC8	; 200
    1f64:	50 e0       	ldi	r21, 0x00	; 0
  /*
   *  We interpolate the table values corresponding to the given voltage/ratio.
   */

  /* difference to start of table */
  if (U_in >= TabStart) U_Diff = U_in - TabStart;  
    1f66:	84 17       	cp	r24, r20
    1f68:	95 07       	cpc	r25, r21
    1f6a:	08 f4       	brcc	.+2      	; 0x1f6e <GetFactor+0x38>
    1f6c:	46 c0       	rjmp	.+140    	; 0x1ffa <GetFactor+0xc4>
    1f6e:	84 1b       	sub	r24, r20
    1f70:	95 0b       	sbc	r25, r21
  else U_Diff = 0;

  /* calculate table index */
  Index = U_Diff / TabStep;             /* index (position in table) */
    1f72:	be 01       	movw	r22, r28
    1f74:	0e 94 dc 2c 	call	0x59b8	; 0x59b8 <__udivmodhi4>
  Diff = U_Diff % TabStep;              /* difference to index */
  Diff = TabStep - Diff;                /* difference to next entry */
    1f78:	fc 2e       	mov	r15, r28
    1f7a:	f8 1a       	sub	r15, r24

  /* prevent index overflow */
  if (Index > TabIndex) Index = TabIndex;
    1f7c:	6e 17       	cp	r22, r30
    1f7e:	1f 06       	cpc	r1, r31
    1f80:	11 f0       	breq	.+4      	; 0x1f86 <GetFactor+0x50>
    1f82:	08 f0       	brcs	.+2      	; 0x1f86 <GetFactor+0x50>
    1f84:	bf 01       	movw	r22, r30

  /* get values for index and next entry */
  Table += Index;                       /* advance to index */
    1f86:	77 27       	eor	r23, r23
    1f88:	66 0f       	add	r22, r22
    1f8a:	77 1f       	adc	r23, r23
    1f8c:	06 0f       	add	r16, r22
    1f8e:	17 1f       	adc	r17, r23
  Fact1 = DATA_read_word(Table);
    1f90:	c8 01       	movw	r24, r16
    1f92:	0e 94 f1 2d 	call	0x5be2	; 0x5be2 <eeprom_read_word>
    1f96:	6c 01       	movw	r12, r24
  Table++;                              /* next entry */
  Fact2 = DATA_read_word(Table);
    1f98:	c8 01       	movw	r24, r16
    1f9a:	02 96       	adiw	r24, 0x02	; 2
    1f9c:	0e 94 f1 2d 	call	0x5be2	; 0x5be2 <eeprom_read_word>
    1fa0:	9c 01       	movw	r18, r24

  /* interpolate values based on the difference */
  Factor = Fact1 - Fact2;
    1fa2:	c8 1a       	sub	r12, r24
    1fa4:	d9 0a       	sbc	r13, r25
  Factor *= Diff;
    1fa6:	fc 9c       	mul	r15, r12
    1fa8:	a0 01       	movw	r20, r0
    1faa:	fd 9c       	mul	r15, r13
    1fac:	50 0d       	add	r21, r0
    1fae:	11 24       	eor	r1, r1
  Factor += TabStep / 2;
    1fb0:	ce 01       	movw	r24, r28
    1fb2:	96 95       	lsr	r25
    1fb4:	87 95       	ror	r24
    1fb6:	84 0f       	add	r24, r20
    1fb8:	95 1f       	adc	r25, r21
  Factor /= TabStep;
    1fba:	be 01       	movw	r22, r28
    1fbc:	0e 94 dc 2c 	call	0x59b8	; 0x59b8 <__udivmodhi4>
  Factor += Fact2;
    1fc0:	c9 01       	movw	r24, r18
    1fc2:	86 0f       	add	r24, r22
    1fc4:	97 1f       	adc	r25, r23

  return Factor;
}
    1fc6:	df 91       	pop	r29
    1fc8:	cf 91       	pop	r28
    1fca:	1f 91       	pop	r17
    1fcc:	0f 91       	pop	r16
    1fce:	ff 90       	pop	r15
    1fd0:	df 90       	pop	r13
    1fd2:	cf 90       	pop	r12
    1fd4:	08 95       	ret
  if (ID == TABLE_SMALL_CAP)
  {
    TabStart = 1000;                         /* table starts at 1000mV */
    TabStep = 50;                            /* 50mV steps between entries */
    TabIndex = (NUM_SMALL_CAP - 2);          /* entries in table - 2 */
    Table = (uint16_t *)&SmallCap_table[0];  /* pointer to table */
    1fd6:	0c e5       	ldi	r16, 0x5C	; 92
    1fd8:	10 e0       	ldi	r17, 0x00	; 0

  if (ID == TABLE_SMALL_CAP)
  {
    TabStart = 1000;                         /* table starts at 1000mV */
    TabStep = 50;                            /* 50mV steps between entries */
    TabIndex = (NUM_SMALL_CAP - 2);          /* entries in table - 2 */
    1fda:	e7 e0       	ldi	r30, 0x07	; 7
    1fdc:	f0 e0       	ldi	r31, 0x00	; 0
   */

  if (ID == TABLE_SMALL_CAP)
  {
    TabStart = 1000;                         /* table starts at 1000mV */
    TabStep = 50;                            /* 50mV steps between entries */
    1fde:	c2 e3       	ldi	r28, 0x32	; 50
    1fe0:	d0 e0       	ldi	r29, 0x00	; 0
   *  set up table specific stuff
   */

  if (ID == TABLE_SMALL_CAP)
  {
    TabStart = 1000;                         /* table starts at 1000mV */
    1fe2:	48 ee       	ldi	r20, 0xE8	; 232
    1fe4:	53 e0       	ldi	r21, 0x03	; 3
    1fe6:	bf cf       	rjmp	.-130    	; 0x1f66 <GetFactor+0x30>
  else if (ID == TABLE_LARGE_CAP)
  {
    TabStart = 300;                          /* table starts at 1000mV */
    TabStep = 25;                            /* 25mV steps between entries */
    TabIndex = (NUM_LARGE_CAP - 2);          /* entries in table - 2 */
    Table = (uint16_t *)&LargeCap_table[0];  /* pointer to table */
    1fe8:	0e e6       	ldi	r16, 0x6E	; 110
    1fea:	10 e0       	ldi	r17, 0x00	; 0
  }
  else if (ID == TABLE_LARGE_CAP)
  {
    TabStart = 300;                          /* table starts at 1000mV */
    TabStep = 25;                            /* 25mV steps between entries */
    TabIndex = (NUM_LARGE_CAP - 2);          /* entries in table - 2 */
    1fec:	ec e2       	ldi	r30, 0x2C	; 44
    1fee:	f0 e0       	ldi	r31, 0x00	; 0
    Table = (uint16_t *)&SmallCap_table[0];  /* pointer to table */
  }
  else if (ID == TABLE_LARGE_CAP)
  {
    TabStart = 300;                          /* table starts at 1000mV */
    TabStep = 25;                            /* 25mV steps between entries */
    1ff0:	c9 e1       	ldi	r28, 0x19	; 25
    1ff2:	d0 e0       	ldi	r29, 0x00	; 0
    TabIndex = (NUM_SMALL_CAP - 2);          /* entries in table - 2 */
    Table = (uint16_t *)&SmallCap_table[0];  /* pointer to table */
  }
  else if (ID == TABLE_LARGE_CAP)
  {
    TabStart = 300;                          /* table starts at 1000mV */
    1ff4:	4c e2       	ldi	r20, 0x2C	; 44
    1ff6:	51 e0       	ldi	r21, 0x01	; 1
    1ff8:	b6 cf       	rjmp	.-148    	; 0x1f66 <GetFactor+0x30>
   *  We interpolate the table values corresponding to the given voltage/ratio.
   */

  /* difference to start of table */
  if (U_in >= TabStart) U_Diff = U_in - TabStart;  
  else U_Diff = 0;
    1ffa:	90 e0       	ldi	r25, 0x00	; 0
    1ffc:	80 e0       	ldi	r24, 0x00	; 0
    1ffe:	b9 cf       	rjmp	.-142    	; 0x1f72 <GetFactor+0x3c>
    Table = (uint16_t *)&Inductor_table[0];  /* pointer to table */
  }
  #endif
  else
  {
    return 0;                 /* signal error */
    2000:	90 e0       	ldi	r25, 0x00	; 0
    2002:	80 e0       	ldi	r24, 0x00	; 0
    2004:	e0 cf       	rjmp	.-64     	; 0x1fc6 <GetFactor+0x90>

00002006 <CheckProbes>:
 *  - Probe2: ID of probe to be pulled down [0-2]
 *  - Probe3: ID of probe to be in HiZ mode [0-2]
 */

void CheckProbes(uint8_t Probe1, uint8_t Probe2, uint8_t Probe3)
{
    2006:	cf 93       	push	r28
    2008:	df 93       	push	r29
  uint8_t           Flag;          /* temporary value */
  uint16_t          U_Rl;          /* voltage across Rl (load) */
  uint16_t          U_1;           /* voltage #1 */

  /* init */
  if (Check.Found == COMP_ERROR) return;   /* skip check on any error */
    200a:	90 91 01 01 	lds	r25, 0x0101	; 0x800101 <Check>
    200e:	91 30       	cpi	r25, 0x01	; 1
    2010:	09 f4       	brne	.+2      	; 0x2014 <CheckProbes+0xe>
    2012:	b1 c0       	rjmp	.+354    	; 0x2176 <CheckProbes+0x170>
  wdt_reset();                             /* reset watchdog */
    2014:	a8 95       	wdr
  UpdateProbes(Probe1, Probe2, Probe3);    /* update register bits */
    2016:	0e 94 d3 0d 	call	0x1ba6	; 0x1ba6 <UpdateProbes>
   *  In case of a FET we have to take care about the gate charge based on
   *  the channel type.
   */

  /* set probes: Gnd -- Rl -- probe-2 / probe-1 -- Vcc */
  R_PORT = 0;                      /* set resistor port to Gnd */
    201a:	1b b8       	out	0x0b, r1	; 11
  R_DDR = Probes.Rl_2;             /* pull down probe-2 via Rl */
    201c:	80 91 bc 01 	lds	r24, 0x01BC	; 0x8001bc <Probes+0x7>
    2020:	8a b9       	out	0x0a, r24	; 10
  ADC_DDR = Probes.Pin_1;          /* set probe-1 to output */
    2022:	80 91 c1 01 	lds	r24, 0x01C1	; 0x8001c1 <Probes+0xc>
    2026:	87 b9       	out	0x07, r24	; 7
  ADC_PORT = Probes.Pin_1;         /* pull-up probe-1 directly */
    2028:	88 b9       	out	0x08, r24	; 8
   *  - assuming: probe-1 = D / probe-2 = S / probe-3 = G
   *
   *  Hint: The pull-down of the gate will trigger a possible PUT.
   */

  PullProbe(Probes.Rl_3, PULL_10MS | PULL_DOWN);  /* discharge gate via Rl */
    202a:	60 e1       	ldi	r22, 0x10	; 16
    202c:	80 91 bd 01 	lds	r24, 0x01BD	; 0x8001bd <Probes+0x8>
    2030:	0e 94 7f 0f 	call	0x1efe	; 0x1efe <PullProbe>
  U_Rl = ReadU_5ms(Probes.Ch_2);                  /* get voltage at Rl */
    2034:	80 91 c5 01 	lds	r24, 0x01C5	; 0x8001c5 <Probes+0x10>
    2038:	0e 94 c1 0d 	call	0x1b82	; 0x1b82 <ReadU_5ms>
    203c:	ec 01       	movw	r28, r24
   *  - get emitter current with base pulled down
   *  - assuming: probe-1 = C / probe-2 = E / probe-3 = B
   */

  /* set probes: Gnd -- Rl -- probe-2 / probe-1 -- Vcc / Gnd -- Rl -- probe-3 */
  R_DDR = Probes.Rl_2 | Probes.Rl_3;    /* pull down probe-2 via Rl, probe-3 via Rl */
    203e:	80 91 bc 01 	lds	r24, 0x01BC	; 0x8001bc <Probes+0x7>
    2042:	90 91 bd 01 	lds	r25, 0x01BD	; 0x8001bd <Probes+0x8>
    2046:	89 2b       	or	r24, r25
    2048:	8a b9       	out	0x0a, r24	; 10
  U_1 = ReadU_5ms(Probes.Ch_2);         /* get voltage at emitter (Rl) */
    204a:	80 91 c5 01 	lds	r24, 0x01C5	; 0x8001c5 <Probes+0x10>
    204e:	0e 94 c1 0d 	call	0x1b82	; 0x1b82 <ReadU_5ms>
  /* set probes: Gnd -- Rl -- probe-2 / probe-1 -- Vcc */
  R_DDR = Probes.Rl_2;                  /* pull down probe-2 via Rl */
    2052:	20 91 bc 01 	lds	r18, 0x01BC	; 0x8001bc <Probes+0x7>
    2056:	2a b9       	out	0x0a, r18	; 10

  if ((U_1 < U_Rl) && (U_1 < 5))        /* < 5mV (base pulled down) */
    2058:	8c 17       	cp	r24, r28
    205a:	9d 07       	cpc	r25, r29
    205c:	20 f4       	brcc	.+8      	; 0x2066 <CheckProbes+0x60>
    205e:	85 30       	cpi	r24, 0x05	; 5
    2060:	91 05       	cpc	r25, r1
    2062:	08 f4       	brcc	.+2      	; 0x2066 <CheckProbes+0x60>
    2064:	8b c0       	rjmp	.+278    	; 0x217c <CheckProbes+0x176>
  /*
   *  If we got conduction we could have a p-channel FET. For any
   *  other part U_Rl will stay the same.
   */

  if (U_Rl >= 977)            /* > 1.4mA */
    2066:	c1 3d       	cpi	r28, 0xD1	; 209
    2068:	23 e0       	ldi	r18, 0x03	; 3
    206a:	d2 07       	cpc	r29, r18
    206c:	00 f1       	brcs	.+64     	; 0x20ae <CheckProbes+0xa8>
    /*
     *  For a possible p-channel FET we pull up the gate for a few ms.
     *  - assuming: probe-1 = S / probe-2 = D / probe-3 = G
     */

    PullProbe(Probes.Rl_3, PULL_10MS | PULL_UP);  /* discharge gate via Rl */
    206e:	61 e1       	ldi	r22, 0x11	; 17
    2070:	80 91 bd 01 	lds	r24, 0x01BD	; 0x8001bd <Probes+0x8>
    2074:	0e 94 7f 0f 	call	0x1efe	; 0x1efe <PullProbe>
    U_Rl = ReadU_5ms(Probes.Ch_2);                /* get voltage at Rl */
    2078:	80 91 c5 01 	lds	r24, 0x01C5	; 0x8001c5 <Probes+0x10>
    207c:	0e 94 c1 0d 	call	0x1b82	; 0x1b82 <ReadU_5ms>
    2080:	ec 01       	movw	r28, r24
     *  - get collector current with base pulled up
     *  - assuming: probe-1 = E / probe-2 = C / probe-3 = B
     */

    /* set probes: Gnd -- Rl -- probe-2 / probe-1 -- Vcc / probe-3 -- Rl -- Vcc */
    R_PORT = Probes.Rl_3;                 /* pull up probe-3 via Rl */
    2082:	90 91 bd 01 	lds	r25, 0x01BD	; 0x8001bd <Probes+0x8>
    2086:	9b b9       	out	0x0b, r25	; 11
    R_DDR = Probes.Rl_2 | Probes.Rl_3;    /* pull down probe-2 via Rl */
    2088:	80 91 bc 01 	lds	r24, 0x01BC	; 0x8001bc <Probes+0x7>
    208c:	89 2b       	or	r24, r25
    208e:	8a b9       	out	0x0a, r24	; 10
    U_1 = ReadU_5ms(Probes.Ch_2);         /* get voltage at collector (Rl) */
    2090:	80 91 c5 01 	lds	r24, 0x01C5	; 0x8001c5 <Probes+0x10>
    2094:	0e 94 c1 0d 	call	0x1b82	; 0x1b82 <ReadU_5ms>
    /* set probes: Gnd -- Rl -- probe-2 / probe-1 -- Vcc */
    R_PORT = 0;                           /* set resistor port to Gnd */
    2098:	1b b8       	out	0x0b, r1	; 11
    R_DDR = Probes.Rl_2;                  /* pull down probe-2 via Rl */
    209a:	20 91 bc 01 	lds	r18, 0x01BC	; 0x8001bc <Probes+0x7>
    209e:	2a b9       	out	0x0a, r18	; 10

    if ((U_1 < U_Rl) && (U_1 < 5))        /* < 5mV (base pulled up) */
    20a0:	8c 17       	cp	r24, r28
    20a2:	9d 07       	cpc	r25, r29
    20a4:	20 f4       	brcc	.+8      	; 0x20ae <CheckProbes+0xa8>
    20a6:	85 30       	cpi	r24, 0x05	; 5
    20a8:	91 05       	cpc	r25, r1
    20aa:	08 f4       	brcc	.+2      	; 0x20ae <CheckProbes+0xa8>
    20ac:	67 c0       	rjmp	.+206    	; 0x217c <CheckProbes+0x176>
   *  - diode, resistor
   *  - Germanium BJT with high leakage current
   *  - high hFE Darlington plus long probe leads and/or noisy environment
   */

  if (U_Rl > 15)         /* > 21ÁA */
    20ae:	c0 31       	cpi	r28, 0x10	; 16
    20b0:	d1 05       	cpc	r29, r1
    20b2:	70 f0       	brcs	.+28     	; 0x20d0 <CheckProbes+0xca>
  {
    if (Check.Done == DONE_NONE)        /* not sure yet */
    20b4:	80 91 03 01 	lds	r24, 0x0103	; 0x800103 <Check+0x2>
    20b8:	81 11       	cpse	r24, r1
    20ba:	03 c0       	rjmp	.+6      	; 0x20c2 <CheckProbes+0xbc>
    {
      CheckDepletionModeFET(U_Rl);
    20bc:	ce 01       	movw	r24, r28
    20be:	0e 94 82 1e 	call	0x3d04	; 0x3d04 <CheckDepletionModeFET>
    20c2:	80 91 03 01 	lds	r24, 0x0103	; 0x800103 <Check+0x2>
   *  - enhancement mode FET or IGBT
   *  - Thyristor or Triac
   *  - or a large resistor
   */

  if (U_Rl < 977)         /* load current < 1.4mA (resistance > 3k) */
    20c6:	c1 3d       	cpi	r28, 0xD1	; 209
    20c8:	93 e0       	ldi	r25, 0x03	; 3
    20ca:	d9 07       	cpc	r29, r25
    20cc:	08 f0       	brcs	.+2      	; 0x20d0 <CheckProbes+0xca>
    20ce:	58 c0       	rjmp	.+176    	; 0x2180 <CheckProbes+0x17a>
     *  check for:
     *  - PNP BJT (common emitter circuit)
     *  - p-channel MOSFET (low side switching circuit) or IGBT
     */

    if (Check.Done == DONE_NONE)        /* not sure yet */
    20d0:	80 91 03 01 	lds	r24, 0x0103	; 0x800103 <Check+0x2>
    20d4:	81 11       	cpse	r24, r1
    20d6:	1b c0       	rjmp	.+54     	; 0x210e <CheckProbes+0x108>
       *  - BJT: probe-1 = E / probe-2 = C / probe-3 = B
       *  - FET: probe-1 = S / probe-2 = D / probe-3 = G
       */

      /* set probes: Gnd -- Rl - probe-2 / probe-1 -- Vcc / probe-3 -- Rl -- Gnd */
      R_DDR = Probes.Rl_2;                /* enable Rl for probe-2 */
    20d8:	80 91 bc 01 	lds	r24, 0x01BC	; 0x8001bc <Probes+0x7>
    20dc:	8a b9       	out	0x0a, r24	; 10
      R_PORT = 0;                         /* pull down collector via Rl */
    20de:	1b b8       	out	0x0b, r1	; 11
      ADC_DDR = Probes.Pin_1;             /* set probe-1 to output */
    20e0:	80 91 c1 01 	lds	r24, 0x01C1	; 0x8001c1 <Probes+0xc>
    20e4:	87 b9       	out	0x07, r24	; 7
      ADC_PORT = Probes.Pin_1;            /* pull up emitter directly */
    20e6:	88 b9       	out	0x08, r24	; 8
      wait5ms();
    20e8:	0e 94 29 2b 	call	0x5652	; 0x5652 <wait5ms>
      R_DDR = Probes.Rl_2 | Probes.Rl_3;  /* pull down base via Rl */
    20ec:	80 91 bc 01 	lds	r24, 0x01BC	; 0x8001bc <Probes+0x7>
    20f0:	90 91 bd 01 	lds	r25, 0x01BD	; 0x8001bd <Probes+0x8>
    20f4:	89 2b       	or	r24, r25
    20f6:	8a b9       	out	0x0a, r24	; 10
      U_1 = ReadU_5ms(Probes.Ch_2);       /* get voltage at collector */
    20f8:	80 91 c5 01 	lds	r24, 0x01C5	; 0x8001c5 <Probes+0x10>
    20fc:	0e 94 c1 0d 	call	0x1b82	; 0x1b82 <ReadU_5ms>

      /*
       *  If DUT is conducting we might have a PNP BJT or p-channel FET.
       */

      if (U_1 > 3422)                   /* detected current > 4.8mA */
    2100:	8f 35       	cpi	r24, 0x5F	; 95
    2102:	9d 40       	sbci	r25, 0x0D	; 13
    2104:	20 f0       	brcs	.+8      	; 0x210e <CheckProbes+0x108>
      {
        /* distinguish PNP BJT from p-channel MOSFET or IGBT */
        CheckTransistor(TYPE_PNP, U_Rl);
    2106:	be 01       	movw	r22, r28
    2108:	82 e0       	ldi	r24, 0x02	; 2
    210a:	0e 94 e0 1c 	call	0x39c0	; 0x39c0 <CheckTransistor>
     *  - NPN BJT (common emitter circuit)
     *  - Thyristor and TRIAC
     *  - n-channel MOSFET (high side switching circuit) or IGBT
     */

    if (Check.Done == DONE_NONE)        /* not sure yet */
    210e:	80 91 03 01 	lds	r24, 0x0103	; 0x800103 <Check+0x2>
    2112:	81 11       	cpse	r24, r1
    2114:	24 c0       	rjmp	.+72     	; 0x215e <CheckProbes+0x158>
       *  - SCR: probe-1 = A / probe-2 = C / probe-3 = G
       *  - TRIAC: probe-1 = MT2 / probe-2 = MT1 / probe-3 = G
       */

      /* set probes: Gnd -- probe-2 / probe-1 -- Rl -- Vcc / probe-3 -- Rl -- Vcc */
      ADC_DDR = Probes.Pin_2;                /* set probe-2 to output mode */
    2116:	80 91 c2 01 	lds	r24, 0x01C2	; 0x8001c2 <Probes+0xd>
    211a:	87 b9       	out	0x07, r24	; 7
      ADC_PORT = 0;                          /* pull down probe-2 directly */
    211c:	18 b8       	out	0x08, r1	; 8
      R_DDR = Probes.Rl_1 | Probes.Rl_3;     /* select Rl for probe-1 & Rl for probe-3 */
    211e:	80 91 bb 01 	lds	r24, 0x01BB	; 0x8001bb <Probes+0x6>
    2122:	90 91 bd 01 	lds	r25, 0x01BD	; 0x8001bd <Probes+0x8>
    2126:	89 2b       	or	r24, r25
    2128:	8a b9       	out	0x0a, r24	; 10
      R_PORT = Probes.Rl_1 | Probes.Rl_3;    /* pull up collector & base via Rl */
    212a:	8b b9       	out	0x0b, r24	; 11
      U_1 = ReadU_5ms(Probes.Ch_1);          /* get voltage at collector */
    212c:	80 91 c4 01 	lds	r24, 0x01C4	; 0x8001c4 <Probes+0xf>
    2130:	0e 94 c1 0d 	call	0x1b82	; 0x1b82 <ReadU_5ms>
      /*
       *  If DUT is conducting we might have an NPN BJT, something similar or
       *  an n-channel MOSFET.
       */

      if (U_1 < 1600)                   /* detected current > 4.8mA */
    2134:	80 34       	cpi	r24, 0x40	; 64
    2136:	96 40       	sbci	r25, 0x06	; 6
    2138:	60 f4       	brcc	.+24     	; 0x2152 <CheckProbes+0x14c>
      {
        /* first check for Thyristor and TRIAC */
        Flag = CheckThyristorTriac();
    213a:	0e 94 3e 20 	call	0x407c	; 0x407c <CheckThyristorTriac>

        if (Flag == 0)                 /* no Thyristor or TRIAC */
    213e:	81 11       	cpse	r24, r1
    2140:	08 c0       	rjmp	.+16     	; 0x2152 <CheckProbes+0x14c>
        {
          /* If we've detected a TRIAC in a former run don't check for BJT. */
          if (Check.Found != COMP_TRIAC)
    2142:	80 91 01 01 	lds	r24, 0x0101	; 0x800101 <Check>
    2146:	81 32       	cpi	r24, 0x21	; 33
    2148:	21 f0       	breq	.+8      	; 0x2152 <CheckProbes+0x14c>
          {
            /* We might have an NPN BJT, an n-channel MOSFET or IGBT. */
            CheckTransistor(TYPE_NPN, U_Rl);
    214a:	be 01       	movw	r22, r28
    214c:	81 e0       	ldi	r24, 0x01	; 1
    214e:	0e 94 e0 1c 	call	0x39c0	; 0x39c0 <CheckTransistor>
    #ifdef SW_UJT
    /*
     *  check for UJT
     */

    if (Check.Done == DONE_NONE)        /* not sure yet */
    2152:	80 91 03 01 	lds	r24, 0x0103	; 0x800103 <Check+0x2>
    2156:	81 11       	cpse	r24, r1
    2158:	02 c0       	rjmp	.+4      	; 0x215e <CheckProbes+0x158>
    {
      CheckUJT();
    215a:	0e 94 24 21 	call	0x4248	; 0x4248 <CheckUJT>
   *  Check for a resistor (or another one)
   *  - if no other component is found yet
   *  - if we've got a resistor already 
   */

  if ((Check.Found == COMP_NONE) ||
    215e:	80 91 01 01 	lds	r24, 0x0101	; 0x800101 <Check>
    2162:	88 23       	and	r24, r24
    2164:	11 f0       	breq	.+4      	; 0x216a <CheckProbes+0x164>
    2166:	8a 30       	cpi	r24, 0x0A	; 10
    2168:	91 f4       	brne	.+36     	; 0x218e <CheckProbes+0x188>
      (Check.Found == COMP_RESISTOR))
  {
    CheckResistor();
    216a:	0e 94 de 12 	call	0x25bc	; 0x25bc <CheckResistor>

  /*
   *  clean up
   */

  ADC_DDR = 0;           /* set ADC port to HiZ mode */
    216e:	17 b8       	out	0x07, r1	; 7
  ADC_PORT = 0;          /* set ADC port low */
    2170:	18 b8       	out	0x08, r1	; 8
  R_DDR = 0;             /* set resistor port to HiZ mode */
    2172:	1a b8       	out	0x0a, r1	; 10
  R_PORT = 0;            /* set resistor port low */
    2174:	1b b8       	out	0x0b, r1	; 11
}
    2176:	df 91       	pop	r29
    2178:	cf 91       	pop	r28
    217a:	08 95       	ret
    217c:	ec 01       	movw	r28, r24
    217e:	a8 cf       	rjmp	.-176    	; 0x20d0 <CheckProbes+0xca>
  {
    /*
     *  check for a PUT
     */

    if (Check.Done == DONE_NONE)        /* not sure yet */
    2180:	81 11       	cpse	r24, r1
    2182:	02 c0       	rjmp	.+4      	; 0x2188 <CheckProbes+0x182>
    {
      CheckPUT();
    2184:	0e 94 d6 20 	call	0x41ac	; 0x41ac <CheckPUT>
    /*
     *  We check for a diode even if we already found a component to get Vf, 
     *  since there could be a body/protection diode of a transistor.
     */

    CheckDiode();
    2188:	0e 94 ad 1a 	call	0x355a	; 0x355a <CheckDiode>
    218c:	e8 cf       	rjmp	.-48     	; 0x215e <CheckProbes+0x158>
   */

  else
  {
    /* verify a MOSFET */
    if ((Check.Found == COMP_FET) && (Check.Type & TYPE_MOSFET))
    218e:	8f 31       	cpi	r24, 0x1F	; 31
    2190:	71 f7       	brne	.-36     	; 0x216e <CheckProbes+0x168>
    2192:	80 91 02 01 	lds	r24, 0x0102	; 0x800102 <Check+0x1>
    2196:	84 ff       	sbrs	r24, 4
    2198:	ea cf       	rjmp	.-44     	; 0x216e <CheckProbes+0x168>
    {
      VerifyMOSFET();
    219a:	0e 94 a5 1b 	call	0x374a	; 0x374a <VerifyMOSFET>
    219e:	e7 cf       	rjmp	.-50     	; 0x216e <CheckProbes+0x168>

000021a0 <CheckAlternatives>:
   *  - PNP with B-E resistor and flyback diode passes UJT test once
   *  - UJT might pass NPN test once
   *  - TRIAC passes PUT test twice, but PUT only once
   */

  if (Check.AltFound != COMP_NONE)           /* alternative found */
    21a0:	80 91 04 01 	lds	r24, 0x0104	; 0x800104 <Check+0x3>
    21a4:	88 23       	and	r24, r24
    21a6:	c1 f0       	breq	.+48     	; 0x21d8 <CheckAlternatives+0x38>
  {
    if (! (Check.Done & DONE_SEMI))          /* not sure about common transistor */
    21a8:	90 91 03 01 	lds	r25, 0x0103	; 0x800103 <Check+0x2>
    21ac:	90 fd       	sbrc	r25, 0
    21ae:	14 c0       	rjmp	.+40     	; 0x21d8 <CheckAlternatives+0x38>
    {
      /* but sure about alternative or no common transistor found */
      if ((Check.Done & DONE_ALTSEMI) || (Check.Found < COMP_BJT))
    21b0:	91 fd       	sbrc	r25, 1
    21b2:	04 c0       	rjmp	.+8      	; 0x21bc <CheckAlternatives+0x1c>
    21b4:	90 91 01 01 	lds	r25, 0x0101	; 0x800101 <Check>
    21b8:	9e 31       	cpi	r25, 0x1E	; 30
    21ba:	70 f4       	brcc	.+28     	; 0x21d8 <CheckAlternatives+0x38>
  }

  if (Flag)         /* take alternative component */
  {
    /* copy some data */
    Check.Found = Check.AltFound;
    21bc:	80 93 01 01 	sts	0x0101, r24	; 0x800101 <Check>

    Semi.A = AltSemi.A;
    21c0:	80 91 25 01 	lds	r24, 0x0125	; 0x800125 <AltSemi>
    21c4:	80 93 9a 01 	sts	0x019A, r24	; 0x80019a <Semi>
    Semi.B = AltSemi.B;
    21c8:	80 91 26 01 	lds	r24, 0x0126	; 0x800126 <AltSemi+0x1>
    21cc:	80 93 9b 01 	sts	0x019B, r24	; 0x80019b <Semi+0x1>
    Semi.C = AltSemi.C;
    21d0:	80 91 27 01 	lds	r24, 0x0127	; 0x800127 <AltSemi+0x2>
    21d4:	80 93 9c 01 	sts	0x019C, r24	; 0x80019c <Semi+0x2>


  /*
   *  add other special checks here
   */
}
    21d8:	08 95       	ret

000021da <Display_NextLine>:
 *               but also wait for test key/timeout
 *  - LINE_KEEP  keep first line when clearing the display
 */

void Display_NextLine(void)
{
    21da:	cf 93       	push	r28
  if (Cfg.OP_Control & OP_OUT_LCD)      /* copy to display enabled */
  {
  #endif

    Mode = UI.LineMode;            /* get current mode */
    Line = UI.CharPos_Y;           /* get current line number */
    21dc:	60 91 21 01 	lds	r22, 0x0121	; 0x800121 <UI+0x2>

    /* check if we reached the last line */
    if (Line == UI.CharMax_Y)
    21e0:	80 91 23 01 	lds	r24, 0x0123	; 0x800123 <UI+0x4>
    21e4:	86 13       	cpse	r24, r22
    21e6:	19 c0       	rjmp	.+50     	; 0x221a <Display_NextLine+0x40>
  #if defined (UI_SERIAL_COPY) || defined (UI_SERIAL_COMMANDS)
  if (Cfg.OP_Control & OP_OUT_LCD)      /* copy to display enabled */
  {
  #endif

    Mode = UI.LineMode;            /* get current mode */
    21e8:	c0 91 1f 01 	lds	r28, 0x011F	; 0x80011f <UI>
    Line = UI.CharPos_Y;           /* get current line number */

    /* check if we reached the last line */
    if (Line == UI.CharMax_Y)
    {
      if (Mode & LINE_KEY) WaitKey();   /* wait for key press */
    21ec:	c0 fd       	sbrc	r28, 0
    21ee:	0e 94 44 07 	call	0xe88	; 0xe88 <WaitKey>

      /* clear screen */
      if (Mode & LINE_KEEP)        /* keep first line */
    21f2:	c1 ff       	sbrs	r28, 1
    21f4:	0e c0       	rjmp	.+28     	; 0x2212 <Display_NextLine+0x38>
      {
        Line = UI.CharMax_Y;       /* start at the last line */
    21f6:	c0 91 23 01 	lds	r28, 0x0123	; 0x800123 <UI+0x4>
        while (Line > 1)
    21fa:	c2 30       	cpi	r28, 0x02	; 2
    21fc:	28 f4       	brcc	.+10     	; 0x2208 <Display_NextLine+0x2e>
        {
          LCD_ClearLine(Line);     /* clear line */
          Line--;                  /* next line */
        }

        LCD_CharPos(1, 2);         /* move to second line */
    21fe:	62 e0       	ldi	r22, 0x02	; 2
    }
    else
    {
      /* simply move to the next line */
      Line++;                      /* add one line */
      LCD_CharPos(1, Line);        /* move to new line */
    2200:	81 e0       	ldi	r24, 0x01	; 1
    2202:	0e 94 17 2b 	call	0x562e	; 0x562e <LCD_CharPos>
  if (Cfg.OP_Control & OP_OUT_SER)      /* copy to serial enabled */
  {
    Serial_NewLine();                   /* serial: new line */
  }
  #endif
}
    2206:	07 c0       	rjmp	.+14     	; 0x2216 <Display_NextLine+0x3c>
      if (Mode & LINE_KEEP)        /* keep first line */
      {
        Line = UI.CharMax_Y;       /* start at the last line */
        while (Line > 1)
        {
          LCD_ClearLine(Line);     /* clear line */
    2208:	8c 2f       	mov	r24, r28
    220a:	0e 94 18 2b 	call	0x5630	; 0x5630 <LCD_ClearLine>
          Line--;                  /* next line */
    220e:	c1 50       	subi	r28, 0x01	; 1
    2210:	f4 cf       	rjmp	.-24     	; 0x21fa <Display_NextLine+0x20>

        LCD_CharPos(1, 2);         /* move to second line */
      }
      else                         /* clear complete screen */
      {
        LCD_Clear();               /* clear screen */
    2212:	0e 94 16 2b 	call	0x562c	; 0x562c <LCD_Clear>
  if (Cfg.OP_Control & OP_OUT_SER)      /* copy to serial enabled */
  {
    Serial_NewLine();                   /* serial: new line */
  }
  #endif
}
    2216:	cf 91       	pop	r28
    2218:	08 95       	ret
      }
    }
    else
    {
      /* simply move to the next line */
      Line++;                      /* add one line */
    221a:	6f 5f       	subi	r22, 0xFF	; 255
    221c:	f1 cf       	rjmp	.-30     	; 0x2200 <Display_NextLine+0x26>

0000221e <Display_EEString>:
 *  requires:
 *  - pointer to fixed string
 */

void Display_EEString(const unsigned char *String)
{
    221e:	cf 93       	push	r28
    2220:	df 93       	push	r29
    2222:	ec 01       	movw	r28, r24
  unsigned char     Char;          /* character */

  /* read characters until we get the terminating 0 */
  while ((Char = DATA_read_byte(String)))
    2224:	ce 01       	movw	r24, r28
    2226:	0e 94 e9 2d 	call	0x5bd2	; 0x5bd2 <eeprom_read_byte>
    222a:	81 11       	cpse	r24, r1
    222c:	03 c0       	rjmp	.+6      	; 0x2234 <Display_EEString+0x16>
  {
    Display_Char(Char);            /* send character */
    String++;                      /* next one */
  }
}
    222e:	df 91       	pop	r29
    2230:	cf 91       	pop	r28
    2232:	08 95       	ret
  unsigned char     Char;          /* character */

  /* read characters until we get the terminating 0 */
  while ((Char = DATA_read_byte(String)))
  {
    Display_Char(Char);            /* send character */
    2234:	0e 94 fe 2a 	call	0x55fc	; 0x55fc <LCD_Char>
    String++;                      /* next one */
    2238:	21 96       	adiw	r28, 0x01	; 1
    223a:	f4 cf       	rjmp	.-24     	; 0x2224 <Display_EEString+0x6>

0000223c <Display_ProbeNumber>:
  #ifdef UI_PROBE_REVERSED
    /* since probe-1 is 0 we simply add the ID to ASCII LCD_CHAR_1_INV */
    Display_Char(LCD_CHAR_1_INV + Probe);    /* send char */
  #else
    /* since probe-1 is 0 we simply add the ID to ASCII '1' */
    Display_Char('1' + Probe);               /* send char */
    223c:	8f 5c       	subi	r24, 0xCF	; 207
    223e:	0e 94 fe 2a 	call	0x55fc	; 0x55fc <LCD_Char>
  #endif

  #ifdef UI_PROBE_COLORS
  UI.PenColor = Color;                  /* restore old color */
  #endif
}
    2242:	08 95       	ret

00002244 <Display_SemiPinDesignator>:

  Color = UI.PenColor;                  /* save current color */
  UI.PenColor = ProbeColors[Probe];     /* set probe color */
  #endif

  Char = Get_SemiPinDesignator(Probe);  /* get pin designator */
    2244:	0e 94 6e 00 	call	0xdc	; 0xdc <Get_SemiPinDesignator>
  Display_Char(Char);                   /* display ID */
    2248:	0e 94 fe 2a 	call	0x55fc	; 0x55fc <LCD_Char>

  #ifdef UI_PROBE_COLORS
  UI.PenColor = Color;                  /* restore old color */
  #endif
}
    224c:	08 95       	ret

0000224e <Display_Space>:
 *  display a space
 */

void Display_Space(void)
{
  Display_Char(' ');          /* print a space */
    224e:	80 e2       	ldi	r24, 0x20	; 32
    2250:	0e 94 fe 2a 	call	0x55fc	; 0x55fc <LCD_Char>
}
    2254:	08 95       	ret

00002256 <Display_Minus>:
 *  display a minus sign
 */

void Display_Minus(void)
{
  Display_Char('-');          /* print a minus */
    2256:	8d e2       	ldi	r24, 0x2D	; 45
    2258:	0e 94 fe 2a 	call	0x55fc	; 0x55fc <LCD_Char>
}
    225c:	08 95       	ret

0000225e <Display_Colon>:
 *  display a colon
 */

void Display_Colon(void)
{
  Display_Char(':');          /* print a minus */
    225e:	8a e3       	ldi	r24, 0x3A	; 58
    2260:	0e 94 fe 2a 	call	0x55fc	; 0x55fc <LCD_Char>
}
    2264:	08 95       	ret

00002266 <Display_EEString_Space>:
 *  - pointer to fixed string
 */

void Display_EEString_Space(const unsigned char *String)
{
  Display_EEString(String);   /* display string */
    2266:	0e 94 0f 11 	call	0x221e	; 0x221e <Display_EEString>
  Display_Space();            /* print space */
    226a:	0e 94 27 11 	call	0x224e	; 0x224e <Display_Space>
}
    226e:	08 95       	ret

00002270 <Display_NL_EEString>:
 *  requires:
 *  - pointer to fixed string
 */

void Display_NL_EEString(const unsigned char *String)
{
    2270:	cf 93       	push	r28
    2272:	df 93       	push	r29
    2274:	ec 01       	movw	r28, r24
  Display_NextLine();
    2276:	0e 94 ed 10 	call	0x21da	; 0x21da <Display_NextLine>
  Display_EEString(String);   /* display string */
    227a:	ce 01       	movw	r24, r28
    227c:	0e 94 0f 11 	call	0x221e	; 0x221e <Display_EEString>
}
    2280:	df 91       	pop	r29
    2282:	cf 91       	pop	r28
    2284:	08 95       	ret

00002286 <Display_NL_EEString_Space>:
 *  requires:
 *  - pointer to fixed string
 */

void Display_NL_EEString_Space(const unsigned char *String)
{
    2286:	cf 93       	push	r28
    2288:	df 93       	push	r29
    228a:	ec 01       	movw	r28, r24
  Display_NextLine();
    228c:	0e 94 ed 10 	call	0x21da	; 0x21da <Display_NextLine>
  Display_EEString(String);   /* display string */
    2290:	ce 01       	movw	r24, r28
    2292:	0e 94 0f 11 	call	0x221e	; 0x221e <Display_EEString>
  Display_Space();            /* print space */
    2296:	0e 94 27 11 	call	0x224e	; 0x224e <Display_Space>
}
    229a:	df 91       	pop	r29
    229c:	cf 91       	pop	r28
    229e:	08 95       	ret

000022a0 <LCD_ClearLine2>:
 *  - and move cursor to start of line
 */

void LCD_ClearLine2(void)
{
  LCD_ClearLine(2);           /* clear line #2 */
    22a0:	82 e0       	ldi	r24, 0x02	; 2
    22a2:	0e 94 18 2b 	call	0x5630	; 0x5630 <LCD_ClearLine>
  LCD_CharPos(1, 2);          /* move to start of line #2 */
    22a6:	62 e0       	ldi	r22, 0x02	; 2
    22a8:	81 e0       	ldi	r24, 0x01	; 1
    22aa:	0e 94 17 2b 	call	0x562e	; 0x562e <LCD_CharPos>
}
    22ae:	08 95       	ret

000022b0 <LCD_ClearLine3>:
 *  - and move cursor to start of line
 */

void LCD_ClearLine3(void)
{
  LCD_ClearLine(3);           /* clear line #3 */
    22b0:	83 e0       	ldi	r24, 0x03	; 3
    22b2:	0e 94 18 2b 	call	0x5630	; 0x5630 <LCD_ClearLine>
  LCD_CharPos(1, 3);          /* move to start of line #3 */
    22b6:	63 e0       	ldi	r22, 0x03	; 3
    22b8:	81 e0       	ldi	r24, 0x01	; 1
    22ba:	0e 94 17 2b 	call	0x562e	; 0x562e <LCD_CharPos>
}
    22be:	08 95       	ret

000022c0 <Display_HexDigit>:
   *  - 0-9: ascii 48-57
   *  - A-F: ascii 65-70
   *    a-f: ascii 97-102
   */

  if (Digit < 10)             /* 0-9 */
    22c0:	8a 30       	cpi	r24, 0x0A	; 10
    22c2:	20 f4       	brcc	.+8      	; 0x22cc <Display_HexDigit+0xc>
  {
    /* char '0' is ASCII 48 */
    Digit += 48;                   /* char 0-9 */
    22c4:	80 5d       	subi	r24, 0xD0	; 208

  #ifdef UI_COLORED_VALUES
  Display_UseValueColor();    /* set value color */
  #endif

  Display_Char(Digit);        /* display digit */
    22c6:	0e 94 fe 2a 	call	0x55fc	; 0x55fc <LCD_Char>

  #ifdef UI_COLORED_VALUES
  Display_UseOldColor();      /* reset pen color */
  #endif
}
    22ca:	08 95       	ret
    #ifdef UI_HEX_UPPERCASE
      /* char 'A' is ASCII 65 */
      Digit += (65 - 10);          /* char A-F */
    #else
      /* char 'a' is ASCII 97 */
      Digit += (97 - 10);          /* char a-f */
    22cc:	89 5a       	subi	r24, 0xA9	; 169
    22ce:	fb cf       	rjmp	.-10     	; 0x22c6 <Display_HexDigit+0x6>

000022d0 <Display_HexByte>:
 *  requires:
 *  - value to display (0-255)
 */

void Display_HexByte(uint8_t Value)
{
    22d0:	cf 93       	push	r28
    22d2:	c8 2f       	mov	r28, r24
  uint8_t           Digit;

  /* first digit */
  Digit = Value / 16;
  Display_HexDigit(Digit);
    22d4:	82 95       	swap	r24
    22d6:	8f 70       	andi	r24, 0x0F	; 15
    22d8:	0e 94 60 11 	call	0x22c0	; 0x22c0 <Display_HexDigit>

  /* second digit */
  Digit = Value % 16;
  Display_HexDigit(Digit);
    22dc:	8c 2f       	mov	r24, r28
    22de:	8f 70       	andi	r24, 0x0F	; 15
    22e0:	0e 94 60 11 	call	0x22c0	; 0x22c0 <Display_HexDigit>
}
    22e4:	cf 91       	pop	r28
    22e6:	08 95       	ret

000022e8 <Display_Value>:
 *    e.g: p = 10^-12 -> -12
 *  - unit character (0 = none)
 */

void Display_Value(uint32_t Value, int8_t Exponent, unsigned char Unit)
{
    22e8:	b0 e0       	ldi	r27, 0x00	; 0
    22ea:	a0 e0       	ldi	r26, 0x00	; 0
    22ec:	ea e7       	ldi	r30, 0x7A	; 122
    22ee:	f1 e1       	ldi	r31, 0x11	; 17
    22f0:	0c 94 72 2d 	jmp	0x5ae4	; 0x5ae4 <__prologue_saves__+0xc>
    22f4:	6b 01       	movw	r12, r22
    22f6:	7c 01       	movw	r14, r24
    22f8:	c4 2f       	mov	r28, r20
    22fa:	12 2f       	mov	r17, r18

  /* scale value down to 4 digits */
  while (Value >= 10000)
  {
    Value += 5;                       /* for automagic rounding */
    Value = Value / 10;               /* scale down by 10^1 */
    22fc:	9a e0       	ldi	r25, 0x0A	; 10
    22fe:	89 2e       	mov	r8, r25
    2300:	91 2c       	mov	r9, r1
    2302:	a1 2c       	mov	r10, r1
    2304:	b1 2c       	mov	r11, r1
  uint8_t           Offset = 0;         /* exponent offset to lower 10^3 step */
  uint8_t           Index;              /* index ID */
  uint8_t           Length;             /* string length */

  /* scale value down to 4 digits */
  while (Value >= 10000)
    2306:	80 e1       	ldi	r24, 0x10	; 16
    2308:	c8 16       	cp	r12, r24
    230a:	87 e2       	ldi	r24, 0x27	; 39
    230c:	d8 06       	cpc	r13, r24
    230e:	e1 04       	cpc	r14, r1
    2310:	f1 04       	cpc	r15, r1
    2312:	08 f0       	brcs	.+2      	; 0x2316 <Display_Value+0x2e>
    2314:	55 c0       	rjmp	.+170    	; 0x23c0 <Display_Value+0xd8>

  /*
   *  determine prefix and offset (= number of digits right of dot)
   */

  if (Exponent >= -15)                  /* prevent index underflow */
    2316:	c1 3f       	cpi	r28, 0xF1	; 241
    2318:	0c f4       	brge	.+2      	; 0x231c <Display_Value+0x34>
    231a:	60 c0       	rjmp	.+192    	; 0x23dc <Display_Value+0xf4>
  {
    Exponent += 15;                     /* shift exponent to be >= 0 */
    231c:	8f e0       	ldi	r24, 0x0F	; 15
    231e:	8c 0f       	add	r24, r28
    Index = Exponent / 3;               /* number of 10^3 steps */
    2320:	23 e0       	ldi	r18, 0x03	; 3
    Offset = Exponent % 3;              /* offset to lower 10^3 step */
    2322:	62 2f       	mov	r22, r18
    2324:	0e 94 ce 2c 	call	0x599c	; 0x599c <__divmodqi4>
    2328:	d9 2f       	mov	r29, r25

    #ifdef UI_PREFIX
    /* dot required or 4-digit value */
    if ((Offset > 0) || (Value >= 1000))
    #else
    if (Offset > 0)                     /* dot required */
    232a:	99 23       	and	r25, r25
    232c:	19 f0       	breq	.+6      	; 0x2334 <Display_Value+0x4c>
    #endif
    {
      Index++;                          /* upscale prefix */ 
    232e:	8f 5f       	subi	r24, 0xFF	; 255
      Offset = 3 - Offset;              /* reverse value (1 or 2) */
    2330:	29 1b       	sub	r18, r25
    2332:	d2 2f       	mov	r29, r18
    }

    /* look up prefix in table */
    if (Index < NUM_PREFIXES)           /* prevent array overflow */
    2334:	88 30       	cpi	r24, 0x08	; 8
    2336:	08 f0       	brcs	.+2      	; 0x233a <Display_Value+0x52>
    2338:	52 c0       	rjmp	.+164    	; 0x23de <Display_Value+0xf6>
    {
      Prefix = DATA_read_byte(&Prefix_table[Index]);
    233a:	90 e0       	ldi	r25, 0x00	; 0
    233c:	86 53       	subi	r24, 0x36	; 54
    233e:	9f 4f       	sbci	r25, 0xFF	; 255
    2340:	0e 94 e9 2d 	call	0x5bd2	; 0x5bd2 <eeprom_read_byte>
    2344:	08 2f       	mov	r16, r24
    } else if (__radix < 2 || __radix > 36) {
	*__s = 0;
	return __s;
    } else {
	extern char *__utoa_ncheck (unsigned int, char *, unsigned char);
	return __utoa_ncheck (__val, __s, __radix);
    2346:	4a e0       	ldi	r20, 0x0A	; 10
    2348:	6c e2       	ldi	r22, 0x2C	; 44
    234a:	71 e0       	ldi	r23, 0x01	; 1
    234c:	c6 01       	movw	r24, r12
    234e:	0e 94 af 2d 	call	0x5b5e	; 0x5b5e <__utoa_ncheck>
  Display_UseValueColor();              /* set value color */
  #endif

  /* convert value into string */
  utoa((uint16_t)Value, OutBuffer, 10);   /* radix 10: max. 5 chars + /0 */
  Length = strlen(OutBuffer);             /* get string length */
    2352:	8c e2       	ldi	r24, 0x2C	; 44
    2354:	91 e0       	ldi	r25, 0x01	; 1
    2356:	fc 01       	movw	r30, r24
    2358:	01 90       	ld	r0, Z+
    235a:	00 20       	and	r0, r0
    235c:	e9 f7       	brne	.-6      	; 0x2358 <Display_Value+0x70>
    235e:	cf 01       	movw	r24, r30
    2360:	8d 52       	subi	r24, 0x2D	; 45
    2362:	91 40       	sbci	r25, 0x01	; 1
    2364:	b8 2e       	mov	r11, r24

  /* we misuse Exponent for the dot position */
  Exponent = Length - Offset;           /* calculate position */
    2366:	c8 2f       	mov	r28, r24
    2368:	cd 1b       	sub	r28, r29

  if (Exponent <= 0)                    /* we have to prepend "0." */
    236a:	1c 16       	cp	r1, r28
    236c:	5c f0       	brlt	.+22     	; 0x2384 <Display_Value+0x9c>
  {
    /* 0: factor 10 / -1: factor 100 */
    Display_Char('0');                  /* display: 0 */
    236e:	80 e3       	ldi	r24, 0x30	; 48
    2370:	0e 94 fe 2a 	call	0x55fc	; 0x55fc <LCD_Char>
    #ifdef UI_COMMA
      Display_Char(',');                /* display: , */
    #else
      Display_Char('.');                /* display: . */
    2374:	8e e2       	ldi	r24, 0x2E	; 46
    2376:	0e 94 fe 2a 	call	0x55fc	; 0x55fc <LCD_Char>
    #endif
    if (Exponent < 0)                   /* factor 100 */
    237a:	cc 23       	and	r28, r28
    237c:	19 f0       	breq	.+6      	; 0x2384 <Display_Value+0x9c>
    {
      Display_Char('0');                /* additional 0 */
    237e:	80 e3       	ldi	r24, 0x30	; 48
    2380:	0e 94 fe 2a 	call	0x55fc	; 0x55fc <LCD_Char>
    }
  }

  if (Offset == 0)                 /* no dot needed */
    2384:	d1 11       	cpse	r29, r1
    2386:	01 c0       	rjmp	.+2      	; 0x238a <Display_Value+0xa2>
  {
    Exponent = -1;                 /* disable dot */
    2388:	cf ef       	ldi	r28, 0xFF	; 255
  }

  /* adjust position to match array or disable dot if set to 0 */ 
  Exponent--;
    238a:	c1 50       	subi	r28, 0x01	; 1
    238c:	8c e2       	ldi	r24, 0x2C	; 44
    238e:	c8 2e       	mov	r12, r24
    2390:	81 e0       	ldi	r24, 0x01	; 1
    2392:	d8 2e       	mov	r13, r24

  /* display value and add dot if requested */
  Index = 0;
  while (Index < Length)                /* loop through string */
    2394:	f1 2c       	mov	r15, r1
    2396:	e1 2c       	mov	r14, r1
  {
    Display_Char(OutBuffer[Index]);     /* display char/digit */

    if (Index == Exponent)              /* starting point of decimal fraction */
    2398:	0c 2e       	mov	r0, r28
    239a:	00 0c       	add	r0, r0
    239c:	dd 0b       	sbc	r29, r29
  /* adjust position to match array or disable dot if set to 0 */ 
  Exponent--;

  /* display value and add dot if requested */
  Index = 0;
  while (Index < Length)                /* loop through string */
    239e:	eb 14       	cp	r14, r11
    23a0:	00 f1       	brcs	.+64     	; 0x23e2 <Display_Value+0xfa>
  #ifdef UI_COLORED_VALUES
  Display_UseOldColor();                /* reset pen color */
  #endif

  /* display prefix and unit */
  if (Prefix)                      /* prefix available */
    23a2:	00 23       	and	r16, r16
    23a4:	19 f0       	breq	.+6      	; 0x23ac <Display_Value+0xc4>
  {
    Display_Char(Prefix);
    23a6:	80 2f       	mov	r24, r16
    23a8:	0e 94 fe 2a 	call	0x55fc	; 0x55fc <LCD_Char>
  }
  if (Unit)                        /* unit available */
    23ac:	11 23       	and	r17, r17
    23ae:	19 f0       	breq	.+6      	; 0x23b6 <Display_Value+0xce>
  {
    Display_Char(Unit);
    23b0:	81 2f       	mov	r24, r17
    23b2:	0e 94 fe 2a 	call	0x55fc	; 0x55fc <LCD_Char>
  }
}
    23b6:	cd b7       	in	r28, 0x3d	; 61
    23b8:	de b7       	in	r29, 0x3e	; 62
    23ba:	ec e0       	ldi	r30, 0x0C	; 12
    23bc:	0c 94 8e 2d 	jmp	0x5b1c	; 0x5b1c <__epilogue_restores__+0xc>
  uint8_t           Length;             /* string length */

  /* scale value down to 4 digits */
  while (Value >= 10000)
  {
    Value += 5;                       /* for automagic rounding */
    23c0:	c7 01       	movw	r24, r14
    23c2:	b6 01       	movw	r22, r12
    23c4:	6b 5f       	subi	r22, 0xFB	; 251
    23c6:	7f 4f       	sbci	r23, 0xFF	; 255
    23c8:	8f 4f       	sbci	r24, 0xFF	; 255
    23ca:	9f 4f       	sbci	r25, 0xFF	; 255
    Value = Value / 10;               /* scale down by 10^1 */
    23cc:	a5 01       	movw	r20, r10
    23ce:	94 01       	movw	r18, r8
    23d0:	0e 94 04 2d 	call	0x5a08	; 0x5a08 <__udivmodsi4>
    23d4:	69 01       	movw	r12, r18
    23d6:	7a 01       	movw	r14, r20
    23d8:	cf 5f       	subi	r28, 0xFF	; 255
    23da:	95 cf       	rjmp	.-214    	; 0x2306 <Display_Value+0x1e>
 */

void Display_Value(uint32_t Value, int8_t Exponent, unsigned char Unit)
{
  unsigned char     Prefix = 0;         /* prefix character */
  uint8_t           Offset = 0;         /* exponent offset to lower 10^3 step */
    23dc:	d0 e0       	ldi	r29, 0x00	; 0
 *  - unit character (0 = none)
 */

void Display_Value(uint32_t Value, int8_t Exponent, unsigned char Unit)
{
  unsigned char     Prefix = 0;         /* prefix character */
    23de:	00 e0       	ldi	r16, 0x00	; 0
    23e0:	b2 cf       	rjmp	.-156    	; 0x2346 <Display_Value+0x5e>

  /* display value and add dot if requested */
  Index = 0;
  while (Index < Length)                /* loop through string */
  {
    Display_Char(OutBuffer[Index]);     /* display char/digit */
    23e2:	f6 01       	movw	r30, r12
    23e4:	81 91       	ld	r24, Z+
    23e6:	6f 01       	movw	r12, r30
    23e8:	0e 94 fe 2a 	call	0x55fc	; 0x55fc <LCD_Char>

    if (Index == Exponent)              /* starting point of decimal fraction */
    23ec:	ce 15       	cp	r28, r14
    23ee:	df 05       	cpc	r29, r15
    23f0:	19 f4       	brne	.+6      	; 0x23f8 <Display_Value+0x110>
    {
      #ifdef UI_COMMA
        Display_Char(',');              /* display: , */
      #else
        Display_Char('.');              /* display: . */
    23f2:	8e e2       	ldi	r24, 0x2E	; 46
    23f4:	0e 94 fe 2a 	call	0x55fc	; 0x55fc <LCD_Char>
    23f8:	ff ef       	ldi	r31, 0xFF	; 255
    23fa:	ef 1a       	sub	r14, r31
    23fc:	ff 0a       	sbc	r15, r31
    23fe:	cf cf       	rjmp	.-98     	; 0x239e <Display_Value+0xb6>

00002400 <Display_Value2>:
 */

void Display_Value2(uint32_t Value)
{
  /* call Display_Value() without exponent (10^0) and unit (0) */
  Display_Value(Value, 0 , 0);
    2400:	20 e0       	ldi	r18, 0x00	; 0
    2402:	40 e0       	ldi	r20, 0x00	; 0
    2404:	0e 94 74 11 	call	0x22e8	; 0x22e8 <Display_Value>
}
    2408:	08 95       	ret

0000240a <Display_SignedValue>:
 *    e.g: p = 10^-12 -> -12
 *  - unit character (0 = none)
 */

void Display_SignedValue(int32_t Value, int8_t Exponent, unsigned char Unit)
{
    240a:	cf 92       	push	r12
    240c:	df 92       	push	r13
    240e:	ef 92       	push	r14
    2410:	ff 92       	push	r15
    2412:	cf 93       	push	r28
    2414:	df 93       	push	r29
    2416:	6b 01       	movw	r12, r22
    2418:	7c 01       	movw	r14, r24
    241a:	c4 2f       	mov	r28, r20
    241c:	d2 2f       	mov	r29, r18
  /* take care about sign */
  if (Value < 0)              /* negative value */
    241e:	f7 fe       	sbrs	r15, 7
    2420:	0a c0       	rjmp	.+20     	; 0x2436 <Display_SignedValue+0x2c>
  {
    #ifdef UI_COLORED_VALUES
    Display_UseValueColor();  /* set value color */
    #endif

    Display_Minus();          /* display: "-" */
    2422:	0e 94 2b 11 	call	0x2256	; 0x2256 <Display_Minus>

    #ifdef UI_COLORED_VALUES
    Display_UseOldColor();    /* reset pen color */
    #endif

    Value = -Value;           /* make value positive */
    2426:	f0 94       	com	r15
    2428:	e0 94       	com	r14
    242a:	d0 94       	com	r13
    242c:	c0 94       	com	r12
    242e:	c1 1c       	adc	r12, r1
    2430:	d1 1c       	adc	r13, r1
    2432:	e1 1c       	adc	r14, r1
    2434:	f1 1c       	adc	r15, r1
  }

  /* and display unsigned value */
  Display_Value((uint32_t)Value, Exponent, Unit);
    2436:	2d 2f       	mov	r18, r29
    2438:	4c 2f       	mov	r20, r28
    243a:	c7 01       	movw	r24, r14
    243c:	b6 01       	movw	r22, r12
    243e:	0e 94 74 11 	call	0x22e8	; 0x22e8 <Display_Value>
}
    2442:	df 91       	pop	r29
    2444:	cf 91       	pop	r28
    2446:	ff 90       	pop	r15
    2448:	ef 90       	pop	r14
    244a:	df 90       	pop	r13
    244c:	cf 90       	pop	r12
    244e:	08 95       	ret

00002450 <SmallResistor>:
 *  returns:
 *  - resistance in 0.01 Ohm
 */

uint16_t SmallResistor(uint8_t ZeroFlag)
{
    2450:	b0 e0       	ldi	r27, 0x00	; 0
    2452:	a0 e0       	ldi	r26, 0x00	; 0
    2454:	ee e2       	ldi	r30, 0x2E	; 46
    2456:	f2 e1       	ldi	r31, 0x12	; 18
    2458:	0c 94 6e 2d 	jmp	0x5adc	; 0x5adc <__prologue_saves__+0x4>
    245c:	18 2f       	mov	r17, r24
  uint8_t           Counter;       /* sample counter */
  uint32_t          Value;         /* ADC sample value */
  uint32_t          Value1 = 0;    /* U_Rl temp. value */
  uint32_t          Value2 = 0;    /* U_R_i_L temp. value */

  DischargeProbes();                    /* try to discharge probes */
    245e:	0e 94 d4 0e 	call	0x1da8	; 0x1da8 <DischargeProbes>
  if (Check.Found == COMP_ERROR) return R;   /* skip on error */
    2462:	80 91 01 01 	lds	r24, 0x0101	; 0x800101 <Check>
    2466:	81 30       	cpi	r24, 0x01	; 1
    2468:	09 f4       	brne	.+2      	; 0x246c <SmallResistor+0x1c>
    246a:	a5 c0       	rjmp	.+330    	; 0x25b6 <SmallResistor+0x166>
   *  - repeat that for the low side of the DUT
   *  - use ADC directly
   */

  /* set probes: GND -- probe 2 / probe 1 -- Rl -- 5V */
  ADC_PORT = 0;                         /* set ADC port to low */
    246c:	18 b8       	out	0x08, r1	; 8
  ADC_DDR = Probes.Pin_2;               /* pull-down probe 2 directly */
    246e:	80 91 c2 01 	lds	r24, 0x01C2	; 0x8001c2 <Probes+0xd>
    2472:	87 b9       	out	0x07, r24	; 7
  R_PORT = Probes.Rl_1;                 /* pull-up probe 1 via Rl */
    2474:	80 91 bb 01 	lds	r24, 0x01BB	; 0x8001bb <Probes+0x6>
    2478:	8b b9       	out	0x0b, r24	; 11
  R_DDR = Probes.Rl_1;                  /* enable Rl for probe 1 */
    247a:	8a b9       	out	0x0a, r24	; 10
  wait10ms();                           /* settle time */
    247c:	0e 94 28 2b 	call	0x5650	; 0x5650 <wait10ms>
    2480:	c2 e0       	ldi	r28, 0x02	; 2
    2482:	d0 e0       	ldi	r29, 0x00	; 0
  uint16_t          R = 0;         /* return value */
  uint8_t           Probe;         /* probe ID */
  uint8_t           Mode;          /* measurement mode */
  uint8_t           Counter;       /* sample counter */
  uint32_t          Value;         /* ADC sample value */
  uint32_t          Value1 = 0;    /* U_Rl temp. value */
    2484:	c1 2c       	mov	r12, r1
    2486:	d1 2c       	mov	r13, r1
    2488:	76 01       	movw	r14, r12
  while (Mode > 0)
  {
    /* set up measurement */
    if (Mode & MODE_HIGH)     /* high side mode */
    {
      Probe = Probes.Ch_1;    /* measure at probe 1 */
    248a:	80 91 c4 01 	lds	r24, 0x01C4	; 0x8001c4 <Probes+0xf>
    else                      /* low side mode */
    {
      Probe = Probes.Ch_2;    /* measure at probe 2 */
    }

    wdt_reset();              /* reset watchdog */
    248e:	a8 95       	wdr
    Counter = 0;              /* reset loop counter */
    Value = 0;                /* reset sample value */

    /* set ADC to use bandgap reference and run a dummy conversion */
    Probe |= ADC_REF_BANDGAP;
    2490:	80 6c       	ori	r24, 0xC0	; 192
    ADMUX = Probe;                   /* set input channel and U reference */
    2492:	80 93 7c 00 	sts	0x007C, r24	; 0x80007c <__TEXT_REGION_LENGTH__+0x7f807c>
    #ifndef ADC_LARGE_BUFFER_CAP
      /* buffer cap: 1nF or none at all */
      wait100us();                   /* time for voltage stabilization */
    2496:	0e 94 32 2b 	call	0x5664	; 0x5664 <wait100us>
    #else
      /* buffer cap: 100nF */
      wait10ms();                    /* time for voltage stabilization */
    #endif
    ADCSRA |= (1 << ADSC);           /* start conversion */
    249a:	80 91 7a 00 	lds	r24, 0x007A	; 0x80007a <__TEXT_REGION_LENGTH__+0x7f807a>
    249e:	80 64       	ori	r24, 0x40	; 64
    24a0:	80 93 7a 00 	sts	0x007A, r24	; 0x80007a <__TEXT_REGION_LENGTH__+0x7f807a>
    while (ADCSRA & (1 << ADSC));    /* wait until conversion is done */
    24a4:	80 91 7a 00 	lds	r24, 0x007A	; 0x80007a <__TEXT_REGION_LENGTH__+0x7f807a>
    24a8:	86 fd       	sbrc	r24, 6
    24aa:	fc cf       	rjmp	.-8      	; 0x24a4 <SmallResistor+0x54>
    24ac:	04 e6       	ldi	r16, 0x64	; 100
      Probe = Probes.Ch_2;    /* measure at probe 2 */
    }

    wdt_reset();              /* reset watchdog */
    Counter = 0;              /* reset loop counter */
    Value = 0;                /* reset sample value */
    24ae:	81 2c       	mov	r8, r1
    24b0:	91 2c       	mov	r9, r1
    24b2:	54 01       	movw	r10, r8
     */

    while (Counter < 100)
    {
      /* get ADC reading (about 100Ás) */
      ADCSRA |= (1 << ADSC);            /* start conversion */
    24b4:	80 91 7a 00 	lds	r24, 0x007A	; 0x80007a <__TEXT_REGION_LENGTH__+0x7f807a>
    24b8:	80 64       	ori	r24, 0x40	; 64
    24ba:	80 93 7a 00 	sts	0x007A, r24	; 0x80007a <__TEXT_REGION_LENGTH__+0x7f807a>
      while (ADCSRA & (1 << ADSC));     /* wait until conversion is done */
    24be:	80 91 7a 00 	lds	r24, 0x007A	; 0x80007a <__TEXT_REGION_LENGTH__+0x7f807a>
    24c2:	86 fd       	sbrc	r24, 6
    24c4:	fc cf       	rjmp	.-8      	; 0x24be <SmallResistor+0x6e>
      Value += ADCW;                    /* add ADC reading */
    24c6:	80 91 78 00 	lds	r24, 0x0078	; 0x800078 <__TEXT_REGION_LENGTH__+0x7f8078>
    24ca:	90 91 79 00 	lds	r25, 0x0079	; 0x800079 <__TEXT_REGION_LENGTH__+0x7f8079>
    24ce:	88 0e       	add	r8, r24
    24d0:	99 1e       	adc	r9, r25
    24d2:	a1 1c       	adc	r10, r1
    24d4:	b1 1c       	adc	r11, r1

      wait400us();                      /* wait */
    24d6:	0e 94 2f 2b 	call	0x565e	; 0x565e <wait400us>
    24da:	01 50       	subi	r16, 0x01	; 1

    /*
     *  measurement loop (about 0.5ms per cycle)
     */

    while (Counter < 100)
    24dc:	59 f7       	brne	.-42     	; 0x24b4 <SmallResistor+0x64>

      Counter++;                        /* next round */
    }

    /* convert ADC reading into voltage (sum of samples) */
    Value *= Cfg.Bandgap;          /* * U_bandgap */
    24de:	a0 91 8c 01 	lds	r26, 0x018C	; 0x80018c <Cfg+0x6>
    24e2:	b0 91 8d 01 	lds	r27, 0x018D	; 0x80018d <Cfg+0x7>
    24e6:	a5 01       	movw	r20, r10
    24e8:	94 01       	movw	r18, r8
    24ea:	0e 94 61 2d 	call	0x5ac2	; 0x5ac2 <__muluhisi3>
    Value /= 1024;                 /* / 1024 for 10bit ADC */
    24ee:	4b 01       	movw	r8, r22
    24f0:	5c 01       	movw	r10, r24
    24f2:	8a e0       	ldi	r24, 0x0A	; 10
    24f4:	b6 94       	lsr	r11
    24f6:	a7 94       	ror	r10
    24f8:	97 94       	ror	r9
    24fa:	87 94       	ror	r8
    24fc:	8a 95       	dec	r24
    24fe:	d1 f7       	brne	.-12     	; 0x24f4 <SmallResistor+0xa4>

    /* loop control */
    if (Mode & MODE_HIGH)          /* probe #1 / Rl */
    2500:	21 97       	sbiw	r28, 0x01	; 1
    2502:	79 f4       	brne	.+30     	; 0x2522 <SmallResistor+0xd2>
      Value2 = Value;              /* save measured value */
    }
  }

  /* stop current */
  R_PORT = 0;
    2504:	1b b8       	out	0x0b, r1	; 11
  ADC_DDR = Probes.Pin_2 | Probes.Pin_1;
    2506:	80 91 c2 01 	lds	r24, 0x01C2	; 0x8001c2 <Probes+0xd>
    250a:	90 91 c1 01 	lds	r25, 0x01C1	; 0x8001c1 <Probes+0xc>
    250e:	89 2b       	or	r24, r25
    2510:	87 b9       	out	0x07, r24	; 7

  /*
   *  process measurement
   */

  if (Value1 > Value2)             /* sanity check */
    2512:	8c 14       	cp	r8, r12
    2514:	9d 04       	cpc	r9, r13
    2516:	ae 04       	cpc	r10, r14
    2518:	bf 04       	cpc	r11, r15
    251a:	50 f0       	brcs	.+20     	; 0x2530 <SmallResistor+0xe0>
      {
        R -= RZero;           /* subtract offset */
      }
      else                    /* can't be less then zero */
      {
        R = 0;                /* set zero */
    251c:	90 e0       	ldi	r25, 0x00	; 0
    251e:	80 e0       	ldi	r24, 0x00	; 0
    2520:	42 c0       	rjmp	.+132    	; 0x25a6 <SmallResistor+0x156>
    /* convert ADC reading into voltage (sum of samples) */
    Value *= Cfg.Bandgap;          /* * U_bandgap */
    Value /= 1024;                 /* / 1024 for 10bit ADC */

    /* loop control */
    if (Mode & MODE_HIGH)          /* probe #1 / Rl */
    2522:	c1 e0       	ldi	r28, 0x01	; 1
    2524:	d0 e0       	ldi	r29, 0x00	; 0
      Counter++;                        /* next round */
    }

    /* convert ADC reading into voltage (sum of samples) */
    Value *= Cfg.Bandgap;          /* * U_bandgap */
    Value /= 1024;                 /* / 1024 for 10bit ADC */
    2526:	75 01       	movw	r14, r10
    2528:	64 01       	movw	r12, r8
    {
      Probe = Probes.Ch_1;    /* measure at probe 1 */
    }
    else                      /* low side mode */
    {
      Probe = Probes.Ch_2;    /* measure at probe 2 */
    252a:	80 91 c5 01 	lds	r24, 0x01C5	; 0x8001c5 <Probes+0x10>
    252e:	af cf       	rjmp	.-162    	; 0x248e <SmallResistor+0x3e>
   */

  if (Value1 > Value2)             /* sanity check */
  {
    /* I = U/R = (5V - U_Rl)/(Rl + R_i_H) */
    Value = 100UL * Cfg.Vcc;                 /* Vcc * number of samples */
    2530:	20 91 8e 01 	lds	r18, 0x018E	; 0x80018e <Cfg+0x8>
    2534:	30 91 8f 01 	lds	r19, 0x018F	; 0x80018f <Cfg+0x9>
    2538:	a4 e6       	ldi	r26, 0x64	; 100
    253a:	b0 e0       	ldi	r27, 0x00	; 0
    253c:	0e 94 4b 2d 	call	0x5a96	; 0x5a96 <__umulhisi3>
    Value -= Value1;                         /* - sum of U_Rl */
    2540:	9b 01       	movw	r18, r22
    2542:	ac 01       	movw	r20, r24
    2544:	2c 19       	sub	r18, r12
    2546:	3d 09       	sbc	r19, r13
    2548:	4e 09       	sbc	r20, r14
    254a:	5f 09       	sbc	r21, r15
    Value *= 100;                            /* de-sample to 0.1 ÁV */
    254c:	0e 94 61 2d 	call	0x5ac2	; 0x5ac2 <__muluhisi3>
    2550:	2b 01       	movw	r4, r22
    2552:	3c 01       	movw	r6, r24
    Value /= ((R_LOW * 10) + NV.RiH);        /* I in ÁA */

    /* U = U_Rl - U_R_i_L = U_Rl - (R_i_L * I) */
    /* U = U_probe1 - U_probe2 */
    Value1 -= Value2;                        /* sums in mV */
    2554:	a7 01       	movw	r20, r14
    2556:	96 01       	movw	r18, r12
    2558:	28 19       	sub	r18, r8
    255a:	39 09       	sbc	r19, r9
    255c:	4a 09       	sbc	r20, r10
    255e:	5b 09       	sbc	r21, r11
    Value1 *= 1000;                          /* de-sample to 0.01 ÁV */  
    2560:	a8 ee       	ldi	r26, 0xE8	; 232
    2562:	b3 e0       	ldi	r27, 0x03	; 3
    2564:	0e 94 61 2d 	call	0x5ac2	; 0x5ac2 <__muluhisi3>
    2568:	6b 01       	movw	r12, r22
    256a:	7c 01       	movw	r14, r24
  {
    /* I = U/R = (5V - U_Rl)/(Rl + R_i_H) */
    Value = 100UL * Cfg.Vcc;                 /* Vcc * number of samples */
    Value -= Value1;                         /* - sum of U_Rl */
    Value *= 100;                            /* de-sample to 0.1 ÁV */
    Value /= ((R_LOW * 10) + NV.RiH);        /* I in ÁA */
    256c:	20 91 c9 01 	lds	r18, 0x01C9	; 0x8001c9 <NV+0x2>
    2570:	30 91 ca 01 	lds	r19, 0x01CA	; 0x8001ca <NV+0x3>
    2574:	20 57       	subi	r18, 0x70	; 112
    2576:	35 4e       	sbci	r19, 0xE5	; 229
    2578:	50 e0       	ldi	r21, 0x00	; 0
    257a:	40 e0       	ldi	r20, 0x00	; 0
    257c:	c3 01       	movw	r24, r6
    257e:	b2 01       	movw	r22, r4
    2580:	0e 94 04 2d 	call	0x5a08	; 0x5a08 <__udivmodsi4>
    /* U = U_probe1 - U_probe2 */
    Value1 -= Value2;                        /* sums in mV */
    Value1 *= 1000;                          /* de-sample to 0.01 ÁV */  

    /* R = U/I (including R of probe leads) */
    Value1 /= Value;                         /* in 0.01 Ohms */
    2584:	c7 01       	movw	r24, r14
    2586:	b6 01       	movw	r22, r12
    2588:	0e 94 04 2d 	call	0x5a08	; 0x5a08 <__udivmodsi4>
    R = (uint16_t)Value1;                    /* copy result */
    258c:	c9 01       	movw	r24, r18

    if (ZeroFlag == 1)        /* auto-zero */
    258e:	11 30       	cpi	r17, 0x01	; 1
    2590:	51 f4       	brne	.+20     	; 0x25a6 <SmallResistor+0x156>
      #ifdef R_MULTIOFFSET
      /* get index number for probe pair */
      Counter = GetOffsetIndex(Probes.ID_1, Probes.ID_2);
      RZero = NV.RZero[Counter];
      #else
      RZero = NV.RZero;
    2592:	60 91 cb 01 	lds	r22, 0x01CB	; 0x8001cb <NV+0x4>
    2596:	70 91 cc 01 	lds	r23, 0x01CC	; 0x8001cc <NV+0x5>
      #endif

      if (R > RZero)          /* should be larger than offset */
    259a:	62 17       	cp	r22, r18
    259c:	73 07       	cpc	r23, r19
    259e:	08 f0       	brcs	.+2      	; 0x25a2 <SmallResistor+0x152>
    25a0:	bd cf       	rjmp	.-134    	; 0x251c <SmallResistor+0xcc>
      {
        R -= RZero;           /* subtract offset */
    25a2:	86 1b       	sub	r24, r22
    25a4:	97 0b       	sbc	r25, r23

#undef MODE_LOW
#undef MODE_HIGH

  /* update reference source for next ADC run */
  Cfg.Ref = ADC_REF_BANDGAP;       /* we've used the bandgap reference */
    25a6:	20 ec       	ldi	r18, 0xC0	; 192
    25a8:	20 93 8b 01 	sts	0x018B, r18	; 0x80018b <Cfg+0x5>

  return R;
}
    25ac:	cd b7       	in	r28, 0x3d	; 61
    25ae:	de b7       	in	r29, 0x3e	; 62
    25b0:	e0 e1       	ldi	r30, 0x10	; 16
    25b2:	0c 94 8a 2d 	jmp	0x5b14	; 0x5b14 <__epilogue_restores__+0x4>
  uint32_t          Value;         /* ADC sample value */
  uint32_t          Value1 = 0;    /* U_Rl temp. value */
  uint32_t          Value2 = 0;    /* U_R_i_L temp. value */

  DischargeProbes();                    /* try to discharge probes */
  if (Check.Found == COMP_ERROR) return R;   /* skip on error */
    25b6:	90 e0       	ldi	r25, 0x00	; 0
    25b8:	80 e0       	ldi	r24, 0x00	; 0
    25ba:	f8 cf       	rjmp	.-16     	; 0x25ac <SmallResistor+0x15c>

000025bc <CheckResistor>:
/*
 *  check for resistor
 */

void CheckResistor(void)
{
    25bc:	b0 e0       	ldi	r27, 0x00	; 0
    25be:	a0 e0       	ldi	r26, 0x00	; 0
    25c0:	e4 ee       	ldi	r30, 0xE4	; 228
    25c2:	f2 e1       	ldi	r31, 0x12	; 18
    25c4:	0c 94 6c 2d 	jmp	0x5ad8	; 0x5ad8 <__prologue_saves__>
  uint16_t          U_Ri_H;        /* voltage at Ri oulled up */
  uint16_t          U_Ri_L;        /* voltage at Ri pulled down */
  uint16_t          U_Rh_H;        /* voltage at Rh pulled up */
  uint16_t          U_Rh_L;        /* voltage ar Rh pulled down */

  wdt_reset();                     /* reset watchdog */
    25c8:	a8 95       	wdr
  /* 
   *  Charge possible capacitor and get voltages for Rl pulled up.
   */

  /*  set probes: Gnd -- probe-2 / probe-1 -- Rl -- Vcc */
  ADC_PORT = 0;                         /* set ADC port to low */
    25ca:	18 b8       	out	0x08, r1	; 8
  ADC_DDR = Probes.Pin_2;               /* pull down probe-2 directly */
    25cc:	80 91 c2 01 	lds	r24, 0x01C2	; 0x8001c2 <Probes+0xd>
    25d0:	87 b9       	out	0x07, r24	; 7
  R_DDR = Probes.Rl_1;                  /* enable Rl for probe-1 */
    25d2:	80 91 bb 01 	lds	r24, 0x01BB	; 0x8001bb <Probes+0x6>
    25d6:	8a b9       	out	0x0a, r24	; 10
  R_PORT = Probes.Rl_1;                 /* pull up probe-1 via Rl */
    25d8:	8b b9       	out	0x0b, r24	; 11
  U_Ri_L = ReadU_5ms(Probes.Ch_2);      /* get voltage at internal R of MCU */
    25da:	80 91 c5 01 	lds	r24, 0x01C5	; 0x8001c5 <Probes+0x10>
    25de:	0e 94 c1 0d 	call	0x1b82	; 0x1b82 <ReadU_5ms>
    25e2:	4c 01       	movw	r8, r24
  U_Rl_H = ReadU(Probes.Ch_1);          /* get voltage at Rl pulled up */
    25e4:	80 91 c4 01 	lds	r24, 0x01C4	; 0x8001c4 <Probes+0xf>
    25e8:	0e 94 61 0d 	call	0x1ac2	; 0x1ac2 <ReadU>
    25ec:	ec 01       	movw	r28, r24
  /*
   *  discharge possible capacitor
   */

  /* set probes: Gnd -- probe-2 / Gnd -- Rh -- probe-1 */
  R_PORT = 0;                           /* set resistor port low */
    25ee:	1b b8       	out	0x0b, r1	; 11
  R_DDR = Probes.Rh_1;                  /* pull down probe-1 via Rh */
    25f0:	80 91 be 01 	lds	r24, 0x01BE	; 0x8001be <Probes+0x9>
    25f4:	8a b9       	out	0x0a, r24	; 10
  U_Rh_L = ReadU_5ms(Probes.Ch_1);      /* get voltage at probe-1 */
    25f6:	80 91 c4 01 	lds	r24, 0x01C4	; 0x8001c4 <Probes+0xf>
    25fa:	0e 94 c1 0d 	call	0x1b82	; 0x1b82 <ReadU_5ms>

  /* we got a resistor if the voltage is near Gnd */
  if (U_Rh_L <= 20)
    25fe:	45 97       	sbiw	r24, 0x15	; 21
    2600:	50 f5       	brcc	.+84     	; 0x2656 <CheckResistor+0x9a>
    /*
     *  get voltage for Rh pulled up
     */

    /* set probes: Gnd -- probe-2 / probe-1 -- Rh -- Vcc */
    R_PORT = Probes.Rh_1;                    /* pull up probe-1 via Rh */
    2602:	80 91 be 01 	lds	r24, 0x01BE	; 0x8001be <Probes+0x9>
    2606:	8b b9       	out	0x0b, r24	; 11
    U_Rh_H = ReadU_5ms(Probes.Ch_1);         /* get voltage at Rh pulled up */
    2608:	80 91 c4 01 	lds	r24, 0x01C4	; 0x8001c4 <Probes+0xf>
    260c:	0e 94 c1 0d 	call	0x1b82	; 0x1b82 <ReadU_5ms>
    2610:	6c 01       	movw	r12, r24
    /*
     *  get voltage for Rl pulled down and Rh pulled down
     */

    /* set probes: Gnd -- Rl -- probe-2 / probe-1 -- Vcc */
    ADC_DDR = Probes.Pin_1;                  /* set probe-1 to output */
    2612:	80 91 c1 01 	lds	r24, 0x01C1	; 0x8001c1 <Probes+0xc>
    2616:	87 b9       	out	0x07, r24	; 7
    ADC_PORT = Probes.Pin_1;                 /* pull up probe-1 directly */
    2618:	88 b9       	out	0x08, r24	; 8
    R_PORT = 0;                              /* set resistor port to low */ 
    261a:	1b b8       	out	0x0b, r1	; 11
    R_DDR = Probes.Rl_2;                     /* pull down probe-2 via Rl */
    261c:	80 91 bc 01 	lds	r24, 0x01BC	; 0x8001bc <Probes+0x7>
    2620:	8a b9       	out	0x0a, r24	; 10
    U_Ri_H = ReadU_5ms(Probes.Ch_1);         /* get voltage at internal R of MCU */
    2622:	80 91 c4 01 	lds	r24, 0x01C4	; 0x8001c4 <Probes+0xf>
    2626:	0e 94 c1 0d 	call	0x1b82	; 0x1b82 <ReadU_5ms>
    262a:	2c 01       	movw	r4, r24
    U_Rl_L = ReadU(Probes.Ch_2);             /* get voltage at Rl pulled down */
    262c:	80 91 c5 01 	lds	r24, 0x01C5	; 0x8001c5 <Probes+0x10>
    2630:	0e 94 61 0d 	call	0x1ac2	; 0x1ac2 <ReadU>
    2634:	5c 01       	movw	r10, r24

    /* set probes: Gnd -- Rh -- probe-2 / probe-1 -- Vcc */
    R_DDR = Probes.Rh_2;                /* pull down probe-2 via Rh */
    2636:	80 91 bf 01 	lds	r24, 0x01BF	; 0x8001bf <Probes+0xa>
    263a:	8a b9       	out	0x0a, r24	; 10
    U_Rh_L = ReadU_5ms(Probes.Ch_2);    /* get voltage at Rh pulled down */
    263c:	80 91 c5 01 	lds	r24, 0x01C5	; 0x8001c5 <Probes+0x10>
    2640:	0e 94 c1 0d 	call	0x1b82	; 0x1b82 <ReadU_5ms>
    2644:	3c 01       	movw	r6, r24

    /* check voltage breakdown to filter out other components */
    if ((U_Rl_H >= 4400) || (U_Rh_H <= 97))   /* R >= 5.1k or R < 9.3k */
    2646:	c0 33       	cpi	r28, 0x30	; 48
    2648:	21 e1       	ldi	r18, 0x11	; 17
    264a:	d2 07       	cpc	r29, r18
    264c:	48 f4       	brcc	.+18     	; 0x2660 <CheckResistor+0xa4>
    264e:	32 e6       	ldi	r19, 0x62	; 98
    2650:	c3 16       	cp	r12, r19
    2652:	d1 04       	cpc	r13, r1
    2654:	50 f0       	brcs	.+20     	; 0x266a <CheckResistor+0xae>
          }
        }
      }
    }
  }
}
    2656:	cd b7       	in	r28, 0x3d	; 61
    2658:	de b7       	in	r29, 0x3e	; 62
    265a:	e2 e1       	ldi	r30, 0x12	; 18
    265c:	0c 94 88 2d 	jmp	0x5b10	; 0x5b10 <__epilogue_restores__>
    U_Rh_L = ReadU_5ms(Probes.Ch_2);    /* get voltage at Rh pulled down */

    /* check voltage breakdown to filter out other components */
    if ((U_Rl_H >= 4400) || (U_Rh_H <= 97))   /* R >= 5.1k or R < 9.3k */
    {
      if (U_Rh_H < 4972)            /* R < 83.4M & prevent division by zero */
    2660:	4c e6       	ldi	r20, 0x6C	; 108
    2662:	c4 16       	cp	r12, r20
    2664:	43 e1       	ldi	r20, 0x13	; 19
    2666:	d4 06       	cpc	r13, r20
    2668:	b0 f7       	brcc	.-20     	; 0x2656 <CheckResistor+0x9a>
        /* voltage breaks down with low test current and it is not nearly 
           shorted => resistor */

        Value = 0;                      /* reset value of resistor */

        if (U_Rl_L < 169)               /* R > 19.5k */
    266a:	59 ea       	ldi	r21, 0xA9	; 169
    266c:	a5 16       	cp	r10, r21
    266e:	b1 04       	cpc	r11, r1
    2670:	08 f0       	brcs	.+2      	; 0x2674 <CheckResistor+0xb8>
    2672:	6d c0       	rjmp	.+218    	; 0x274e <CheckResistor+0x192>
          /*
           *  use measurements done with Rh
           */

          /* resistor is less than 60MOhm */
          if (U_Rh_L >= 38)        /* R < 61.4M & prevent division by zero */
    2674:	86 e2       	ldi	r24, 0x26	; 38
    2676:	68 16       	cp	r6, r24
    2678:	71 04       	cpc	r7, r1
    267a:	68 f3       	brcs	.-38     	; 0x2656 <CheckResistor+0x9a>
             *  Or via voltage divider:
             *  R = Rh * (U_dut / U_Rh)
             *    = Rh * (U_Rh_H / (Vcc - U_Rh_H))
             */

            Value1 = R_HIGH * U_Rh_H;
    267c:	d6 01       	movw	r26, r12
    267e:	20 ef       	ldi	r18, 0xF0	; 240
    2680:	3b e2       	ldi	r19, 0x2B	; 43
    2682:	47 e0       	ldi	r20, 0x07	; 7
    2684:	50 e0       	ldi	r21, 0x00	; 0
    2686:	0e 94 61 2d 	call	0x5ac2	; 0x5ac2 <__muluhisi3>
            Value1 /= (Cfg.Vcc - U_Rh_H);
    268a:	c0 91 8e 01 	lds	r28, 0x018E	; 0x80018e <Cfg+0x8>
    268e:	d0 91 8f 01 	lds	r29, 0x018F	; 0x80018f <Cfg+0x9>
    2692:	9e 01       	movw	r18, r28
    2694:	2c 19       	sub	r18, r12
    2696:	3d 09       	sbc	r19, r13
    2698:	50 e0       	ldi	r21, 0x00	; 0
    269a:	40 e0       	ldi	r20, 0x00	; 0
    269c:	0e 94 04 2d 	call	0x5a08	; 0x5a08 <__udivmodsi4>
    26a0:	49 01       	movw	r8, r18
    26a2:	5a 01       	movw	r10, r20
             *  Or via voltage divider:
             *  R = Rh * (U_R / U_Rh)
             *    = Rh * ((Vcc - U_Rh_L) / U_Rh_L)
             */

            Value2 = R_HIGH * (Cfg.Vcc - U_Rh_L);
    26a4:	de 01       	movw	r26, r28
    26a6:	a6 19       	sub	r26, r6
    26a8:	b7 09       	sbc	r27, r7
    26aa:	20 ef       	ldi	r18, 0xF0	; 240
    26ac:	3b e2       	ldi	r19, 0x2B	; 43
    26ae:	47 e0       	ldi	r20, 0x07	; 7
    26b0:	50 e0       	ldi	r21, 0x00	; 0
    26b2:	0e 94 61 2d 	call	0x5ac2	; 0x5ac2 <__muluhisi3>
            Value2 /= U_Rh_L;
    26b6:	93 01       	movw	r18, r6
    26b8:	50 e0       	ldi	r21, 0x00	; 0
    26ba:	40 e0       	ldi	r20, 0x00	; 0
    26bc:	0e 94 04 2d 	call	0x5a08	; 0x5a08 <__udivmodsi4>
             *  calculate weighted average of both measurements
             *  - Voltages below the bandgap reference got a higher resolution
             *    (1.1mV instead of 4.9mV).
             */

            if (U_Rh_H < 990)           /* below bandgap reference / R < 117k5 */
    26c0:	ee ed       	ldi	r30, 0xDE	; 222
    26c2:	ce 16       	cp	r12, r30
    26c4:	e3 e0       	ldi	r30, 0x03	; 3
    26c6:	de 06       	cpc	r13, r30
    26c8:	30 f5       	brcc	.+76     	; 0x2716 <CheckResistor+0x15a>
            {
              /* weighted average: (4*V1 + V2) / 5 */
              Value = Value1 * 4;
    26ca:	d2 e0       	ldi	r29, 0x02	; 2
    26cc:	88 0c       	add	r8, r8
    26ce:	99 1c       	adc	r9, r9
    26d0:	aa 1c       	adc	r10, r10
    26d2:	bb 1c       	adc	r11, r11
    26d4:	da 95       	dec	r29
    26d6:	d1 f7       	brne	.-12     	; 0x26cc <CheckResistor+0x110>
              Value += Value2;
    26d8:	ca 01       	movw	r24, r20
    26da:	b9 01       	movw	r22, r18
    26dc:	68 0d       	add	r22, r8
    26de:	79 1d       	adc	r23, r9
    26e0:	8a 1d       	adc	r24, r10
    26e2:	9b 1d       	adc	r25, r11
            else if (U_Rh_L < 990)      /* below bandgap reference / R > 1M88 */
            {
              /* weighted average: (4*V2 + V1) / 5 */
              Value = Value2 * 4;
              Value += Value1;
              Value /= 5;
    26e4:	25 e0       	ldi	r18, 0x05	; 5
    26e6:	30 e0       	ldi	r19, 0x00	; 0
    26e8:	40 e0       	ldi	r20, 0x00	; 0
    26ea:	50 e0       	ldi	r21, 0x00	; 0
    26ec:	0e 94 04 2d 	call	0x5a08	; 0x5a08 <__udivmodsi4>
            {
              /* classic average: (V1 + V2) / 2 */
              Value = (Value1 + Value2) / 2;
            }

            Value += RH_OFFSET;         /* add offset value for measurement with Rh */
    26f0:	22 5a       	subi	r18, 0xA2	; 162
    26f2:	3e 4f       	sbci	r19, 0xFE	; 254
    26f4:	4f 4f       	sbci	r20, 0xFF	; 255
    26f6:	5f 4f       	sbci	r21, 0xFF	; 255
            Value *= 10;                /* upscale to 0.1 Ohms */
    26f8:	aa e0       	ldi	r26, 0x0A	; 10
    26fa:	b0 e0       	ldi	r27, 0x00	; 0
    26fc:	0e 94 61 2d 	call	0x5ac2	; 0x5ac2 <__muluhisi3>
    2700:	4b 01       	movw	r8, r22
    2702:	5c 01       	movw	r10, r24

          /*
           *  measure small resistor <10 Ohms with special method
           */

          if (Value < 100UL)            /* < 10 Ohms */
    2704:	34 e6       	ldi	r19, 0x64	; 100
    2706:	83 16       	cp	r8, r19
    2708:	91 04       	cpc	r9, r1
    270a:	a1 04       	cpc	r10, r1
    270c:	b1 04       	cpc	r11, r1
    270e:	08 f4       	brcc	.+2      	; 0x2712 <CheckResistor+0x156>
    2710:	a4 c0       	rjmp	.+328    	; 0x285a <CheckResistor+0x29e>
         *  process results of the resistance measurement
         */

        if (Compare == 1)          /* valid measurement */
        {
          Scale = -1;              /* 0.1 Ohms by default */
    2712:	cf ef       	ldi	r28, 0xFF	; 255
    2714:	ce c0       	rjmp	.+412    	; 0x28b2 <CheckResistor+0x2f6>
              /* weighted average: (4*V1 + V2) / 5 */
              Value = Value1 * 4;
              Value += Value2;
              Value /= 5;
            }
            else if (U_Rh_L < 990)      /* below bandgap reference / R > 1M88 */
    2716:	fe ed       	ldi	r31, 0xDE	; 222
    2718:	6f 16       	cp	r6, r31
    271a:	f3 e0       	ldi	r31, 0x03	; 3
    271c:	7f 06       	cpc	r7, r31
    271e:	70 f4       	brcc	.+28     	; 0x273c <CheckResistor+0x180>
            {
              /* weighted average: (4*V2 + V1) / 5 */
              Value = Value2 * 4;
    2720:	c2 e0       	ldi	r28, 0x02	; 2
    2722:	22 0f       	add	r18, r18
    2724:	33 1f       	adc	r19, r19
    2726:	44 1f       	adc	r20, r20
    2728:	55 1f       	adc	r21, r21
    272a:	ca 95       	dec	r28
    272c:	d1 f7       	brne	.-12     	; 0x2722 <CheckResistor+0x166>
              Value += Value1;
    272e:	c5 01       	movw	r24, r10
    2730:	b4 01       	movw	r22, r8
    2732:	62 0f       	add	r22, r18
    2734:	73 1f       	adc	r23, r19
    2736:	84 1f       	adc	r24, r20
    2738:	95 1f       	adc	r25, r21
    273a:	d4 cf       	rjmp	.-88     	; 0x26e4 <CheckResistor+0x128>
              Value /= 5;
            }
            else                        /* above bandgap reference */
            {
              /* classic average: (V1 + V2) / 2 */
              Value = (Value1 + Value2) / 2;
    273c:	28 0d       	add	r18, r8
    273e:	39 1d       	adc	r19, r9
    2740:	4a 1d       	adc	r20, r10
    2742:	5b 1d       	adc	r21, r11
    2744:	56 95       	lsr	r21
    2746:	47 95       	ror	r20
    2748:	37 95       	ror	r19
    274a:	27 95       	ror	r18
    274c:	d1 cf       	rjmp	.-94     	; 0x26f0 <CheckResistor+0x134>
          /*
           *  use measurements done with Rl
           */

          /* voltage below DUT can't be higher than above DUT */
          if ((U_Rl_H >= U_Ri_L) && (U_Ri_H >= U_Rl_L))
    274e:	c8 15       	cp	r28, r8
    2750:	d9 05       	cpc	r29, r9
    2752:	08 f4       	brcc	.+2      	; 0x2756 <CheckResistor+0x19a>
    2754:	77 c0       	rjmp	.+238    	; 0x2844 <CheckResistor+0x288>
    2756:	4a 14       	cp	r4, r10
    2758:	5b 04       	cpc	r5, r11
    275a:	08 f4       	brcc	.+2      	; 0x275e <CheckResistor+0x1a2>
    275c:	73 c0       	rjmp	.+230    	; 0x2844 <CheckResistor+0x288>
             *  Or via voltage divider:
             *  R = (Rl + RiH) * (U_R_RiL / U_Rl_RiH) - RiL
             *    = (Rl + RiH) * (U_R_RiL / (Vcc - U_R_RiL)) - RiL
             */

            if (U_Rl_H == Cfg.Vcc)      /* prevent division by zero */
    275e:	40 91 8e 01 	lds	r20, 0x018E	; 0x80018e <Cfg+0x8>
    2762:	50 91 8f 01 	lds	r21, 0x018F	; 0x80018f <Cfg+0x9>
    2766:	4c 17       	cp	r20, r28
    2768:	5d 07       	cpc	r21, r29
    276a:	09 f4       	brne	.+2      	; 0x276e <CheckResistor+0x1b2>
            {
              U_Rl_H = Cfg.Vcc - 1;
    276c:	21 97       	sbiw	r28, 0x01	; 1
            }

            Value1 = (R_LOW * 10) + NV.RiH;       /* Rl + RiH in 0.1 Ohm */
    276e:	20 91 c9 01 	lds	r18, 0x01C9	; 0x8001c9 <NV+0x2>
    2772:	30 91 ca 01 	lds	r19, 0x01CA	; 0x8001ca <NV+0x3>
    2776:	20 57       	subi	r18, 0x70	; 112
    2778:	35 4e       	sbci	r19, 0xE5	; 229
            Value1 *= (U_Rl_H - U_Ri_L);
    277a:	de 01       	movw	r26, r28
    277c:	a8 19       	sub	r26, r8
    277e:	b9 09       	sbc	r27, r9
    2780:	0e 94 4b 2d 	call	0x5a96	; 0x5a96 <__umulhisi3>
            Value1 /= (Cfg.Vcc - U_Rl_H);
    2784:	4c 1b       	sub	r20, r28
    2786:	5d 0b       	sbc	r21, r29
    2788:	9a 01       	movw	r18, r20
    278a:	50 e0       	ldi	r21, 0x00	; 0
    278c:	40 e0       	ldi	r20, 0x00	; 0
    278e:	0e 94 04 2d 	call	0x5a08	; 0x5a08 <__udivmodsi4>
    2792:	69 01       	movw	r12, r18
    2794:	7a 01       	movw	r14, r20
             *  Or via voltage divider:
             *  R = (Rl + RiL) * (U_R_RiH / U_Rl_RiL) - RiH
             *    = (Rl + RiL) * ((Vcc - U_Rl_RiL) / U_Rl_RiL) - RiH
             */

            Value2 = (R_LOW * 10) + NV.RiL;       /* Rl + RiL in 0.1 Ohms */
    2796:	20 91 c7 01 	lds	r18, 0x01C7	; 0x8001c7 <NV>
    279a:	30 91 c8 01 	lds	r19, 0x01C8	; 0x8001c8 <NV+0x1>
    279e:	20 57       	subi	r18, 0x70	; 112
    27a0:	35 4e       	sbci	r19, 0xE5	; 229
            Value2 *= (U_Ri_H - U_Rl_L);
    27a2:	d2 01       	movw	r26, r4
    27a4:	aa 19       	sub	r26, r10
    27a6:	bb 09       	sbc	r27, r11
    27a8:	0e 94 4b 2d 	call	0x5a96	; 0x5a96 <__umulhisi3>
            Value2 /= U_Rl_L;
    27ac:	95 01       	movw	r18, r10
    27ae:	50 e0       	ldi	r21, 0x00	; 0
    27b0:	40 e0       	ldi	r20, 0x00	; 0
    27b2:	0e 94 04 2d 	call	0x5a08	; 0x5a08 <__udivmodsi4>
             *  calculate weighted average of both measurements
             *  - Voltages below the bandgap reference got a higher resolution
             *    (1.1mV instead of 4.9mV).
             */

            if (U_Rl_H < 990)           /* below bandgap reference / R < 170 */
    27b6:	ce 3d       	cpi	r28, 0xDE	; 222
    27b8:	d3 40       	sbci	r29, 0x03	; 3
    27ba:	b0 f4       	brcc	.+44     	; 0x27e8 <CheckResistor+0x22c>
            {
              /* weighted average: (4*V1 + V2) / 5 */
              Value = Value1 * 4;
    27bc:	a2 e0       	ldi	r26, 0x02	; 2
    27be:	cc 0c       	add	r12, r12
    27c0:	dd 1c       	adc	r13, r13
    27c2:	ee 1c       	adc	r14, r14
    27c4:	ff 1c       	adc	r15, r15
    27c6:	aa 95       	dec	r26
    27c8:	d1 f7       	brne	.-12     	; 0x27be <CheckResistor+0x202>
              Value += Value2;
    27ca:	ca 01       	movw	r24, r20
    27cc:	b9 01       	movw	r22, r18
              /* weighted average */
              if (Value2 < 75000)       /* R < 7k5 */
              {
                /* weighted average: (4*V1 + V2) / 5 */
                Value = Value2 * 4;
                Value += Value1;
    27ce:	6c 0d       	add	r22, r12
    27d0:	7d 1d       	adc	r23, r13
    27d2:	8e 1d       	adc	r24, r14
    27d4:	9f 1d       	adc	r25, r15
                Value /= 5;
    27d6:	25 e0       	ldi	r18, 0x05	; 5
    27d8:	30 e0       	ldi	r19, 0x00	; 0
    27da:	40 e0       	ldi	r20, 0x00	; 0
    27dc:	50 e0       	ldi	r21, 0x00	; 0
    27de:	0e 94 04 2d 	call	0x5a08	; 0x5a08 <__udivmodsi4>
    27e2:	49 01       	movw	r8, r18
    27e4:	5a 01       	movw	r10, r20
    27e6:	8e cf       	rjmp	.-228    	; 0x2704 <CheckResistor+0x148>
              /* weighted average: (4*V1 + V2) / 5 */
              Value = Value1 * 4;
              Value += Value2;
              Value /= 5;
            }
            else if (U_Rl_L < 990)      /* below bandgap reference / R > 2k7 */
    27e8:	ee ed       	ldi	r30, 0xDE	; 222
    27ea:	ae 16       	cp	r10, r30
    27ec:	e3 e0       	ldi	r30, 0x03	; 3
    27ee:	be 06       	cpc	r11, r30
    27f0:	f0 f4       	brcc	.+60     	; 0x282e <CheckResistor+0x272>
            {
              /* weighted average */
              if (Value2 < 75000)       /* R < 7k5 */
    27f2:	28 3f       	cpi	r18, 0xF8	; 248
    27f4:	f4 e2       	ldi	r31, 0x24	; 36
    27f6:	3f 07       	cpc	r19, r31
    27f8:	f1 e0       	ldi	r31, 0x01	; 1
    27fa:	4f 07       	cpc	r20, r31
    27fc:	51 05       	cpc	r21, r1
    27fe:	50 f4       	brcc	.+20     	; 0x2814 <CheckResistor+0x258>
              {
                /* weighted average: (4*V1 + V2) / 5 */
                Value = Value2 * 4;
    2800:	ca 01       	movw	r24, r20
    2802:	b9 01       	movw	r22, r18
    2804:	f2 e0       	ldi	r31, 0x02	; 2
    2806:	66 0f       	add	r22, r22
    2808:	77 1f       	adc	r23, r23
    280a:	88 1f       	adc	r24, r24
    280c:	99 1f       	adc	r25, r25
    280e:	fa 95       	dec	r31
    2810:	d1 f7       	brne	.-12     	; 0x2806 <CheckResistor+0x24a>
    2812:	dd cf       	rjmp	.-70     	; 0x27ce <CheckResistor+0x212>
              }
              else                      /* R >= 7k5 */
              {
                /* weighted average: (9*V2 + V1) / 10 */
                Value = Value2 * 8;
                Value += Value2;
    2814:	a9 e0       	ldi	r26, 0x09	; 9
    2816:	b0 e0       	ldi	r27, 0x00	; 0
    2818:	0e 94 61 2d 	call	0x5ac2	; 0x5ac2 <__muluhisi3>
                Value += Value1;
    281c:	6c 0d       	add	r22, r12
    281e:	7d 1d       	adc	r23, r13
    2820:	8e 1d       	adc	r24, r14
    2822:	9f 1d       	adc	r25, r15
                Value /= 10;
    2824:	2a e0       	ldi	r18, 0x0A	; 10
    2826:	30 e0       	ldi	r19, 0x00	; 0
    2828:	40 e0       	ldi	r20, 0x00	; 0
    282a:	50 e0       	ldi	r21, 0x00	; 0
    282c:	d8 cf       	rjmp	.-80     	; 0x27de <CheckResistor+0x222>
              }
            }
            else                        /* above bandgap reference */
            {
              /* classic average: (V1 + V2) / 2 */
              Value = (Value1 + Value2) / 2;
    282e:	c2 0e       	add	r12, r18
    2830:	d3 1e       	adc	r13, r19
    2832:	e4 1e       	adc	r14, r20
    2834:	f5 1e       	adc	r15, r21
    2836:	46 01       	movw	r8, r12
    2838:	57 01       	movw	r10, r14
    283a:	b6 94       	lsr	r11
    283c:	a7 94       	ror	r10
    283e:	97 94       	ror	r9
    2840:	87 94       	ror	r8
    2842:	60 cf       	rjmp	.-320    	; 0x2704 <CheckResistor+0x148>
            }
          }
          else      /* may happen for very low resistances */
          {
            if (U_Rl_L > 4750)     /* U_Rl_L: R < 15 Ohms */
    2844:	2f e8       	ldi	r18, 0x8F	; 143
    2846:	a2 16       	cp	r10, r18
    2848:	22 e1       	ldi	r18, 0x12	; 18
    284a:	b2 06       	cpc	r11, r18
    284c:	08 f4       	brcc	.+2      	; 0x2850 <CheckResistor+0x294>
    284e:	53 c0       	rjmp	.+166    	; 0x28f6 <CheckResistor+0x33a>
            {
              /* this will trigger the low resistance measurement below */
              Value = 10;           /* 1 Ohm */
    2850:	7a e0       	ldi	r23, 0x0A	; 10
    2852:	87 2e       	mov	r8, r23
    2854:	91 2c       	mov	r9, r1
    2856:	a1 2c       	mov	r10, r1
    2858:	b1 2c       	mov	r11, r1
           */

          if (Value < 100UL)            /* < 10 Ohms */
          {
            /* run low resistance measurement (in 0.01 Ohms) */
            Value2 = (uint32_t)SmallResistor(1);
    285a:	81 e0       	ldi	r24, 0x01	; 1
    285c:	0e 94 28 12 	call	0x2450	; 0x2450 <SmallResistor>
    2860:	6c 01       	movw	r12, r24
    2862:	f1 2c       	mov	r15, r1
    2864:	e1 2c       	mov	r14, r1

            /* check for valid result */
            Value1 = Value * 2;         /* allow 100% tolerance */
    2866:	a5 01       	movw	r20, r10
    2868:	94 01       	movw	r18, r8
    286a:	22 0f       	add	r18, r18
    286c:	33 1f       	adc	r19, r19
    286e:	44 1f       	adc	r20, r20
    2870:	55 1f       	adc	r21, r21
            if (Value < 5UL)            /* <0.5 Ohms */
    2872:	85 e0       	ldi	r24, 0x05	; 5
    2874:	88 16       	cp	r8, r24
    2876:	91 04       	cpc	r9, r1
    2878:	a1 04       	cpc	r10, r1
    287a:	b1 04       	cpc	r11, r1
    287c:	20 f4       	brcc	.+8      	; 0x2886 <CheckResistor+0x2ca>
            {
              Value1 += Value;          /* incresae to 200% */
    287e:	28 0d       	add	r18, r8
    2880:	39 1d       	adc	r19, r9
    2882:	4a 1d       	adc	r20, r10
    2884:	5b 1d       	adc	r21, r11
            }
            Value1 *= 10;               /* re-scale to 0.01 Ohms */
    2886:	aa e0       	ldi	r26, 0x0A	; 10
    2888:	b0 e0       	ldi	r27, 0x00	; 0
    288a:	0e 94 61 2d 	call	0x5ac2	; 0x5ac2 <__muluhisi3>

            if (Value1 == 0)            /* if limit is 0 */ 
    288e:	61 15       	cp	r22, r1
    2890:	71 05       	cpc	r23, r1
    2892:	81 05       	cpc	r24, r1
    2894:	91 05       	cpc	r25, r1
    2896:	21 f4       	brne	.+8      	; 0x28a0 <CheckResistor+0x2e4>
            {
              Value1 = 100;             /* use 1 Ohm */
    2898:	64 e6       	ldi	r22, 0x64	; 100
    289a:	70 e0       	ldi	r23, 0x00	; 0
    289c:	80 e0       	ldi	r24, 0x00	; 0
    289e:	90 e0       	ldi	r25, 0x00	; 0
            }

            if (Value1 > Value2)        /* got expected value */
    28a0:	c6 16       	cp	r12, r22
    28a2:	d7 06       	cpc	r13, r23
    28a4:	e8 06       	cpc	r14, r24
    28a6:	f9 06       	cpc	r15, r25
    28a8:	08 f0       	brcs	.+2      	; 0x28ac <CheckResistor+0x2f0>
    28aa:	33 cf       	rjmp	.-410    	; 0x2712 <CheckResistor+0x156>
    28ac:	46 01       	movw	r8, r12
    28ae:	57 01       	movw	r10, r14
            {
              Value = Value2;           /* take new value */
              Scale = -2;               /* in 0.01 Ohms */
    28b0:	ce ef       	ldi	r28, 0xFE	; 254

              /* check if value matches the given tolerance */
              if ((CmpValue(Resistor->Value, Resistor->Scale, Value1, Scale) >= 0) &&
                  (CmpValue(Resistor->Value, Resistor->Scale, Value2, Scale) <= 0))
              {
                n = 100;                     /* end loop and signal match */
    28b2:	80 e0       	ldi	r24, 0x00	; 0
          n = 0;
          while (n < Check.Resistors)           /* loop through resistors */
          {
            Resistor = &Resistors[n];           /* pointer to element */

            if ((Resistor->A == Probes.ID_1) && (Resistor->B == Probes.ID_2))
    28b4:	97 e0       	ldi	r25, 0x07	; 7
    28b6:	f9 2e       	mov	r15, r25
          /*
           *  check for measurement in reversed direction
           */

          n = 0;
          while (n < Check.Resistors)           /* loop through resistors */
    28b8:	90 91 05 01 	lds	r25, 0x0105	; 0x800105 <Check+0x4>
    28bc:	89 17       	cp	r24, r25
    28be:	f8 f0       	brcs	.+62     	; 0x28fe <CheckResistor+0x342>

          /*
           *  we got a new resistor
           */

          if (n != 100)            /* not a known resistor */
    28c0:	84 36       	cpi	r24, 0x64	; 100
    28c2:	09 f4       	brne	.+2      	; 0x28c6 <CheckResistor+0x30a>
    28c4:	c8 ce       	rjmp	.-624    	; 0x2656 <CheckResistor+0x9a>
          {
            if (Check.Resistors < 3)              /* prevent array overflow */
    28c6:	93 30       	cpi	r25, 0x03	; 3
    28c8:	08 f0       	brcs	.+2      	; 0x28cc <CheckResistor+0x310>
    28ca:	c5 ce       	rjmp	.-630    	; 0x2656 <CheckResistor+0x9a>
            {
              /* save data */
              Resistor = &Resistors[Check.Resistors];  /* unused dataset */
              Resistor->A = Probes.ID_2;               /* pin facing Gnd */
    28cc:	27 e0       	ldi	r18, 0x07	; 7
    28ce:	92 9f       	mul	r25, r18
    28d0:	f0 01       	movw	r30, r0
    28d2:	11 24       	eor	r1, r1
    28d4:	e6 5f       	subi	r30, 0xF6	; 246
    28d6:	fe 4f       	sbci	r31, 0xFE	; 254
    28d8:	80 91 b6 01 	lds	r24, 0x01B6	; 0x8001b6 <Probes+0x1>
    28dc:	80 83       	st	Z, r24
              Resistor->B = Probes.ID_1;               /* pin facing Vcc */
    28de:	80 91 b5 01 	lds	r24, 0x01B5	; 0x8001b5 <Probes>
    28e2:	81 83       	std	Z+1, r24	; 0x01
              Resistor->Value = Value;
    28e4:	83 82       	std	Z+3, r8	; 0x03
    28e6:	94 82       	std	Z+4, r9	; 0x04
    28e8:	a5 82       	std	Z+5, r10	; 0x05
    28ea:	b6 82       	std	Z+6, r11	; 0x06
              Resistor->Scale = Scale;
    28ec:	c2 83       	std	Z+2, r28	; 0x02
              Check.Resistors++;                       /* another one found */
    28ee:	9f 5f       	subi	r25, 0xFF	; 255
    28f0:	90 93 05 01 	sts	0x0105, r25	; 0x800105 <Check+0x4>
          }
        }
      }
    }
  }
}
    28f4:	b0 ce       	rjmp	.-672    	; 0x2656 <CheckResistor+0x9a>
      if (U_Rh_H < 4972)            /* R < 83.4M & prevent division by zero */
      {
        /* voltage breaks down with low test current and it is not nearly 
           shorted => resistor */

        Value = 0;                      /* reset value of resistor */
    28f6:	81 2c       	mov	r8, r1
    28f8:	91 2c       	mov	r9, r1
    28fa:	54 01       	movw	r10, r8
    28fc:	ae cf       	rjmp	.-164    	; 0x285a <CheckResistor+0x29e>
           */

          n = 0;
          while (n < Check.Resistors)           /* loop through resistors */
          {
            Resistor = &Resistors[n];           /* pointer to element */
    28fe:	68 2e       	mov	r6, r24
    2900:	71 2c       	mov	r7, r1

            if ((Resistor->A == Probes.ID_1) && (Resistor->B == Probes.ID_2))
    2902:	f6 9c       	mul	r15, r6
    2904:	90 01       	movw	r18, r0
    2906:	f7 9c       	mul	r15, r7
    2908:	30 0d       	add	r19, r0
    290a:	11 24       	eor	r1, r1
    290c:	f9 01       	movw	r30, r18
    290e:	e6 5f       	subi	r30, 0xF6	; 246
    2910:	fe 4f       	sbci	r31, 0xFE	; 254
    2912:	6f 01       	movw	r12, r30
    2914:	20 81       	ld	r18, Z
    2916:	90 91 b5 01 	lds	r25, 0x01B5	; 0x8001b5 <Probes>
    291a:	29 13       	cpse	r18, r25
    291c:	87 c0       	rjmp	.+270    	; 0x2a2c <CheckResistor+0x470>
    291e:	21 81       	ldd	r18, Z+1	; 0x01
    2920:	90 91 b6 01 	lds	r25, 0x01B6	; 0x8001b6 <Probes+0x1>
    2924:	29 13       	cpse	r18, r25
    2926:	82 c0       	rjmp	.+260    	; 0x2a2c <CheckResistor+0x470>
              /*
               *  check if the reverse measurement is within a specific tolerance
               */

              /* set lower and upper tolerance limits */
              if (CmpValue(Value, Scale, 2, 0) == -1)  /* < 2 Ohms */
    2928:	e1 2c       	mov	r14, r1
    292a:	02 e0       	ldi	r16, 0x02	; 2
    292c:	10 e0       	ldi	r17, 0x00	; 0
    292e:	20 e0       	ldi	r18, 0x00	; 0
    2930:	30 e0       	ldi	r19, 0x00	; 0
    2932:	4c 2f       	mov	r20, r28
    2934:	c5 01       	movw	r24, r10
    2936:	b4 01       	movw	r22, r8
    2938:	0e 94 a6 06 	call	0xd4c	; 0xd4c <CmpValue>
    293c:	8f 3f       	cpi	r24, 0xFF	; 255
    293e:	09 f0       	breq	.+2      	; 0x2942 <CheckResistor+0x386>
    2940:	6a c0       	rjmp	.+212    	; 0x2a16 <CheckResistor+0x45a>
              {
                /* if reverse measurement is also < 2 Ohms */
                if (CmpValue(Resistor->Value, Resistor->Scale, 2, 0) == -1)
    2942:	f6 01       	movw	r30, r12
    2944:	63 81       	ldd	r22, Z+3	; 0x03
    2946:	74 81       	ldd	r23, Z+4	; 0x04
    2948:	85 81       	ldd	r24, Z+5	; 0x05
    294a:	96 81       	ldd	r25, Z+6	; 0x06
    294c:	02 e0       	ldi	r16, 0x02	; 2
    294e:	10 e0       	ldi	r17, 0x00	; 0
    2950:	20 e0       	ldi	r18, 0x00	; 0
    2952:	30 e0       	ldi	r19, 0x00	; 0
    2954:	42 81       	ldd	r20, Z+2	; 0x02
    2956:	0e 94 a6 06 	call	0xd4c	; 0xd4c <CmpValue>
    295a:	d8 2f       	mov	r29, r24
    295c:	8f 3f       	cpi	r24, 0xFF	; 255
    295e:	01 f5       	brne	.+64     	; 0x29a0 <CheckResistor+0x3e4>
                {
                  /* cope with possible probe contact issues */
                  if (Resistor->Scale == Scale)   /* same method */
    2960:	f6 01       	movw	r30, r12
    2962:	42 81       	ldd	r20, Z+2	; 0x02
    2964:	4c 13       	cpse	r20, r28
    2966:	01 c0       	rjmp	.+2      	; 0x296a <CheckResistor+0x3ae>
                  {
                    /* use larger value */
                    Compare = 1;
    2968:	d1 e0       	ldi	r29, 0x01	; 1
                  {
                    /* use lower value */
                    Compare = -1;
                  }

                  if (CmpValue(Resistor->Value, Resistor->Scale, Value, Scale) == Compare)
    296a:	f6 9c       	mul	r15, r6
    296c:	c0 01       	movw	r24, r0
    296e:	f7 9c       	mul	r15, r7
    2970:	90 0d       	add	r25, r0
    2972:	11 24       	eor	r1, r1
    2974:	9c 01       	movw	r18, r24
    2976:	26 5f       	subi	r18, 0xF6	; 246
    2978:	3e 4f       	sbci	r19, 0xFE	; 254
    297a:	69 01       	movw	r12, r18
    297c:	f9 01       	movw	r30, r18
    297e:	63 81       	ldd	r22, Z+3	; 0x03
    2980:	74 81       	ldd	r23, Z+4	; 0x04
    2982:	85 81       	ldd	r24, Z+5	; 0x05
    2984:	96 81       	ldd	r25, Z+6	; 0x06
    2986:	ec 2e       	mov	r14, r28
    2988:	95 01       	movw	r18, r10
    298a:	84 01       	movw	r16, r8
    298c:	0e 94 a6 06 	call	0xd4c	; 0xd4c <CmpValue>
                  {
                    /* use reverse measurement */
                    Value = Resistor->Value;
    2990:	f6 01       	movw	r30, r12
                  {
                    /* use lower value */
                    Compare = -1;
                  }

                  if (CmpValue(Resistor->Value, Resistor->Scale, Value, Scale) == Compare)
    2992:	8d 13       	cpse	r24, r29
    2994:	3a c0       	rjmp	.+116    	; 0x2a0a <CheckResistor+0x44e>
                  {
                    /* use reverse measurement */
                    Value = Resistor->Value;
    2996:	83 80       	ldd	r8, Z+3	; 0x03
    2998:	94 80       	ldd	r9, Z+4	; 0x04
    299a:	a5 80       	ldd	r10, Z+5	; 0x05
    299c:	b6 80       	ldd	r11, Z+6	; 0x06
                    Scale = Resistor->Scale;
    299e:	c2 81       	ldd	r28, Z+2	; 0x02
                    Resistor->Value = Value;
                    Resistor->Scale = Scale;
                  }
                }

                Temp = Value / 2;            /* 50% */
    29a0:	14 01       	movw	r2, r8
    29a2:	25 01       	movw	r4, r10
    29a4:	56 94       	lsr	r5
    29a6:	47 94       	ror	r4
    29a8:	37 94       	ror	r3
    29aa:	27 94       	ror	r2

              Value1 = Value - Temp;         /* 95% or 50% */
              Value2 = Value + Temp;         /* 105% or 150% */

              /* check if value matches the given tolerance */
              if ((CmpValue(Resistor->Value, Resistor->Scale, Value1, Scale) >= 0) &&
    29ac:	f6 9c       	mul	r15, r6
    29ae:	c0 01       	movw	r24, r0
    29b0:	f7 9c       	mul	r15, r7
    29b2:	90 0d       	add	r25, r0
    29b4:	11 24       	eor	r1, r1
    29b6:	9c 01       	movw	r18, r24
    29b8:	26 5f       	subi	r18, 0xF6	; 246
    29ba:	3e 4f       	sbci	r19, 0xFE	; 254
    29bc:	69 01       	movw	r12, r18
    29be:	f9 01       	movw	r30, r18
    29c0:	63 81       	ldd	r22, Z+3	; 0x03
    29c2:	74 81       	ldd	r23, Z+4	; 0x04
    29c4:	85 81       	ldd	r24, Z+5	; 0x05
    29c6:	96 81       	ldd	r25, Z+6	; 0x06
    29c8:	ec 2e       	mov	r14, r28
    29ca:	95 01       	movw	r18, r10
    29cc:	84 01       	movw	r16, r8
    29ce:	02 19       	sub	r16, r2
    29d0:	13 09       	sbc	r17, r3
    29d2:	24 09       	sbc	r18, r4
    29d4:	35 09       	sbc	r19, r5
    29d6:	42 81       	ldd	r20, Z+2	; 0x02
    29d8:	0e 94 a6 06 	call	0xd4c	; 0xd4c <CmpValue>
    29dc:	87 fd       	sbrc	r24, 7
    29de:	28 c0       	rjmp	.+80     	; 0x2a30 <CheckResistor+0x474>
              {
                Temp = Value / 20;           /* 5% */
              }

              Value1 = Value - Temp;         /* 95% or 50% */
              Value2 = Value + Temp;         /* 105% or 150% */
    29e0:	95 01       	movw	r18, r10
    29e2:	84 01       	movw	r16, r8
    29e4:	02 0d       	add	r16, r2
    29e6:	13 1d       	adc	r17, r3
    29e8:	24 1d       	adc	r18, r4
    29ea:	35 1d       	adc	r19, r5

              /* check if value matches the given tolerance */
              if ((CmpValue(Resistor->Value, Resistor->Scale, Value1, Scale) >= 0) &&
                  (CmpValue(Resistor->Value, Resistor->Scale, Value2, Scale) <= 0))
    29ec:	f6 01       	movw	r30, r12
    29ee:	63 81       	ldd	r22, Z+3	; 0x03
    29f0:	74 81       	ldd	r23, Z+4	; 0x04
    29f2:	85 81       	ldd	r24, Z+5	; 0x05
    29f4:	96 81       	ldd	r25, Z+6	; 0x06
    29f6:	42 81       	ldd	r20, Z+2	; 0x02
    29f8:	0e 94 a6 06 	call	0xd4c	; 0xd4c <CmpValue>

              Value1 = Value - Temp;         /* 95% or 50% */
              Value2 = Value + Temp;         /* 105% or 150% */

              /* check if value matches the given tolerance */
              if ((CmpValue(Resistor->Value, Resistor->Scale, Value1, Scale) >= 0) &&
    29fc:	18 16       	cp	r1, r24
    29fe:	c4 f0       	brlt	.+48     	; 0x2a30 <CheckResistor+0x474>
                  (CmpValue(Resistor->Value, Resistor->Scale, Value2, Scale) <= 0))
              {
                n = 100;                     /* end loop and signal match */
                Check.Found = COMP_RESISTOR;
    2a00:	fa e0       	ldi	r31, 0x0A	; 10
    2a02:	f0 93 01 01 	sts	0x0101, r31	; 0x800101 <Check>

              /* check if value matches the given tolerance */
              if ((CmpValue(Resistor->Value, Resistor->Scale, Value1, Scale) >= 0) &&
                  (CmpValue(Resistor->Value, Resistor->Scale, Value2, Scale) <= 0))
              {
                n = 100;                     /* end loop and signal match */
    2a06:	84 e6       	ldi	r24, 0x64	; 100
                Check.Found = COMP_RESISTOR;
    2a08:	57 cf       	rjmp	.-338    	; 0x28b8 <CheckResistor+0x2fc>
                    Scale = Resistor->Scale;
                  }
                  else
                  {
                    /* use this measurement */
                    Resistor->Value = Value;
    2a0a:	83 82       	std	Z+3, r8	; 0x03
    2a0c:	94 82       	std	Z+4, r9	; 0x04
    2a0e:	a5 82       	std	Z+5, r10	; 0x05
    2a10:	b6 82       	std	Z+6, r11	; 0x06
                    Resistor->Scale = Scale;
    2a12:	c2 83       	std	Z+2, r28	; 0x02
    2a14:	c5 cf       	rjmp	.-118    	; 0x29a0 <CheckResistor+0x3e4>

                Temp = Value / 2;            /* 50% */
              }
              else                                     /* >= 2 Ohms */
              {
                Temp = Value / 20;           /* 5% */
    2a16:	c5 01       	movw	r24, r10
    2a18:	b4 01       	movw	r22, r8
    2a1a:	24 e1       	ldi	r18, 0x14	; 20
    2a1c:	30 e0       	ldi	r19, 0x00	; 0
    2a1e:	40 e0       	ldi	r20, 0x00	; 0
    2a20:	50 e0       	ldi	r21, 0x00	; 0
    2a22:	0e 94 04 2d 	call	0x5a08	; 0x5a08 <__udivmodsi4>
    2a26:	19 01       	movw	r2, r18
    2a28:	2a 01       	movw	r4, r20
    2a2a:	c0 cf       	rjmp	.-128    	; 0x29ac <CheckResistor+0x3f0>
                n = 200;                     /* end loop and signal mis-match */
              }
            }
            else                             /* no match */
            {
              n++;                           /* next one */
    2a2c:	8f 5f       	subi	r24, 0xFF	; 255
    2a2e:	44 cf       	rjmp	.-376    	; 0x28b8 <CheckResistor+0x2fc>
                n = 100;                     /* end loop and signal match */
                Check.Found = COMP_RESISTOR;
              }
              else                 /* no match */
              {
                n = 200;                     /* end loop and signal mis-match */
    2a30:	88 ec       	ldi	r24, 0xC8	; 200
    2a32:	42 cf       	rjmp	.-380    	; 0x28b8 <CheckResistor+0x2fc>

00002a34 <CheckSingleResistor>:
 *  - Max: maximum resistance in kOhms
 *         0: don't check limit
 */

uint8_t CheckSingleResistor(uint8_t HighPin, uint8_t LowPin, uint8_t Max)
{
    2a34:	ef 92       	push	r14
    2a36:	0f 93       	push	r16
    2a38:	1f 93       	push	r17
    2a3a:	cf 93       	push	r28
    2a3c:	df 93       	push	r29
    2a3e:	d4 2f       	mov	r29, r20
  uint8_t                Flag = 0;      /* return value */

  /* check for a specific resistor */
  Check.Resistors = 0;                  /* reset counter */
    2a40:	10 92 05 01 	sts	0x0105, r1	; 0x800105 <Check+0x4>
  UpdateProbes2(HighPin, LowPin);       /* update probes */
    2a44:	0e 94 31 0e 	call	0x1c62	; 0x1c62 <UpdateProbes2>
  CheckResistor();                      /* check for resistor */
    2a48:	0e 94 de 12 	call	0x25bc	; 0x25bc <CheckResistor>

  if (Check.Resistors == 1)             /* found resistor */
    2a4c:	c0 91 05 01 	lds	r28, 0x0105	; 0x800105 <Check+0x4>
    2a50:	c1 30       	cpi	r28, 0x01	; 1
    2a52:	a9 f4       	brne	.+42     	; 0x2a7e <CheckSingleResistor+0x4a>
  {
    Flag = 1;            /* signal detected resistor */

    if (Max > 0)         /* check upper limit */
    2a54:	dd 23       	and	r29, r29
    2a56:	a1 f0       	breq	.+40     	; 0x2a80 <CheckSingleResistor+0x4c>
    {
      /* measured value isn't below maximum */
      if (CmpValue((uint32_t)Max, 3, Resistors[0].Value, Resistors[0].Scale) != 1) 
    2a58:	00 91 0d 01 	lds	r16, 0x010D	; 0x80010d <Resistors+0x3>
    2a5c:	10 91 0e 01 	lds	r17, 0x010E	; 0x80010e <Resistors+0x4>
    2a60:	20 91 0f 01 	lds	r18, 0x010F	; 0x80010f <Resistors+0x5>
    2a64:	30 91 10 01 	lds	r19, 0x0110	; 0x800110 <Resistors+0x6>
    2a68:	6d 2f       	mov	r22, r29
    2a6a:	70 e0       	ldi	r23, 0x00	; 0
    2a6c:	90 e0       	ldi	r25, 0x00	; 0
    2a6e:	80 e0       	ldi	r24, 0x00	; 0
    2a70:	e0 90 0c 01 	lds	r14, 0x010C	; 0x80010c <Resistors+0x2>
    2a74:	43 e0       	ldi	r20, 0x03	; 3
    2a76:	0e 94 a6 06 	call	0xd4c	; 0xd4c <CmpValue>
    2a7a:	81 30       	cpi	r24, 0x01	; 1
    2a7c:	09 f0       	breq	.+2      	; 0x2a80 <CheckSingleResistor+0x4c>
 *         0: don't check limit
 */

uint8_t CheckSingleResistor(uint8_t HighPin, uint8_t LowPin, uint8_t Max)
{
  uint8_t                Flag = 0;      /* return value */
    2a7e:	c0 e0       	ldi	r28, 0x00	; 0
      }
    }
  }

  return Flag;
}
    2a80:	8c 2f       	mov	r24, r28
    2a82:	df 91       	pop	r29
    2a84:	cf 91       	pop	r28
    2a86:	1f 91       	pop	r17
    2a88:	0f 91       	pop	r16
    2a8a:	ef 90       	pop	r14
    2a8c:	08 95       	ret

00002a8e <SetUpDelayTimer>:
   *  - total: 17
   */

  #define CYCLE_OFFSET   17

  if (Cycles < CYCLE_OFFSET) return Flag;    /* check for required minimum */
    2a8e:	81 31       	cpi	r24, 0x11	; 17
    2a90:	38 f0       	brcs	.+14     	; 0x2aa0 <SetUpDelayTimer+0x12>
  Cycles -= CYCLE_OFFSET;                    /* substract cycles for DelayTimer() */ 
    2a92:	81 51       	subi	r24, 0x11	; 17
   *  set up Timer0:
   *  - CTC mode (count up to OCR0A) 
   *  - prescaler 1 to match MCU cycles
   */

  TCCR0B = 0;                      /* stop timer */
    2a94:	15 bc       	out	0x25, r1	; 37
  TCCR0A = (1 << WGM01);           /* set CTC mode, disable output compare pins */
    2a96:	92 e0       	ldi	r25, 0x02	; 2
    2a98:	94 bd       	out	0x24, r25	; 36
  OCR0A = Cycles;                  /* set number of MCU cycles */
    2a9a:	87 bd       	out	0x27, r24	; 39
    2a9c:	81 e0       	ldi	r24, 0x01	; 1
    2a9e:	08 95       	ret
   *  - total: 17
   */

  #define CYCLE_OFFSET   17

  if (Cycles < CYCLE_OFFSET) return Flag;    /* check for required minimum */
    2aa0:	80 e0       	ldi	r24, 0x00	; 0
  OCR0A = Cycles;                  /* set number of MCU cycles */
  /* todo: check if we have to substract one cycle for setting the flag */

  Flag = 1;              /* signal success */
  return Flag;
}
    2aa2:	08 95       	ret

00002aa4 <DelayTimer>:
 *  (requires prior call of SetUpPulseTimer() for setup)
 */

void DelayTimer(void)
{
  TCNT0 = 0;                       /* reset counter to 0 */
    2aa4:	16 bc       	out	0x26, r1	; 38
  TCCR0B = (1 << CS00);            /* start timer by setting prescaler */
    2aa6:	81 e0       	ldi	r24, 0x01	; 1
    2aa8:	85 bd       	out	0x25, r24	; 37

  while (!(TIFR0 & (1 << OCF0A)));   /* wait for output compare A match flag */
    2aaa:	a9 9b       	sbis	0x15, 1	; 21
    2aac:	fe cf       	rjmp	.-4      	; 0x2aaa <DelayTimer+0x6>

  TCCR0B = 0;                      /* stop timer */
    2aae:	15 bc       	out	0x25, r1	; 37
  TIFR0 = (1 << OCF0A);            /* clear flag */
    2ab0:	82 e0       	ldi	r24, 0x02	; 2
    2ab2:	85 bb       	out	0x15, r24	; 21
}
    2ab4:	08 95       	ret

00002ab6 <MeasureESR>:
 *  - ESR in 0.01 Ohm
 *  - UINT16_MAX on any problem
 */

uint16_t MeasureESR(Capacitor_Type *Cap)
{
    2ab6:	a4 e0       	ldi	r26, 0x04	; 4
    2ab8:	b0 e0       	ldi	r27, 0x00	; 0
    2aba:	e1 e6       	ldi	r30, 0x61	; 97
    2abc:	f5 e1       	ldi	r31, 0x15	; 21
    2abe:	0c 94 6c 2d 	jmp	0x5ad8	; 0x5ad8 <__prologue_saves__>
  uint32_t          Sum_1;         /* sum #1 */
  uint32_t          Sum_2;         /* sum #2 */
  uint32_t          Value;

  /* check for a capacitor >= 10nF */
  if ((Cap == NULL) ||
    2ac2:	00 97       	sbiw	r24, 0x00	; 0
    2ac4:	51 f4       	brne	.+20     	; 0x2ada <MeasureESR+0x24>
      (CmpValue(Cap->Value, Cap->Scale, 10, -9) < 0)) return ESR;
    2ac6:	2f ef       	ldi	r18, 0xFF	; 255
    2ac8:	3f ef       	ldi	r19, 0xFF	; 255
    2aca:	3c 83       	std	Y+4, r19	; 0x04
    2acc:	2b 83       	std	Y+3, r18	; 0x03
  Cfg.Ref = ADC_REF_BANDGAP;       /* we've used the bandgap reference */

  DischargeProbes();               /* discharge DUT */

  return ESR;
}
    2ace:	8b 81       	ldd	r24, Y+3	; 0x03
    2ad0:	9c 81       	ldd	r25, Y+4	; 0x04
    2ad2:	24 96       	adiw	r28, 0x04	; 4
    2ad4:	e2 e1       	ldi	r30, 0x12	; 18
    2ad6:	0c 94 88 2d 	jmp	0x5b10	; 0x5b10 <__epilogue_restores__>
    2ada:	9c 83       	std	Y+4, r25	; 0x04
    2adc:	8b 83       	std	Y+3, r24	; 0x03
  uint32_t          Sum_2;         /* sum #2 */
  uint32_t          Value;

  /* check for a capacitor >= 10nF */
  if ((Cap == NULL) ||
      (CmpValue(Cap->Value, Cap->Scale, 10, -9) < 0)) return ESR;
    2ade:	fc 01       	movw	r30, r24
    2ae0:	63 81       	ldd	r22, Z+3	; 0x03
    2ae2:	74 81       	ldd	r23, Z+4	; 0x04
    2ae4:	85 81       	ldd	r24, Z+5	; 0x05
    2ae6:	96 81       	ldd	r25, Z+6	; 0x06
    2ae8:	a7 ef       	ldi	r26, 0xF7	; 247
    2aea:	ea 2e       	mov	r14, r26
    2aec:	0a e0       	ldi	r16, 0x0A	; 10
    2aee:	10 e0       	ldi	r17, 0x00	; 0
    2af0:	20 e0       	ldi	r18, 0x00	; 0
    2af2:	30 e0       	ldi	r19, 0x00	; 0
    2af4:	42 81       	ldd	r20, Z+2	; 0x02
    2af6:	0e 94 a6 06 	call	0xd4c	; 0xd4c <CmpValue>
  uint32_t          Sum_1;         /* sum #1 */
  uint32_t          Sum_2;         /* sum #2 */
  uint32_t          Value;

  /* check for a capacitor >= 10nF */
  if ((Cap == NULL) ||
    2afa:	87 fd       	sbrc	r24, 7
    2afc:	e4 cf       	rjmp	.-56     	; 0x2ac6 <MeasureESR+0x10>

  /*
   *  init stuff
   */

  DischargeProbes();                    /* try to discharge probes */
    2afe:	0e 94 d4 0e 	call	0x1da8	; 0x1da8 <DischargeProbes>
  if (Check.Found == COMP_ERROR) return ESR;   /* skip on error */
    2b02:	80 91 01 01 	lds	r24, 0x0101	; 0x800101 <Check>
    2b06:	81 30       	cpi	r24, 0x01	; 1
    2b08:	f1 f2       	breq	.-68     	; 0x2ac6 <MeasureESR+0x10>

  /* Some testers need additional discharging to lower the cap's residual
     voltage to a reasonable level. */
  DischargeCap(Cap->A, Cap->B);         /* additional discharge */
    2b0a:	eb 81       	ldd	r30, Y+3	; 0x03
    2b0c:	fc 81       	ldd	r31, Y+4	; 0x04
    2b0e:	61 81       	ldd	r22, Z+1	; 0x01
    2b10:	80 81       	ld	r24, Z
    2b12:	0e 94 8c 0e 	call	0x1d18	; 0x1d18 <DischargeCap>

  UpdateProbes2(Cap->A, Cap->B);        /* update probes */
    2b16:	eb 81       	ldd	r30, Y+3	; 0x03
    2b18:	fc 81       	ldd	r31, Y+4	; 0x04
    2b1a:	61 81       	ldd	r22, Z+1	; 0x01
    2b1c:	80 81       	ld	r24, Z
    2b1e:	0e 94 31 0e 	call	0x1c62	; 0x1c62 <UpdateProbes2>
  Probe1 = Probes.Ch_1;                 /* ADC MUX for probe-1 */
    2b22:	00 91 c4 01 	lds	r16, 0x01C4	; 0x8001c4 <Probes+0xf>
  Probe2 = Probes.Ch_2;                 /* ADC MUX for probe-2 */
    2b26:	80 91 c5 01 	lds	r24, 0x01C5	; 0x8001c5 <Probes+0x10>

  Probe1 |= ADC_REF_BANDGAP;            /* select bandgap reference */
    2b2a:	00 6c       	ori	r16, 0xC0	; 192
  Probe2 |= ADC_REF_BANDGAP;            /* select bandgap reference */
    2b2c:	80 6c       	ori	r24, 0xC0	; 192
    2b2e:	8a 83       	std	Y+2, r24	; 0x02
   *  set up Timer0:
   *  - CTC mode (count up to OCR0A) 
   *  - prescaler 1 to match MCU cycles
   */

  TCCR0B = 0;                      /* stop timer */
    2b30:	15 bc       	out	0x25, r1	; 37
  TCCR0A = (1 << WGM01);           /* set CTC mode, disable output compare pins */
    2b32:	82 e0       	ldi	r24, 0x02	; 2
    2b34:	84 bd       	out	0x24, r24	; 36
  OCR0A = Cycles;                  /* set number of MCU cycles */
    2b36:	81 e2       	ldi	r24, 0x21	; 33
    2b38:	87 bd       	out	0x27, r24	; 39
   *  - pre-charge DUT with a negative pulse of half length to
   *    to compensate voltage rise by positive charging pulse
   *  - 16 & 20 MHz MCUs seem to measure higher ESR values
   */  

  ADC_PORT = 0;          /* set ADC port to low */
    2b3a:	18 b8       	out	0x08, r1	; 8
  ADMUX = Probe1;        /* set input channel to probe-1 & set bandgap ref */
    2b3c:	00 93 7c 00 	sts	0x007C, r16	; 0x80007c <__TEXT_REGION_LENGTH__+0x7f807c>
  wait10ms();            /* time for voltage stabilization */
    2b40:	0e 94 28 2b 	call	0x5650	; 0x5650 <wait10ms>
    2b44:	ff ef       	ldi	r31, 0xFF	; 255
    2b46:	f9 83       	std	Y+1, r31	; 0x01
  /* register bits to enable and start ADC */
  Bits = (1 << ADSC) | (1 << ADEN) | (1 << ADIF) | ADC_CLOCK_DIV;

  /* init variables */
  Sum_1 = 1;             /* 1 to prevent division by zero */
  Sum_2 = 1;             /* 1 to prevent division by zero */
    2b48:	81 2c       	mov	r8, r1
    2b4a:	91 2c       	mov	r9, r1
    2b4c:	54 01       	movw	r10, r8
    2b4e:	83 94       	inc	r8

  /* register bits to enable and start ADC */
  Bits = (1 << ADSC) | (1 << ADEN) | (1 << ADIF) | ADC_CLOCK_DIV;

  /* init variables */
  Sum_1 = 1;             /* 1 to prevent division by zero */
    2b50:	41 2c       	mov	r4, r1
    2b52:	51 2c       	mov	r5, r1
    2b54:	32 01       	movw	r6, r4
    2b56:	43 94       	inc	r4
  ADC_PORT = 0;          /* set ADC port to low */
  ADMUX = Probe1;        /* set input channel to probe-1 & set bandgap ref */
  wait10ms();            /* time for voltage stabilization */

  U_2 = 50;              /* don't start with positive half-pulse */
  U_4 = 0;               /* start with a negative half-pulse */
    2b58:	90 e0       	ldi	r25, 0x00	; 0
    2b5a:	80 e0       	ldi	r24, 0x00	; 0

  ADC_PORT = 0;          /* set ADC port to low */
  ADMUX = Probe1;        /* set input channel to probe-1 & set bandgap ref */
  wait10ms();            /* time for voltage stabilization */

  U_2 = 50;              /* don't start with positive half-pulse */
    2b5c:	52 e3       	ldi	r21, 0x32	; 50
    2b5e:	c5 2e       	mov	r12, r21
    2b60:	d1 2c       	mov	r13, r1
    ADC_DDR = Probes.Pin_1;        /* pull down probe-1 directly to GND */
    R_PORT = Probes.Rl_1;          /* pull up probe-1 via Rl */
    R_DDR = Probes.Rl_1;           /* enable resistor */
    ADMUX = Probe1;                /* set input channel to probe-1 & set bandgap ref */
    /* run dummy conversion for ADMUX change */
    ADCSRA = Bits;                 /* start conversion */
    2b62:	16 ed       	ldi	r17, 0xD6	; 214
  U_4 = 0;               /* start with a negative half-pulse */
  n = 255;               /* set loop counter */

  while (n > 0)
  {
    wdt_reset();                   /* reset watchdog */
    2b64:	a8 95       	wdr

    /*
     *  mitigate runaway of cap's charge/voltage
     */

    if (U_4 < 50)             /* voltage too low for last negative pulse */
    2b66:	c2 97       	sbiw	r24, 0x32	; 50
    2b68:	58 f4       	brcc	.+22     	; 0x2b80 <MeasureESR+0xca>
    {
      /* charge cap a little bit more: negative pulse */

      /* set probes: GND -- probe-2 / probe-1 -- Rl -- Vcc */
      ADC_DDR = Probes.Pin_2;      /* pull down probe-2 directly */
    2b6a:	80 91 c2 01 	lds	r24, 0x01C2	; 0x8001c2 <Probes+0xd>
    2b6e:	87 b9       	out	0x07, r24	; 7
      R_PORT = Probes.Rl_1;        /* pull up probe-1 via Rl */
    2b70:	80 91 bb 01 	lds	r24, 0x01BB	; 0x8001bb <Probes+0x6>
    2b74:	8b b9       	out	0x0b, r24	; 11
      R_DDR = Probes.Rl_1;         /* enable pull up */
    2b76:	8a b9       	out	0x0a, r24	; 10
      wait2us();                   /* wait half-pulse */
    2b78:	0e 94 3b 2b 	call	0x5676	; 0x5676 <wait2us>
      R_DDR = 0;                   /* disable any pull up */      
    2b7c:	1a b8       	out	0x0a, r1	; 10
      R_PORT = 0;                  /* reset probe resistors */
    2b7e:	1b b8       	out	0x0b, r1	; 11
    }

    if (U_2 < 50)             /* voltage too low for last positive pulse */
    2b80:	22 e3       	ldi	r18, 0x32	; 50
    2b82:	c2 16       	cp	r12, r18
    2b84:	d1 04       	cpc	r13, r1
    2b86:	58 f4       	brcc	.+22     	; 0x2b9e <MeasureESR+0xe8>
    2b88:	80 91 c1 01 	lds	r24, 0x01C1	; 0x8001c1 <Probes+0xc>
    {
      /* charge cap a little bit more: positive pulse */

      /* set probes: GND -- probe-1 / probe-2 -- Rl -- Vcc */
      ADC_DDR = Probes.Pin_1;      /* pull down probe-1 directly */
    2b8c:	87 b9       	out	0x07, r24	; 7
      R_PORT = Probes.Rl_2;        /* pull up probe-2 via Rl */
    2b8e:	80 91 bc 01 	lds	r24, 0x01BC	; 0x8001bc <Probes+0x7>
    2b92:	8b b9       	out	0x0b, r24	; 11
      R_DDR = Probes.Rl_2;         /* enable pull up */
    2b94:	8a b9       	out	0x0a, r24	; 10
      wait2us();                   /* wait half-pulse */
    2b96:	0e 94 3b 2b 	call	0x5676	; 0x5676 <wait2us>
      R_DDR = 0;                   /* disable any pull up */      
    2b9a:	1a b8       	out	0x0a, r1	; 10
      R_PORT = 0;                  /* reset probe resistors */
    2b9c:	1b b8       	out	0x0b, r1	; 11
     *  forward mode, probe-1 only (probe-2 in HiZ mode)
     *  set probes: GND -- probe-1 -- Rl -- Vcc / probe-2 -- HiZ
     *  get voltage at probe-1 (voltage at RiL)
     */

    ADC_DDR = Probes.Pin_1;        /* pull down probe-1 directly to GND */
    2b9e:	80 91 c1 01 	lds	r24, 0x01C1	; 0x8001c1 <Probes+0xc>
    2ba2:	87 b9       	out	0x07, r24	; 7
    R_PORT = Probes.Rl_1;          /* pull up probe-1 via Rl */
    2ba4:	80 91 bb 01 	lds	r24, 0x01BB	; 0x8001bb <Probes+0x6>
    2ba8:	8b b9       	out	0x0b, r24	; 11
    R_DDR = Probes.Rl_1;           /* enable resistor */
    2baa:	8a b9       	out	0x0a, r24	; 10
    ADMUX = Probe1;                /* set input channel to probe-1 & set bandgap ref */
    2bac:	00 93 7c 00 	sts	0x007C, r16	; 0x80007c <__TEXT_REGION_LENGTH__+0x7f807c>
    /* run dummy conversion for ADMUX change */
    ADCSRA = Bits;                 /* start conversion */
    2bb0:	10 93 7a 00 	sts	0x007A, r17	; 0x80007a <__TEXT_REGION_LENGTH__+0x7f807a>
    while (ADCSRA & (1 << ADSC));  /* wait until conversion is done */
    2bb4:	80 91 7a 00 	lds	r24, 0x007A	; 0x80007a <__TEXT_REGION_LENGTH__+0x7f807a>
    2bb8:	86 fd       	sbrc	r24, 6
    2bba:	fc cf       	rjmp	.-8      	; 0x2bb4 <MeasureESR+0xfe>
    /* real conversion */
    ADCSRA = Bits;                 /* start conversion */
    2bbc:	10 93 7a 00 	sts	0x007A, r17	; 0x80007a <__TEXT_REGION_LENGTH__+0x7f807a>
    while (ADCSRA & (1 << ADSC));  /* wait until conversion is done */
    2bc0:	80 91 7a 00 	lds	r24, 0x007A	; 0x80007a <__TEXT_REGION_LENGTH__+0x7f807a>
    2bc4:	86 fd       	sbrc	r24, 6
    2bc6:	fc cf       	rjmp	.-8      	; 0x2bc0 <MeasureESR+0x10a>
    U_1 = ADCW;                    /* save ADC value */
    2bc8:	20 90 78 00 	lds	r2, 0x0078	; 0x800078 <__TEXT_REGION_LENGTH__+0x7f8078>
    2bcc:	30 90 79 00 	lds	r3, 0x0079	; 0x800079 <__TEXT_REGION_LENGTH__+0x7f8079>
     *  forward mode, positive charging pulse
     *  set probes: GND -- probe-1 / probe-2 -- Rl -- Vcc
     *  get voltage at probe-2 (voltage at DUT, i.e. RiL + ESR)
     */

    ADMUX = Probe2;                /* set input channel to probe-2 & set bandgap ref */
    2bd0:	3a 81       	ldd	r19, Y+2	; 0x02
    2bd2:	30 93 7c 00 	sts	0x007C, r19	; 0x80007c <__TEXT_REGION_LENGTH__+0x7f807c>
    /* run dummy conversion for ADMUX change */
    ADCSRA = Bits;                 /* start conversion */
    2bd6:	10 93 7a 00 	sts	0x007A, r17	; 0x80007a <__TEXT_REGION_LENGTH__+0x7f807a>
    while (ADCSRA & (1 << ADSC));  /* wait until conversion is done */
    2bda:	80 91 7a 00 	lds	r24, 0x007A	; 0x80007a <__TEXT_REGION_LENGTH__+0x7f807a>
    2bde:	86 fd       	sbrc	r24, 6
    2be0:	fc cf       	rjmp	.-8      	; 0x2bda <MeasureESR+0x124>

    /* read ADC in the mid of a positive charging pulse */
    ADCSRA = Bits;                 /* start conversion with next ADC clock cycle */
    2be2:	10 93 7a 00 	sts	0x007A, r17	; 0x80007a <__TEXT_REGION_LENGTH__+0x7f807a>
    wait10us();                    /* fixed pre-delay */
    2be6:	0e 94 37 2b 	call	0x566e	; 0x566e <wait10us>
    DelayTimer();                  /* delay for pulse */
    2bea:	0e 94 52 15 	call	0x2aa4	; 0x2aa4 <DelayTimer>
    R_PORT = Probes.Rl_2;          /* pull up probe-2 via Rl */
    2bee:	80 91 bc 01 	lds	r24, 0x01BC	; 0x8001bc <Probes+0x7>
    2bf2:	8b b9       	out	0x0b, r24	; 11
    R_DDR = Probes.Rl_2;           /* enable resistor */
    2bf4:	8a b9       	out	0x0a, r24	; 10
    wait2us();                     /* first half-pulse */
    2bf6:	0e 94 3b 2b 	call	0x5676	; 0x5676 <wait2us>
                                   /* S/H happens here */
    #if CPU_FREQ < 8000000
    wait2us();                     /* second half-pulse */
    #endif
//    R_PORT = 0;                    /* set resistor port to low */
    R_DDR = 0;                     /* set resistor port to HiZ */
    2bfa:	1a b8       	out	0x0a, r1	; 10
    while (ADCSRA & (1 << ADSC));  /* wait until conversion is done */
    2bfc:	80 91 7a 00 	lds	r24, 0x007A	; 0x80007a <__TEXT_REGION_LENGTH__+0x7f807a>
    2c00:	86 fd       	sbrc	r24, 6
    2c02:	fc cf       	rjmp	.-8      	; 0x2bfc <MeasureESR+0x146>
    U_2 = ADCW;                    /* save ADC value */
    2c04:	c0 90 78 00 	lds	r12, 0x0078	; 0x800078 <__TEXT_REGION_LENGTH__+0x7f8078>
    2c08:	d0 90 79 00 	lds	r13, 0x0079	; 0x800079 <__TEXT_REGION_LENGTH__+0x7f8079>
     *  reverse mode, probe-2 only (probe-1 in HiZ mode)
     *  set probes: GND -- probe-2 -- Rl -- Vcc / probe-1 -- HiZ
     *  get voltage at probe-2 (voltage at RiL)
     */

    ADC_DDR = Probes.Pin_2;        /* pull down probe-2 directly */
    2c0c:	80 91 c2 01 	lds	r24, 0x01C2	; 0x8001c2 <Probes+0xd>
    2c10:	87 b9       	out	0x07, r24	; 7
    R_PORT = Probes.Rl_2;          /* pull up probe-2 via Rl */
    2c12:	80 91 bc 01 	lds	r24, 0x01BC	; 0x8001bc <Probes+0x7>
    2c16:	8b b9       	out	0x0b, r24	; 11
    R_DDR = Probes.Rl_2;           /* enable resistor */
    2c18:	8a b9       	out	0x0a, r24	; 10
    ADMUX = Probe2;                /* set input channel to probe-2 & set bandgap ref */
    2c1a:	6a 81       	ldd	r22, Y+2	; 0x02
    2c1c:	60 93 7c 00 	sts	0x007C, r22	; 0x80007c <__TEXT_REGION_LENGTH__+0x7f807c>
    /* run dummy conversion for ADMUX change */
    ADCSRA = Bits;                 /* start conversion */
    2c20:	10 93 7a 00 	sts	0x007A, r17	; 0x80007a <__TEXT_REGION_LENGTH__+0x7f807a>
    while (ADCSRA & (1 << ADSC));  /* wait until conversion is done */
    2c24:	80 91 7a 00 	lds	r24, 0x007A	; 0x80007a <__TEXT_REGION_LENGTH__+0x7f807a>
    2c28:	86 fd       	sbrc	r24, 6
    2c2a:	fc cf       	rjmp	.-8      	; 0x2c24 <MeasureESR+0x16e>
    /* real conversion */
    ADCSRA = Bits;                 /* start conversion */
    2c2c:	10 93 7a 00 	sts	0x007A, r17	; 0x80007a <__TEXT_REGION_LENGTH__+0x7f807a>
    while (ADCSRA & (1 << ADSC));  /* wait until conversion is done */
    2c30:	80 91 7a 00 	lds	r24, 0x007A	; 0x80007a <__TEXT_REGION_LENGTH__+0x7f807a>
    2c34:	86 fd       	sbrc	r24, 6
    2c36:	fc cf       	rjmp	.-8      	; 0x2c30 <MeasureESR+0x17a>
    U_3 = ADCW;                    /* save ADC value */
    2c38:	e0 90 78 00 	lds	r14, 0x0078	; 0x800078 <__TEXT_REGION_LENGTH__+0x7f8078>
    2c3c:	f0 90 79 00 	lds	r15, 0x0079	; 0x800079 <__TEXT_REGION_LENGTH__+0x7f8079>
     *  reverse mode, negative charging pulse
     *  set probes: GND -- probe-2 / probe-1 -- Rl -- Vcc
     *  get voltage at probe-1 (voltage at DUT, i.e. RiL + ESR)
     */

    ADMUX = Probe1;                /* set input channel to probe-1 & set bandgap ref */
    2c40:	00 93 7c 00 	sts	0x007C, r16	; 0x80007c <__TEXT_REGION_LENGTH__+0x7f807c>
    /* run dummy conversion for ADMUX change */
    ADCSRA = Bits;                 /* start conversion */
    2c44:	10 93 7a 00 	sts	0x007A, r17	; 0x80007a <__TEXT_REGION_LENGTH__+0x7f807a>
    while (ADCSRA & (1 << ADSC));  /* wait until conversion is done */
    2c48:	80 91 7a 00 	lds	r24, 0x007A	; 0x80007a <__TEXT_REGION_LENGTH__+0x7f807a>
    2c4c:	86 fd       	sbrc	r24, 6
    2c4e:	fc cf       	rjmp	.-8      	; 0x2c48 <MeasureESR+0x192>

    /* read ADC in the mid of a negatve charging pulse */
    ADCSRA = Bits;                 /* start conversion with next ADC clock cycle */
    2c50:	10 93 7a 00 	sts	0x007A, r17	; 0x80007a <__TEXT_REGION_LENGTH__+0x7f807a>
    wait10us();                    /* fixed pre-delay */
    2c54:	0e 94 37 2b 	call	0x566e	; 0x566e <wait10us>
    DelayTimer();                  /* delay for pulse */
    2c58:	0e 94 52 15 	call	0x2aa4	; 0x2aa4 <DelayTimer>
    R_PORT = Probes.Rl_1;          /* pull up probe-1 via Rl */
    2c5c:	80 91 bb 01 	lds	r24, 0x01BB	; 0x8001bb <Probes+0x6>
    2c60:	8b b9       	out	0x0b, r24	; 11
    R_DDR = Probes.Rl_1;           /* enable resistor */
    2c62:	8a b9       	out	0x0a, r24	; 10
    wait2us();                     /* first half-pulse */
    2c64:	0e 94 3b 2b 	call	0x5676	; 0x5676 <wait2us>
                                   /* S/H happens here */
    #if CPU_FREQ < 8000000
    wait2us();                     /* second half-pulse */
    #endif
//    R_PORT = 0;                    /* set resistor port to low */
    R_DDR = 0;                     /* set resistor port to HiZ */
    2c68:	1a b8       	out	0x0a, r1	; 10
    while (ADCSRA & (1 << ADSC));  /* wait until conversion is done */
    2c6a:	80 91 7a 00 	lds	r24, 0x007A	; 0x80007a <__TEXT_REGION_LENGTH__+0x7f807a>
    2c6e:	86 fd       	sbrc	r24, 6
    2c70:	fc cf       	rjmp	.-8      	; 0x2c6a <MeasureESR+0x1b4>
    U_4 = ADCW;                    /* save ADC value */
    2c72:	80 91 78 00 	lds	r24, 0x0078	; 0x800078 <__TEXT_REGION_LENGTH__+0x7f8078>
    2c76:	90 91 79 00 	lds	r25, 0x0079	; 0x800079 <__TEXT_REGION_LENGTH__+0x7f8079>
    /*
     *  manage measured values
     */

    Sum_1 += U_1;        /* positive pulse without DUT */
    Sum_1 += U_3;        /* negative pulse without DUT */
    2c7a:	a7 01       	movw	r20, r14
    2c7c:	70 e0       	ldi	r23, 0x00	; 0
    2c7e:	60 e0       	ldi	r22, 0x00	; 0
    2c80:	42 0d       	add	r20, r2
    2c82:	53 1d       	adc	r21, r3
    2c84:	61 1d       	adc	r22, r1
    2c86:	71 1d       	adc	r23, r1
    2c88:	44 0e       	add	r4, r20
    2c8a:	55 1e       	adc	r5, r21
    2c8c:	66 1e       	adc	r6, r22
    2c8e:	77 1e       	adc	r7, r23
    Sum_2 += U_2;        /* positive pulse with DUT */
    Sum_2 += U_4;        /* negative pulse with DUT */
    2c90:	ac 01       	movw	r20, r24
    2c92:	70 e0       	ldi	r23, 0x00	; 0
    2c94:	60 e0       	ldi	r22, 0x00	; 0
    2c96:	4c 0d       	add	r20, r12
    2c98:	5d 1d       	adc	r21, r13
    2c9a:	61 1d       	adc	r22, r1
    2c9c:	71 1d       	adc	r23, r1
    2c9e:	84 0e       	add	r8, r20
    2ca0:	95 1e       	adc	r9, r21
    2ca2:	a6 1e       	adc	r10, r22
    2ca4:	b7 1e       	adc	r11, r23
    2ca6:	79 81       	ldd	r23, Y+1	; 0x01
    2ca8:	71 50       	subi	r23, 0x01	; 1
    2caa:	79 83       	std	Y+1, r23	; 0x01

  U_2 = 50;              /* don't start with positive half-pulse */
  U_4 = 0;               /* start with a negative half-pulse */
  n = 255;               /* set loop counter */

  while (n > 0)
    2cac:	71 11       	cpse	r23, r1
    2cae:	5a cf       	rjmp	.-332    	; 0x2b64 <MeasureESR+0xae>
    Sum_2 += U_4;        /* negative pulse with DUT */
    n--;                 /* next loop run */
  }

  /* probes: reset to safe mode */
  ADC_DDR = 0;
    2cb0:	17 b8       	out	0x07, r1	; 7
  R_PORT = 0;
    2cb2:	1b b8       	out	0x0b, r1	; 11

  /*
   *  process measurements
   */

  if (Sum_2 > Sum_1)               /* valid measurement */
    2cb4:	48 14       	cp	r4, r8
    2cb6:	59 04       	cpc	r5, r9
    2cb8:	6a 04       	cpc	r6, r10
    2cba:	7b 04       	cpc	r7, r11
    2cbc:	08 f0       	brcs	.+2      	; 0x2cc0 <MeasureESR+0x20a>
    2cbe:	47 c0       	rjmp	.+142    	; 0x2d4e <MeasureESR+0x298>

    /* voltage across the DUT (raw value) */
    Sum_2 -= Sum_1;           /* subtract voltage at DUT's low side (RiL) */

    /* ESR = Sum_2 * RiL / Sum_1 */
    Value = (uint32_t)(NV.RiL * 10);    /* RiL in 0.01 Ohms */
    2cc0:	80 91 c7 01 	lds	r24, 0x01C7	; 0x8001c7 <NV>
    2cc4:	90 91 c8 01 	lds	r25, 0x01C8	; 0x8001c8 <NV+0x1>
    2cc8:	2a e0       	ldi	r18, 0x0A	; 10
    2cca:	28 9f       	mul	r18, r24
    2ccc:	d0 01       	movw	r26, r0
    2cce:	29 9f       	mul	r18, r25
    2cd0:	b0 0d       	add	r27, r0
    2cd2:	11 24       	eor	r1, r1
     *  - so ESR = Sum_2 * RiL / Sum_1
     *  - for a resolution of 0.01 Ohms we have to scale RiL to 0.01 Ohms
     */

    /* voltage across the DUT (raw value) */
    Sum_2 -= Sum_1;           /* subtract voltage at DUT's low side (RiL) */
    2cd4:	a5 01       	movw	r20, r10
    2cd6:	94 01       	movw	r18, r8
    2cd8:	24 19       	sub	r18, r4
    2cda:	35 09       	sbc	r19, r5
    2cdc:	46 09       	sbc	r20, r6
    2cde:	57 09       	sbc	r21, r7

    /* ESR = Sum_2 * RiL / Sum_1 */
    Value = (uint32_t)(NV.RiL * 10);    /* RiL in 0.01 Ohms */
    Value *= Sum_2;                     /* sum of raw values for voltage across DUT */
    2ce0:	0e 94 61 2d 	call	0x5ac2	; 0x5ac2 <__muluhisi3>
    Value /= Sum_1;                     /* sum of raw values for voltage at RiL */
    2ce4:	a3 01       	movw	r20, r6
    2ce6:	92 01       	movw	r18, r4
    2ce8:	0e 94 04 2d 	call	0x5a08	; 0x5a08 <__udivmodsi4>
    #ifdef R_MULTIOFFSET
      /* get index number for probe pair */
      n = GetOffsetIndex(Probes.ID_1, Probes.ID_2);
      U_2 = NV.RZero[n];
    #else
      U_2 = NV.RZero;
    2cec:	80 91 cb 01 	lds	r24, 0x01CB	; 0x8001cb <NV+0x4>
    2cf0:	90 91 cc 01 	lds	r25, 0x01CC	; 0x8001cc <NV+0x5>
    #endif

    if (U_1 > U_2)            /* larger than offset */
    2cf4:	82 17       	cp	r24, r18
    2cf6:	93 07       	cpc	r25, r19
    2cf8:	58 f4       	brcc	.+22     	; 0x2d10 <MeasureESR+0x25a>
    {
      U_1 -= U_2;             /* subtract offset */
    2cfa:	f9 01       	movw	r30, r18
    2cfc:	e8 1b       	sub	r30, r24
    2cfe:	f9 0b       	sbc	r31, r25
    2d00:	fc 83       	std	Y+4, r31	; 0x04
    2d02:	eb 83       	std	Y+3, r30	; 0x03
  /*
   *  clean up
   */

  /* update reference source for next ADC run */
  Cfg.Ref = ADC_REF_BANDGAP;       /* we've used the bandgap reference */
    2d04:	80 ec       	ldi	r24, 0xC0	; 192
    2d06:	80 93 8b 01 	sts	0x018B, r24	; 0x80018b <Cfg+0x5>

  DischargeProbes();               /* discharge DUT */
    2d0a:	0e 94 d4 0e 	call	0x1da8	; 0x1da8 <DischargeProbes>

  return ESR;
    2d0e:	df ce       	rjmp	.-578    	; 0x2ace <MeasureESR+0x18>
      ESR = U_1;              /* got result */
    }
    else                      /* offset problem or zero */
    {
      /* should only happen for large caps (>1000ÁF) */
      if (CmpValue(Cap->Value, Cap->Scale, 1000, -6) > 0)
    2d10:	eb 81       	ldd	r30, Y+3	; 0x03
    2d12:	fc 81       	ldd	r31, Y+4	; 0x04
    2d14:	63 81       	ldd	r22, Z+3	; 0x03
    2d16:	74 81       	ldd	r23, Z+4	; 0x04
    2d18:	85 81       	ldd	r24, Z+5	; 0x05
    2d1a:	96 81       	ldd	r25, Z+6	; 0x06
    2d1c:	2a ef       	ldi	r18, 0xFA	; 250
    2d1e:	e2 2e       	mov	r14, r18
    2d20:	08 ee       	ldi	r16, 0xE8	; 232
    2d22:	13 e0       	ldi	r17, 0x03	; 3
    2d24:	20 e0       	ldi	r18, 0x00	; 0
    2d26:	30 e0       	ldi	r19, 0x00	; 0
    2d28:	42 81       	ldd	r20, Z+2	; 0x02
    2d2a:	0e 94 a6 06 	call	0xd4c	; 0xd4c <CmpValue>
    2d2e:	21 e0       	ldi	r18, 0x01	; 1
    2d30:	30 e0       	ldi	r19, 0x00	; 0
    2d32:	3c 83       	std	Y+4, r19	; 0x04
    2d34:	2b 83       	std	Y+3, r18	; 0x03
    2d36:	18 16       	cp	r1, r24
    2d38:	14 f4       	brge	.+4      	; 0x2d3e <MeasureESR+0x288>
    2d3a:	1c 82       	std	Y+4, r1	; 0x04
    2d3c:	1b 82       	std	Y+3, r1	; 0x03
    2d3e:	6b 81       	ldd	r22, Y+3	; 0x03
    2d40:	7c 81       	ldd	r23, Y+4	; 0x04
    2d42:	71 95       	neg	r23
    2d44:	61 95       	neg	r22
    2d46:	71 09       	sbc	r23, r1
    2d48:	7c 83       	std	Y+4, r23	; 0x04
    2d4a:	6b 83       	std	Y+3, r22	; 0x03
    2d4c:	db cf       	rjmp	.-74     	; 0x2d04 <MeasureESR+0x24e>
 *  - UINT16_MAX on any problem
 */

uint16_t MeasureESR(Capacitor_Type *Cap)
{
  uint16_t          ESR = UINT16_MAX;   /* return value */
    2d4e:	8f ef       	ldi	r24, 0xFF	; 255
    2d50:	9f ef       	ldi	r25, 0xFF	; 255
    2d52:	9c 83       	std	Y+4, r25	; 0x04
    2d54:	8b 83       	std	Y+3, r24	; 0x03
    2d56:	d6 cf       	rjmp	.-84     	; 0x2d04 <MeasureESR+0x24e>

00002d58 <LargeCap>:
 *  - 1 if capacitance is too high
 *  - 0 on any problem
 */

uint8_t LargeCap(Capacitor_Type *Cap)
{
    2d58:	b0 e0       	ldi	r27, 0x00	; 0
    2d5a:	a0 e0       	ldi	r26, 0x00	; 0
    2d5c:	e2 eb       	ldi	r30, 0xB2	; 178
    2d5e:	f6 e1       	ldi	r31, 0x16	; 22
    2d60:	0c 94 6f 2d 	jmp	0x5ade	; 0x5ade <__prologue_saves__+0x6>
    2d64:	7c 01       	movw	r14, r24
    2d66:	52 e0       	ldi	r21, 0x02	; 2
    2d68:	a5 2e       	mov	r10, r21
    2d6a:	b1 2c       	mov	r11, r1
  uint16_t          U_Leak = 0;    /* voltage drop (leakage current) */
  uint32_t          Raw;           /* raw capacitance value */
  uint32_t          Value;         /* corrected capacitance value */

  /* set up mode */
  Mode = PULL_10MS | PULL_UP;      /* start with large cap (>47uF) */
    2d6c:	61 e1       	ldi	r22, 0x11	; 17
    2d6e:	66 2e       	mov	r6, r22
 *  - 0 on any problem
 */

uint8_t LargeCap(Capacitor_Type *Cap)
{
  uint8_t           Flag = 3;      /* return value */
    2d70:	73 e0       	ldi	r23, 0x03	; 3
    2d72:	77 2e       	mov	r7, r23
   */

large_cap:

  /* prepare probes */
  DischargeProbes();                    /* try to discharge probes */
    2d74:	0e 94 d4 0e 	call	0x1da8	; 0x1da8 <DischargeProbes>
  if (Check.Found == COMP_ERROR) return 0;     /* skip on error */
    2d78:	80 91 01 01 	lds	r24, 0x0101	; 0x800101 <Check>
    2d7c:	81 30       	cpi	r24, 0x01	; 1
    2d7e:	09 f4       	brne	.+2      	; 0x2d82 <LargeCap+0x2a>
    2d80:	27 c1       	rjmp	.+590    	; 0x2fd0 <LargeCap+0x278>
   *  - use voltage divider: top RiH + Rl, bottom RiL (about 140mV)
   *  - can cause incorrect negative zero offset for diodes with low Vf
   */

  /* set probes: Gnd -- probe-2 -- Rl - Vcc / probe-1 -- HiZ */
  ADC_PORT = 0;                    /* set ADC port to low */
    2d82:	18 b8       	out	0x08, r1	; 8
  ADC_DDR = Probes.Pin_2;          /* pull down probe-2 directly */
    2d84:	80 91 c2 01 	lds	r24, 0x01C2	; 0x8001c2 <Probes+0xd>
    2d88:	87 b9       	out	0x07, r24	; 7
  R_PORT = Probes.Rl_2;            /* pull up probe-2 via Rl */
    2d8a:	80 91 bc 01 	lds	r24, 0x01BC	; 0x8001bc <Probes+0x7>
    2d8e:	8b b9       	out	0x0b, r24	; 11
  R_DDR = Probes.Rl_2;             /* enable pull-up */
    2d90:	8a b9       	out	0x0a, r24	; 10
  U_Zero = ReadU(Probes.Ch_1);     /* get voltage at probe-1 */
    2d92:	80 91 c4 01 	lds	r24, 0x01C4	; 0x8001c4 <Probes+0xf>
    2d96:	0e 94 61 0d 	call	0x1ac2	; 0x1ac2 <ReadU>
    2d9a:	6c 01       	movw	r12, r24
  U_Zero -= ReadU(Probes.Ch_2);    /* - voltage at probe-2 */
    2d9c:	80 91 c5 01 	lds	r24, 0x01C5	; 0x8001c5 <Probes+0x10>
    2da0:	0e 94 61 0d 	call	0x1ac2	; 0x1ac2 <ReadU>
    2da4:	c8 1a       	sub	r12, r24
    2da6:	d9 0a       	sbc	r13, r25

  /* set probes: Gnd -- probe-2 / probe-1 -- HiZ */
  R_PORT = 0;                      /* set resistor port to low */
    2da8:	1b b8       	out	0x0b, r1	; 11
  R_DDR = 0;                       /* set resistor port to HiZ */  
    2daa:	1a b8       	out	0x0a, r1	; 10

  /* charge DUT with up to 500 pulses until it exceeds 300mV */
  /* pulse: probe-1 -- Rl -- Vcc */
  Pulses = 0;                      /* reset number of pulses */
    2dac:	10 e0       	ldi	r17, 0x00	; 0
    2dae:	00 e0       	ldi	r16, 0x00	; 0
  TempByte = 1;                    /* set loop control */
  while (TempByte)                 /* charge loop */
  {
    Pulses++;
    2db0:	0f 5f       	subi	r16, 0xFF	; 255
    2db2:	1f 4f       	sbci	r17, 0xFF	; 255
    PullProbe(Probes.Rl_1, Mode);       /* charging pulse */
    2db4:	66 2d       	mov	r22, r6
    2db6:	80 91 bb 01 	lds	r24, 0x01BB	; 0x8001bb <Probes+0x6>
    2dba:	0e 94 7f 0f 	call	0x1efe	; 0x1efe <PullProbe>
    U_Cap = ReadU(Probes.Ch_1);         /* get voltage */
    2dbe:	80 91 c4 01 	lds	r24, 0x01C4	; 0x8001c4 <Probes+0xf>
    2dc2:	0e 94 61 0d 	call	0x1ac2	; 0x1ac2 <ReadU>

    /* consider zero offset */
    U_temp = (int16_t)U_Cap;       /* explicit type conversion */
    if (U_temp > U_Zero)           /* voltage higher than zero offset */
    2dc6:	c8 16       	cp	r12, r24
    2dc8:	d9 06       	cpc	r13, r25
    2dca:	0c f0       	brlt	.+2      	; 0x2dce <LargeCap+0x76>
    2dcc:	20 c1       	rjmp	.+576    	; 0x300e <LargeCap+0x2b6>
      U_temp -= U_Zero;                 /* subtract zero offset */
    2dce:	ec 01       	movw	r28, r24
    2dd0:	cc 19       	sub	r28, r12
    2dd2:	dd 09       	sbc	r29, r13
    else                           /* shouldn't happen but you never know */
      U_temp = 0;                       /* assume 0V */
    U_Cap = (uint16_t)U_temp;      /* take result */

    /* end loop if charging is too slow */
    if ((Pulses == 126) && (U_Cap < 75)) TempByte = 0;
    2dd4:	0e 37       	cpi	r16, 0x7E	; 126
    2dd6:	11 05       	cpc	r17, r1
    2dd8:	89 f4       	brne	.+34     	; 0x2dfc <LargeCap+0xa4>
    
    /* end loop if 300mV are reached (cap charged) */
    if (U_Cap >= 300) TempByte = 0;
    2dda:	cc 32       	cpi	r28, 0x2C	; 44
    2ddc:	81 e0       	ldi	r24, 0x01	; 1
    2dde:	d8 07       	cpc	r29, r24
    2de0:	fc f4       	brge	.+62     	; 0x2e20 <LargeCap+0xc8>
    else                           /* shouldn't happen but you never know */
      U_temp = 0;                       /* assume 0V */
    U_Cap = (uint16_t)U_temp;      /* take result */

    /* end loop if charging is too slow */
    if ((Pulses == 126) && (U_Cap < 75)) TempByte = 0;
    2de2:	81 e0       	ldi	r24, 0x01	; 1
    2de4:	cb 34       	cpi	r28, 0x4B	; 75
    2de6:	d1 05       	cpc	r29, r1
    2de8:	0c f4       	brge	.+2      	; 0x2dec <LargeCap+0x94>
    2dea:	80 e0       	ldi	r24, 0x00	; 0
    if (U_Cap >= 300) TempByte = 0;

    /* end loop if maximum number of pulses is reached (timeout) */
    if (Pulses == 500) TempByte = 0;

    wdt_reset();                        /* reset watchdog */
    2dec:	a8 95       	wdr

  /* charge DUT with up to 500 pulses until it exceeds 300mV */
  /* pulse: probe-1 -- Rl -- Vcc */
  Pulses = 0;                      /* reset number of pulses */
  TempByte = 1;                    /* set loop control */
  while (TempByte)                 /* charge loop */
    2dee:	81 11       	cpse	r24, r1
    2df0:	df cf       	rjmp	.-66     	; 0x2db0 <LargeCap+0x58>
    2df2:	0f c0       	rjmp	.+30     	; 0x2e12 <LargeCap+0xba>
    2df4:	aa 24       	eor	r10, r10
    2df6:	a3 94       	inc	r10
    2df8:	b1 2c       	mov	r11, r1
    2dfa:	bc cf       	rjmp	.-136    	; 0x2d74 <LargeCap+0x1c>

    /* end loop if charging is too slow */
    if ((Pulses == 126) && (U_Cap < 75)) TempByte = 0;
    
    /* end loop if 300mV are reached (cap charged) */
    if (U_Cap >= 300) TempByte = 0;
    2dfc:	80 e0       	ldi	r24, 0x00	; 0
    2dfe:	cc 32       	cpi	r28, 0x2C	; 44
    2e00:	91 e0       	ldi	r25, 0x01	; 1
    2e02:	d9 07       	cpc	r29, r25
    2e04:	0c f4       	brge	.+2      	; 0x2e08 <LargeCap+0xb0>
    /* consider zero offset */
    U_temp = (int16_t)U_Cap;       /* explicit type conversion */
    if (U_temp > U_Zero)           /* voltage higher than zero offset */
      U_temp -= U_Zero;                 /* subtract zero offset */
    else                           /* shouldn't happen but you never know */
      U_temp = 0;                       /* assume 0V */
    2e06:	81 e0       	ldi	r24, 0x01	; 1
    
    /* end loop if 300mV are reached (cap charged) */
    if (U_Cap >= 300) TempByte = 0;

    /* end loop if maximum number of pulses is reached (timeout) */
    if (Pulses == 500) TempByte = 0;
    2e08:	04 3f       	cpi	r16, 0xF4	; 244
    2e0a:	e1 e0       	ldi	r30, 0x01	; 1
    2e0c:	1e 07       	cpc	r17, r30
    2e0e:	71 f7       	brne	.-36     	; 0x2dec <LargeCap+0x94>

    wdt_reset();                        /* reset watchdog */
    2e10:	a8 95       	wdr
  }

  /* if 300mV are not reached DUT isn't a cap or much too large (>100mF) */
  /* we can ignore that for mid-sized caps */
  if (U_Cap < 300)
    2e12:	cc 32       	cpi	r28, 0x2C	; 44
    2e14:	f1 e0       	ldi	r31, 0x01	; 1
    2e16:	df 07       	cpc	r29, r31
    2e18:	24 f4       	brge	.+8      	; 0x2e22 <LargeCap+0xca>
  {
    Flag = 1;                           /* signal too high capacitance */
    2e1a:	77 24       	eor	r7, r7
    2e1c:	73 94       	inc	r7
    2e1e:	01 c0       	rjmp	.+2      	; 0x2e22 <LargeCap+0xca>
    if (U_Cap >= 300) TempByte = 0;

    /* end loop if maximum number of pulses is reached (timeout) */
    if (Pulses == 500) TempByte = 0;

    wdt_reset();                        /* reset watchdog */
    2e20:	a8 95       	wdr
  {
    Flag = 1;                           /* signal too high capacitance */
  }

  /* if 1300mV are reached with one pulse, we got a small cap */
  if ((Pulses == 1) && (U_Cap > 1300))
    2e22:	01 30       	cpi	r16, 0x01	; 1
    2e24:	11 05       	cpc	r17, r1
    2e26:	91 f4       	brne	.+36     	; 0x2e4c <LargeCap+0xf4>
    2e28:	c5 31       	cpi	r28, 0x15	; 21
    2e2a:	85 e0       	ldi	r24, 0x05	; 5
    2e2c:	d8 07       	cpc	r29, r24
    2e2e:	74 f0       	brlt	.+28     	; 0x2e4c <LargeCap+0xf4>
  {
    if (Mode & PULL_10MS)               /* 10ms pulses (>47ÁF) */
    {
      /* change to smaller cap (4.7 - 47ÁF) */
      Mode = PULL_1MS | PULL_UP;        /* set mode to 1ms charging pulses */
    2e30:	39 e0       	ldi	r19, 0x09	; 9
    2e32:	63 2e       	mov	r6, r19
  }

  /* if 1300mV are reached with one pulse, we got a small cap */
  if ((Pulses == 1) && (U_Cap > 1300))
  {
    if (Mode & PULL_10MS)               /* 10ms pulses (>47ÁF) */
    2e34:	91 e0       	ldi	r25, 0x01	; 1
    2e36:	a9 16       	cp	r10, r25
    2e38:	b1 04       	cpc	r11, r1
    2e3a:	e1 f6       	brne	.-72     	; 0x2df4 <LargeCap+0x9c>
      Mode = PULL_1MS | PULL_UP;        /* set mode to 1ms charging pulses */
      goto large_cap;                   /* and re-run */
    }
    else                                /* 1ms pulses (<47ÁF) */
    {
      Flag = 2;                         /* signal low capacitance (<4.7ÁF) */
    2e3c:	22 e0       	ldi	r18, 0x02	; 2
    2e3e:	72 2e       	mov	r7, r18
    Cap->I_leak_Value = (uint16_t)Value;     /* save result */
    Cap->I_leak_Scale = Scale;
  }

  return Flag;
}
    2e40:	87 2d       	mov	r24, r7
    2e42:	cd b7       	in	r28, 0x3d	; 61
    2e44:	de b7       	in	r29, 0x3e	; 62
    2e46:	ef e0       	ldi	r30, 0x0F	; 15
    2e48:	0c 94 8b 2d 	jmp	0x5b16	; 0x5b16 <__epilogue_restores__+0x6>
   *    as they are just a few in comparison to the ADC conversion.
   *  - Also run ADC conversions to include charge losses by ADC.
   *  - This gives us an approximation of the leakage.
   */

  if (Flag == 3)              /* no issues so far */
    2e4c:	e3 e0       	ldi	r30, 0x03	; 3
    2e4e:	7e 12       	cpse	r7, r30
    2e50:	f7 cf       	rjmp	.-18     	; 0x2e40 <LargeCap+0xe8>
    2e52:	48 01       	movw	r8, r16
  uint16_t          TempInt;       /* temp. value */
  uint16_t          Pulses;        /* number of charging pulses */
  int16_t           U_Zero;        /* voltage before charging (zero offset) */
  int16_t           U_temp;        /* temporary voltage */
  uint16_t          U_Cap;         /* voltage of DUT */
  uint16_t          U_Drop = 0;    /* voltage drop (self-discharge) */
    2e54:	30 e0       	ldi	r19, 0x00	; 0
    2e56:	20 e0       	ldi	r18, 0x00	; 0
    2e58:	0e c0       	rjmp	.+28     	; 0x2e76 <LargeCap+0x11e>
  {
    /* check self-discharging for measuring period */
    TempInt = Pulses;                   /* same number of loop runs (pulses) */
    while (TempInt > 0)                 /* delay loop */
    {
      TempInt--;                        /* decrease timeout */
    2e5a:	f1 e0       	ldi	r31, 0x01	; 1
    2e5c:	8f 1a       	sub	r8, r31
    2e5e:	91 08       	sbc	r9, r1
      U_Drop = ReadU(Probes.Ch_1);      /* get current voltage */
    2e60:	0e 94 61 0d 	call	0x1ac2	; 0x1ac2 <ReadU>

      /* consider zero offset */
      U_temp = (int16_t)U_Drop;         /* explicit type conversion */
      if (U_temp > U_Zero)              /* voltage higher than zero offset */
        U_temp -= U_Zero;                 /* subtract zero offset */
    2e64:	9c 01       	movw	r18, r24
    2e66:	2c 19       	sub	r18, r12
    2e68:	3d 09       	sbc	r19, r13
      TempInt--;                        /* decrease timeout */
      U_Drop = ReadU(Probes.Ch_1);      /* get current voltage */

      /* consider zero offset */
      U_temp = (int16_t)U_Drop;         /* explicit type conversion */
      if (U_temp > U_Zero)              /* voltage higher than zero offset */
    2e6a:	c8 16       	cp	r12, r24
    2e6c:	d9 06       	cpc	r13, r25
    2e6e:	14 f0       	brlt	.+4      	; 0x2e74 <LargeCap+0x11c>
        U_temp -= U_Zero;                 /* subtract zero offset */
      else                              /* shouldn't happen but you never know */
        U_temp = 0;                       /* assume 0V */
    2e70:	30 e0       	ldi	r19, 0x00	; 0
    2e72:	20 e0       	ldi	r18, 0x00	; 0
      U_Drop = (uint16_t)U_temp;        /* take result */

      wdt_reset();                      /* reset watchdog */
    2e74:	a8 95       	wdr
    2e76:	80 91 c4 01 	lds	r24, 0x01C4	; 0x8001c4 <Probes+0xf>

  if (Flag == 3)              /* no issues so far */
  {
    /* check self-discharging for measuring period */
    TempInt = Pulses;                   /* same number of loop runs (pulses) */
    while (TempInt > 0)                 /* delay loop */
    2e7a:	81 14       	cp	r8, r1
    2e7c:	91 04       	cpc	r9, r1
    2e7e:	69 f7       	brne	.-38     	; 0x2e5a <LargeCap+0x102>
      Cap->U_loss = (uint16_t)((unsigned long)(U_Drop * 1000UL) / U_Cap);
      #endif
    }
    else                           /* bad values */
    {
      U_Drop = 0;                  /* zero drop */
    2e80:	d1 2c       	mov	r13, r1
    2e82:	c1 2c       	mov	r12, r1

      wdt_reset();                      /* reset watchdog */
    }

    /* calculate voltage drop */
    if (U_Cap > U_Drop)                 /* sanity check */
    2e84:	2c 17       	cp	r18, r28
    2e86:	3d 07       	cpc	r19, r29
    2e88:	40 f4       	brcc	.+16     	; 0x2e9a <LargeCap+0x142>
    {
      U_Drop = U_Cap - U_Drop;          /* voltage drop */
    2e8a:	6e 01       	movw	r12, r28
    2e8c:	c2 1a       	sub	r12, r18
    2e8e:	d3 0a       	sbc	r13, r19
    {
      U_Drop = 0;                  /* zero drop */
    }

    /* if voltage drop is too large, consider DUT not to be a cap */
    if (U_Drop > 100) Flag = 0;
    2e90:	95 e6       	ldi	r25, 0x65	; 101
    2e92:	c9 16       	cp	r12, r25
    2e94:	d1 04       	cpc	r13, r1
    2e96:	08 f0       	brcs	.+2      	; 0x2e9a <LargeCap+0x142>
    2e98:	7c c0       	rjmp	.+248    	; 0x2f92 <LargeCap+0x23a>
     *  determine the self-discharge leakage current.
     *  - The charge required for the ADC conversion can be neglected because
     *    C_S/H is just 14pF (very small vs. DUT).
     */

    U_Leak = ReadU(Probes.Ch_1);        /* get start voltage */
    2e9a:	0e 94 61 0d 	call	0x1ac2	; 0x1ac2 <ReadU>
    2e9e:	5c 01       	movw	r10, r24
    2ea0:	e6 2d       	mov	r30, r6
    2ea2:	e0 71       	andi	r30, 0x10	; 16
    2ea4:	5e 2e       	mov	r5, r30

    if (Mode & PULL_10MS)     /* > 47ÁF */
    2ea6:	09 f4       	brne	.+2      	; 0x2eaa <LargeCap+0x152>
    2ea8:	76 c0       	rjmp	.+236    	; 0x2f96 <LargeCap+0x23e>
    {
      wait1000ms();
    2eaa:	0e 94 1d 2b 	call	0x563a	; 0x563a <wait1000ms>
    else                      /* < 47ÁF */
    {
      wait100ms();
    }

    TempInt = ReadU(Probes.Ch_1);       /* get voltage after delay */
    2eae:	80 91 c4 01 	lds	r24, 0x01C4	; 0x8001c4 <Probes+0xf>
    2eb2:	0e 94 61 0d 	call	0x1ac2	; 0x1ac2 <ReadU>

    /* calculate voltage drop */
    if (U_Leak > TempInt)               /* sanity check */
    2eb6:	8a 15       	cp	r24, r10
    2eb8:	9b 05       	cpc	r25, r11
    2eba:	18 f4       	brcc	.+6      	; 0x2ec2 <LargeCap+0x16a>
      uint16_t           U_Temp;        /* temp. value */

      U_Temp = U_Leak;                  /* save voltage */
      #endif

      U_Leak -= TempInt;                /* voltage drop */
    2ebc:	45 01       	movw	r8, r10
    2ebe:	88 1a       	sub	r8, r24
    2ec0:	99 0a       	sbc	r9, r25
   *  - use factor from pre-calculated LargeCap_table
   *  - ignore NV.CapZero since it's in the pF range
   *  - consider voltage drop by ADC and leakage
   */

  if (Flag == 3)              /* no issues so far */
    2ec2:	f3 e0       	ldi	r31, 0x03	; 3
    2ec4:	7f 12       	cpse	r7, r31
    2ec6:	bc cf       	rjmp	.-136    	; 0x2e40 <LargeCap+0xe8>
  {
    Scale = -9;                           /* factor is scaled to nF */
    /* get interpolated factor from table */
    Raw = GetFactor(U_Cap + U_Drop, TABLE_LARGE_CAP);
    2ec8:	62 e0       	ldi	r22, 0x02	; 2
    2eca:	c6 01       	movw	r24, r12
    2ecc:	8c 0f       	add	r24, r28
    2ece:	9d 1f       	adc	r25, r29
    2ed0:	0e 94 9b 0f 	call	0x1f36	; 0x1f36 <GetFactor>
    Raw *= Pulses;                        /* C = pulses * factor */
    2ed4:	98 01       	movw	r18, r16
    2ed6:	dc 01       	movw	r26, r24
    2ed8:	0e 94 4b 2d 	call	0x5a96	; 0x5a96 <__umulhisi3>
    2edc:	5b 01       	movw	r10, r22
    2ede:	6c 01       	movw	r12, r24
    if (Mode & PULL_10MS) Raw *= 10;      /* *10 for 10ms charging pulses */
    2ee0:	55 20       	and	r5, r5
    2ee2:	09 f4       	brne	.+2      	; 0x2ee6 <LargeCap+0x18e>
    2ee4:	7f c0       	rjmp	.+254    	; 0x2fe4 <LargeCap+0x28c>
    2ee6:	aa e0       	ldi	r26, 0x0A	; 10
    2ee8:	b0 e0       	ldi	r27, 0x00	; 0
    2eea:	ac 01       	movw	r20, r24
    2eec:	9b 01       	movw	r18, r22
    2eee:	0e 94 61 2d 	call	0x5ac2	; 0x5ac2 <__muluhisi3>
    2ef2:	5b 01       	movw	r10, r22
    2ef4:	6c 01       	movw	r12, r24

    if (Raw > (UINT32_MAX / 1000))        /* scale down if C >4.3mF */
    2ef6:	88 e3       	ldi	r24, 0x38	; 56
    2ef8:	a8 16       	cp	r10, r24
    2efa:	89 e8       	ldi	r24, 0x89	; 137
    2efc:	b8 06       	cpc	r11, r24
    2efe:	81 e4       	ldi	r24, 0x41	; 65
    2f00:	c8 06       	cpc	r12, r24
    2f02:	d1 04       	cpc	r13, r1
    2f04:	08 f4       	brcc	.+2      	; 0x2f08 <LargeCap+0x1b0>
    2f06:	66 c0       	rjmp	.+204    	; 0x2fd4 <LargeCap+0x27c>
    {
      Raw /= 1000;                        /* scale down by 10^3 */
    2f08:	c6 01       	movw	r24, r12
    2f0a:	b5 01       	movw	r22, r10
    2f0c:	28 ee       	ldi	r18, 0xE8	; 232
    2f0e:	33 e0       	ldi	r19, 0x03	; 3
    2f10:	40 e0       	ldi	r20, 0x00	; 0
    2f12:	50 e0       	ldi	r21, 0x00	; 0
    2f14:	0e 94 04 2d 	call	0x5a08	; 0x5a08 <__udivmodsi4>
    2f18:	59 01       	movw	r10, r18
    2f1a:	6a 01       	movw	r12, r20
    /*
     *  We got a systematic error which needs to be compensated.
     *  The compensation factor can vary with the tester model.
     */

    Value *= 1000;                        /* scale for 0.1% resolution */
    2f1c:	a8 ee       	ldi	r26, 0xE8	; 232
    2f1e:	b3 e0       	ldi	r27, 0x03	; 3
    2f20:	0e 94 61 2d 	call	0x5ac2	; 0x5ac2 <__muluhisi3>
    if (Mode & PULL_10MS) Raw *= 10;      /* *10 for 10ms charging pulses */

    if (Raw > (UINT32_MAX / 1000))        /* scale down if C >4.3mF */
    {
      Raw /= 1000;                        /* scale down by 10^3 */
      Scale += 3;                         /* add 3 to the exponent */
    2f24:	ca ef       	ldi	r28, 0xFA	; 250
     *  We got a systematic error which needs to be compensated.
     *  The compensation factor can vary with the tester model.
     */

    Value *= 1000;                        /* scale for 0.1% resolution */
    if (Mode & PULL_10MS)          /* cap >47ÁF */
    2f26:	55 20       	and	r5, r5
    2f28:	09 f4       	brne	.+2      	; 0x2f2c <LargeCap+0x1d4>
    2f2a:	6c c0       	rjmp	.+216    	; 0x3004 <LargeCap+0x2ac>
    {
      Value /= (1000 - CAP_FACTOR_LARGE);    /* apply factor (in 0.1%) */
    2f2c:	22 e4       	ldi	r18, 0x42	; 66
    2f2e:	34 e0       	ldi	r19, 0x04	; 4
    2f30:	40 e0       	ldi	r20, 0x00	; 0
    2f32:	50 e0       	ldi	r21, 0x00	; 0
    }
    else                           /* cap 4.7-47ÁF */
    {
      Value /= (1000 - CAP_FACTOR_MID);      /* apply factor (in 0.1%) */
    2f34:	0e 94 04 2d 	call	0x5a08	; 0x5a08 <__udivmodsi4>
    }

    /* copy data */
    Cap->A = Probes.ID_2;     /* pull-down probe pin */
    2f38:	80 91 b6 01 	lds	r24, 0x01B6	; 0x8001b6 <Probes+0x1>
    2f3c:	f7 01       	movw	r30, r14
    2f3e:	80 83       	st	Z, r24
    Cap->B = Probes.ID_1;     /* pull-up probe pin */
    2f40:	80 91 b5 01 	lds	r24, 0x01B5	; 0x8001b5 <Probes>
    2f44:	81 83       	std	Z+1, r24	; 0x01
    Cap->Scale = Scale;       /* -9 (nF) or -6 (ÁF) */
    2f46:	c2 83       	std	Z+2, r28	; 0x02
    Cap->Raw = Raw;           /* uncompensated value */
    2f48:	a7 82       	std	Z+7, r10	; 0x07
    2f4a:	b0 86       	std	Z+8, r11	; 0x08
    2f4c:	c1 86       	std	Z+9, r12	; 0x09
    2f4e:	d2 86       	std	Z+10, r13	; 0x0a
    Cap->Value = Value;       /* compensated value */
    2f50:	23 83       	std	Z+3, r18	; 0x03
    2f52:	34 83       	std	Z+4, r19	; 0x04
    2f54:	45 83       	std	Z+5, r20	; 0x05
    2f56:	56 83       	std	Z+6, r21	; 0x06
     *    we get I = C * U_diff / t
     */
    
    while (Value > 800000)    /* rescale if necessary */
    {
      Value /= 10;
    2f58:	9a e0       	ldi	r25, 0x0A	; 10
    2f5a:	a9 2e       	mov	r10, r25
    2f5c:	b1 2c       	mov	r11, r1
    2f5e:	c1 2c       	mov	r12, r1
    2f60:	d1 2c       	mov	r13, r1
     *  Calculate the self-discharge leakage current
     *  - with Q = C * U and I = Q / t
     *    we get I = C * U_diff / t
     */
    
    while (Value > 800000)    /* rescale if necessary */
    2f62:	21 30       	cpi	r18, 0x01	; 1
    2f64:	f5 e3       	ldi	r31, 0x35	; 53
    2f66:	3f 07       	cpc	r19, r31
    2f68:	fc e0       	ldi	r31, 0x0C	; 12
    2f6a:	4f 07       	cpc	r20, r31
    2f6c:	51 05       	cpc	r21, r1
    2f6e:	b0 f4       	brcc	.+44     	; 0x2f9c <LargeCap+0x244>
      Value /= 10;
      Scale++;
    }

    /* I = C * U_diff / t */
    Value *= U_Leak;          /* * U_diff (mV) */
    2f70:	d4 01       	movw	r26, r8
    2f72:	0e 94 61 2d 	call	0x5ac2	; 0x5ac2 <__muluhisi3>
    Value /= 1000;            /* scale to V */
    2f76:	28 ee       	ldi	r18, 0xE8	; 232
    2f78:	33 e0       	ldi	r19, 0x03	; 3
    2f7a:	40 e0       	ldi	r20, 0x00	; 0
    2f7c:	50 e0       	ldi	r21, 0x00	; 0
    2f7e:	0e 94 04 2d 	call	0x5a08	; 0x5a08 <__udivmodsi4>
    if (Mode & PULL_1MS)      /* short pulses */
    2f82:	63 fc       	sbrc	r6, 3
    {
      Scale++;                /* / 0.1s */    
    2f84:	cf 5f       	subi	r28, 0xFF	; 255
    }
    /* long pulses: / 1s */

    while (Value > UINT16_MAX)     /* scale to uint16_t */
    {
      Value /= 10;
    2f86:	8a e0       	ldi	r24, 0x0A	; 10
    2f88:	88 2e       	mov	r8, r24
    2f8a:	91 2c       	mov	r9, r1
    2f8c:	a1 2c       	mov	r10, r1
    2f8e:	b1 2c       	mov	r11, r1
    2f90:	14 c0       	rjmp	.+40     	; 0x2fba <LargeCap+0x262>
    {
      U_Drop = 0;                  /* zero drop */
    }

    /* if voltage drop is too large, consider DUT not to be a cap */
    if (U_Drop > 100) Flag = 0;
    2f92:	71 2c       	mov	r7, r1
    2f94:	82 cf       	rjmp	.-252    	; 0x2e9a <LargeCap+0x142>
    {
      wait1000ms();
    }
    else                      /* < 47ÁF */
    {
      wait100ms();
    2f96:	0e 94 22 2b 	call	0x5644	; 0x5644 <wait100ms>
    2f9a:	89 cf       	rjmp	.-238    	; 0x2eae <LargeCap+0x156>
     *    we get I = C * U_diff / t
     */
    
    while (Value > 800000)    /* rescale if necessary */
    {
      Value /= 10;
    2f9c:	ca 01       	movw	r24, r20
    2f9e:	b9 01       	movw	r22, r18
    2fa0:	a6 01       	movw	r20, r12
    2fa2:	95 01       	movw	r18, r10
    2fa4:	0e 94 04 2d 	call	0x5a08	; 0x5a08 <__udivmodsi4>
    2fa8:	cf 5f       	subi	r28, 0xFF	; 255
    2faa:	db cf       	rjmp	.-74     	; 0x2f62 <LargeCap+0x20a>
    }
    /* long pulses: / 1s */

    while (Value > UINT16_MAX)     /* scale to uint16_t */
    {
      Value /= 10;
    2fac:	ca 01       	movw	r24, r20
    2fae:	b9 01       	movw	r22, r18
    2fb0:	a5 01       	movw	r20, r10
    2fb2:	94 01       	movw	r18, r8
    2fb4:	0e 94 04 2d 	call	0x5a08	; 0x5a08 <__udivmodsi4>
    2fb8:	cf 5f       	subi	r28, 0xFF	; 255
    {
      Scale++;                /* / 0.1s */    
    }
    /* long pulses: / 1s */

    while (Value > UINT16_MAX)     /* scale to uint16_t */
    2fba:	21 15       	cp	r18, r1
    2fbc:	31 05       	cpc	r19, r1
    2fbe:	81 e0       	ldi	r24, 0x01	; 1
    2fc0:	48 07       	cpc	r20, r24
    2fc2:	51 05       	cpc	r21, r1
    2fc4:	98 f7       	brcc	.-26     	; 0x2fac <LargeCap+0x254>
    {
      Value /= 10;
      Scale++;
    }

    Cap->I_leak_Value = (uint16_t)Value;     /* save result */
    2fc6:	f7 01       	movw	r30, r14
    2fc8:	34 87       	std	Z+12, r19	; 0x0c
    2fca:	23 87       	std	Z+11, r18	; 0x0b
    Cap->I_leak_Scale = Scale;
    2fcc:	c5 87       	std	Z+13, r28	; 0x0d
    2fce:	38 cf       	rjmp	.-400    	; 0x2e40 <LargeCap+0xe8>

large_cap:

  /* prepare probes */
  DischargeProbes();                    /* try to discharge probes */
  if (Check.Found == COMP_ERROR) return 0;     /* skip on error */
    2fd0:	71 2c       	mov	r7, r1
    2fd2:	36 cf       	rjmp	.-404    	; 0x2e40 <LargeCap+0xe8>
    /*
     *  We got a systematic error which needs to be compensated.
     *  The compensation factor can vary with the tester model.
     */

    Value *= 1000;                        /* scale for 0.1% resolution */
    2fd4:	a8 ee       	ldi	r26, 0xE8	; 232
    2fd6:	b3 e0       	ldi	r27, 0x03	; 3
    2fd8:	a6 01       	movw	r20, r12
    2fda:	95 01       	movw	r18, r10
    2fdc:	0e 94 61 2d 	call	0x5ac2	; 0x5ac2 <__muluhisi3>
   *  - consider voltage drop by ADC and leakage
   */

  if (Flag == 3)              /* no issues so far */
  {
    Scale = -9;                           /* factor is scaled to nF */
    2fe0:	c7 ef       	ldi	r28, 0xF7	; 247
    2fe2:	a4 cf       	rjmp	.-184    	; 0x2f2c <LargeCap+0x1d4>
    /* get interpolated factor from table */
    Raw = GetFactor(U_Cap + U_Drop, TABLE_LARGE_CAP);
    Raw *= Pulses;                        /* C = pulses * factor */
    if (Mode & PULL_10MS) Raw *= 10;      /* *10 for 10ms charging pulses */

    if (Raw > (UINT32_MAX / 1000))        /* scale down if C >4.3mF */
    2fe4:	f8 e3       	ldi	r31, 0x38	; 56
    2fe6:	af 16       	cp	r10, r31
    2fe8:	f9 e8       	ldi	r31, 0x89	; 137
    2fea:	bf 06       	cpc	r11, r31
    2fec:	f1 e4       	ldi	r31, 0x41	; 65
    2fee:	cf 06       	cpc	r12, r31
    2ff0:	d1 04       	cpc	r13, r1
    2ff2:	08 f0       	brcs	.+2      	; 0x2ff6 <LargeCap+0x29e>
    2ff4:	89 cf       	rjmp	.-238    	; 0x2f08 <LargeCap+0x1b0>
    /*
     *  We got a systematic error which needs to be compensated.
     *  The compensation factor can vary with the tester model.
     */

    Value *= 1000;                        /* scale for 0.1% resolution */
    2ff6:	a8 ee       	ldi	r26, 0xE8	; 232
    2ff8:	b3 e0       	ldi	r27, 0x03	; 3
    2ffa:	a6 01       	movw	r20, r12
    2ffc:	95 01       	movw	r18, r10
    2ffe:	0e 94 61 2d 	call	0x5ac2	; 0x5ac2 <__muluhisi3>
   *  - consider voltage drop by ADC and leakage
   */

  if (Flag == 3)              /* no issues so far */
  {
    Scale = -9;                           /* factor is scaled to nF */
    3002:	c7 ef       	ldi	r28, 0xF7	; 247
    {
      Value /= (1000 - CAP_FACTOR_LARGE);    /* apply factor (in 0.1%) */
    }
    else                           /* cap 4.7-47ÁF */
    {
      Value /= (1000 - CAP_FACTOR_MID);      /* apply factor (in 0.1%) */
    3004:	20 e1       	ldi	r18, 0x10	; 16
    3006:	34 e0       	ldi	r19, 0x04	; 4
    3008:	40 e0       	ldi	r20, 0x00	; 0
    300a:	50 e0       	ldi	r21, 0x00	; 0
    300c:	93 cf       	rjmp	.-218    	; 0x2f34 <LargeCap+0x1dc>
    /* consider zero offset */
    U_temp = (int16_t)U_Cap;       /* explicit type conversion */
    if (U_temp > U_Zero)           /* voltage higher than zero offset */
      U_temp -= U_Zero;                 /* subtract zero offset */
    else                           /* shouldn't happen but you never know */
      U_temp = 0;                       /* assume 0V */
    300e:	d0 e0       	ldi	r29, 0x00	; 0
    3010:	c0 e0       	ldi	r28, 0x00	; 0
    U_Cap = (uint16_t)U_temp;      /* take result */

    /* end loop if charging is too slow */
    if ((Pulses == 126) && (U_Cap < 75)) TempByte = 0;
    3012:	0e 37       	cpi	r16, 0x7E	; 126
    3014:	11 05       	cpc	r17, r1
    3016:	09 f0       	breq	.+2      	; 0x301a <LargeCap+0x2c2>
    3018:	f6 ce       	rjmp	.-532    	; 0x2e06 <LargeCap+0xae>
    301a:	e3 ce       	rjmp	.-570    	; 0x2de2 <LargeCap+0x8a>

0000301c <SmallCap>:
 *  - 1 if capacitance is too high
 *  - 0 on any problem
 */

uint8_t SmallCap(Capacitor_Type *Cap)
{
    301c:	b0 e0       	ldi	r27, 0x00	; 0
    301e:	a0 e0       	ldi	r26, 0x00	; 0
    3020:	e4 e1       	ldi	r30, 0x14	; 20
    3022:	f8 e1       	ldi	r31, 0x18	; 24
    3024:	0c 94 74 2d 	jmp	0x5ae8	; 0x5ae8 <__prologue_saves__+0x10>
    3028:	ec 01       	movw	r28, r24
  /*
   *  init hardware
   */

  /* prepare probes */
  DischargeProbes();                    /* try to discharge probes */
    302a:	0e 94 d4 0e 	call	0x1da8	; 0x1da8 <DischargeProbes>
  if (Check.Found == COMP_ERROR) return 0;     /* skip on error */
    302e:	80 91 01 01 	lds	r24, 0x0101	; 0x800101 <Check>
    3032:	81 30       	cpi	r24, 0x01	; 1
    3034:	09 f4       	brne	.+2      	; 0x3038 <SmallCap+0x1c>
    3036:	3b c1       	rjmp	.+630    	; 0x32ae <SmallCap+0x292>

  /* set probes: Gnd -- all probes / Gnd -- Rh -- probe-1 */
  R_PORT = 0;                           /* set resistor port to low */
    3038:	1b b8       	out	0x0b, r1	; 11
  /* set ADC probe pins to output mode */
  ADC_DDR = (1 << TP1) | (1 << TP2) | (1 << TP3);
    303a:	87 e0       	ldi	r24, 0x07	; 7
    303c:	87 b9       	out	0x07, r24	; 7
  ADC_PORT = 0;                         /* set ADC port to low */
    303e:	18 b8       	out	0x08, r1	; 8
  R_DDR = Probes.Rh_1;                  /* pull-down probe-1 via Rh */
    3040:	80 91 be 01 	lds	r24, 0x01BE	; 0x8001be <Probes+0x9>
    3044:	8a b9       	out	0x0a, r24	; 10

  /* set up analog comparator */
  ADCSRB = (1 << ACME);                 /* use ADC multiplexer as negative input */
    3046:	80 e4       	ldi	r24, 0x40	; 64
    3048:	80 93 7b 00 	sts	0x007B, r24	; 0x80007b <__TEXT_REGION_LENGTH__+0x7f807b>
  ACSR = (1 << ACBG) | (1 << ACIC);     /* use bandgap as positive input, trigger Timer1 */
    304c:	84 e4       	ldi	r24, 0x44	; 68
    304e:	80 bf       	out	0x30, r24	; 48
  ADMUX = ADC_REF_VCC | Probes.Ch_1;    /* switch ADC multiplexer to probe 1 */
    3050:	80 91 c4 01 	lds	r24, 0x01C4	; 0x8001c4 <Probes+0xf>
    3054:	80 64       	ori	r24, 0x40	; 64
    3056:	80 93 7c 00 	sts	0x007C, r24	; 0x80007c <__TEXT_REGION_LENGTH__+0x7f807c>
                                        /* and set AREF to Vcc */
  ADCSRA = ADC_CLOCK_DIV;               /* disable ADC, but keep clock dividers */
    305a:	86 e0       	ldi	r24, 0x06	; 6
    305c:	80 93 7a 00 	sts	0x007A, r24	; 0x80007a <__TEXT_REGION_LENGTH__+0x7f807a>
  wait200us();
    3060:	0e 94 31 2b 	call	0x5662	; 0x5662 <wait200us>

  /* set up timer */
  TCCR1A = 0;                           /* set default mode */
    3064:	10 92 80 00 	sts	0x0080, r1	; 0x800080 <__TEXT_REGION_LENGTH__+0x7f8080>
  TCCR1B = 0;                           /* set more timer modes */
    3068:	10 92 81 00 	sts	0x0081, r1	; 0x800081 <__TEXT_REGION_LENGTH__+0x7f8081>
  /* timer stopped, falling edge detection, noise canceler disabled */
  TCNT1 = 0;                            /* set Counter1 to 0 */
    306c:	10 92 85 00 	sts	0x0085, r1	; 0x800085 <__TEXT_REGION_LENGTH__+0x7f8085>
    3070:	10 92 84 00 	sts	0x0084, r1	; 0x800084 <__TEXT_REGION_LENGTH__+0x7f8084>
  /* clear all flags (input capture, compare A & B, overflow */
  TIFR1 = (1 << ICF1) | (1 << OCF1B) | (1 << OCF1A) | (1 << TOV1);
    3074:	87 e2       	ldi	r24, 0x27	; 39
    3076:	86 bb       	out	0x16, r24	; 22
  R_PORT = Probes.Rh_1;                 /* pull-up probe-1 via Rh */
    3078:	80 91 be 01 	lds	r24, 0x01BE	; 0x8001be <Probes+0x9>
    307c:	8b b9       	out	0x0b, r24	; 11
                                        
  /* enable timer */
  if (Check.Found == COMP_FET)     /* measuring C_GS */  
    307e:	80 91 01 01 	lds	r24, 0x0101	; 0x800101 <Check>
    3082:	8f 31       	cpi	r24, 0x1F	; 31
    3084:	09 f0       	breq	.+2      	; 0x3088 <SmallCap+0x6c>
    3086:	c3 c0       	rjmp	.+390    	; 0x320e <SmallCap+0x1f2>
  {
    /* keep all probe pins pulled down but probe-1 */
    TempByte = ((1 << TP1) | (1 << TP2) | (1 << TP3)) & ~(Probes.Pin_1);
    3088:	80 91 c1 01 	lds	r24, 0x01C1	; 0x8001c1 <Probes+0xc>
    308c:	80 95       	com	r24
    308e:	87 70       	andi	r24, 0x07	; 7
  {
    TempByte = Probes.Pin_2;            /* keep just probe-2 pulled down */
  }

  /* start timer by setting clock prescaler (1/1 clock divider) */
  TCCR1B = (1 << CS10);
    3090:	91 e0       	ldi	r25, 0x01	; 1
    3092:	90 93 81 00 	sts	0x0081, r25	; 0x800081 <__TEXT_REGION_LENGTH__+0x7f8081>
  ADC_DDR = TempByte;                   /* start charging DUT */
    3096:	87 b9       	out	0x07, r24	; 7
   *  Remark:
   *  The analog comparator has an Input Leakage Current of -50nA up to 50nA 
   *  at Vcc/2. The Input Offset is <10mV at Vcc/2.
   */

  Ticks2 = 0;                           /* reset timer overflow counter */
    3098:	f1 2c       	mov	r15, r1
    309a:	e1 2c       	mov	r14, r1
   *  - detect timer overflow
   */

   while (1)
   {
     TempByte = TIFR1;                  /* get Timer1 flags */
    309c:	86 b3       	in	r24, 0x16	; 22

     /* end loop if input capture flag is set (= same voltage) */
     if (TempByte & (1 << ICF1)) break;
    309e:	85 fd       	sbrc	r24, 5
    30a0:	0c c0       	rjmp	.+24     	; 0x30ba <SmallCap+0x9e>

     /* detect timer overflow by checking the overflow flag */
     if (TempByte & (1 << TOV1))
    30a2:	80 ff       	sbrs	r24, 0
    30a4:	fb cf       	rjmp	.-10     	; 0x309c <SmallCap+0x80>
     {
       /* happens at 65.536ms for 1MHz or 8.192ms for 8MHz */
       TIFR1 = (1 << TOV1);             /* reset flag */
    30a6:	96 bb       	out	0x16, r25	; 22
       wdt_reset();                     /* reset watchdog */
    30a8:	a8 95       	wdr
       Ticks2++;                        /* increase overflow counter */
    30aa:	2f ef       	ldi	r18, 0xFF	; 255
    30ac:	e2 1a       	sub	r14, r18
    30ae:	f2 0a       	sbc	r15, r18

       /* end loop if charging takes too long (13.1s) */
       if (Ticks2 == (CPU_FREQ / 5000)) break;
    30b0:	20 e4       	ldi	r18, 0x40	; 64
    30b2:	e2 16       	cp	r14, r18
    30b4:	26 e0       	ldi	r18, 0x06	; 6
    30b6:	f2 06       	cpc	r15, r18
    30b8:	89 f7       	brne	.-30     	; 0x309c <SmallCap+0x80>
     }
   }

  /* stop counter */
  TCCR1B = 0;                           /* stop timer */
    30ba:	10 92 81 00 	sts	0x0081, r1	; 0x800081 <__TEXT_REGION_LENGTH__+0x7f8081>
  TIFR1 = (1 << ICF1);                  /* reset Input Capture flag */
    30be:	90 e2       	ldi	r25, 0x20	; 32
    30c0:	96 bb       	out	0x16, r25	; 22

  Ticks = ICR1;                         /* get counter value */
    30c2:	c0 90 86 00 	lds	r12, 0x0086	; 0x800086 <__TEXT_REGION_LENGTH__+0x7f8086>
    30c6:	d0 90 87 00 	lds	r13, 0x0087	; 0x800087 <__TEXT_REGION_LENGTH__+0x7f8087>

  /* disable charging */
  R_DDR = 0;                  /* set resistor port to HiZ mode */
    30ca:	1a b8       	out	0x0a, r1	; 10

  /* catch missed timer overflow */
  if ((TCNT1 > Ticks) && (TempByte & (1 << TOV1)))
    30cc:	20 91 84 00 	lds	r18, 0x0084	; 0x800084 <__TEXT_REGION_LENGTH__+0x7f8084>
    30d0:	30 91 85 00 	lds	r19, 0x0085	; 0x800085 <__TEXT_REGION_LENGTH__+0x7f8085>
    30d4:	c2 16       	cp	r12, r18
    30d6:	d3 06       	cpc	r13, r19
    30d8:	38 f4       	brcc	.+14     	; 0x30e8 <SmallCap+0xcc>
    30da:	80 ff       	sbrs	r24, 0
    30dc:	05 c0       	rjmp	.+10     	; 0x30e8 <SmallCap+0xcc>
  {
    TIFR1 = (1 << TOV1);                /* reset overflow flag */
    30de:	81 e0       	ldi	r24, 0x01	; 1
    30e0:	86 bb       	out	0x16, r24	; 22
    Ticks2++;                           /* increase overflow counter */
    30e2:	8f ef       	ldi	r24, 0xFF	; 255
    30e4:	e8 1a       	sub	r14, r24
    30e6:	f8 0a       	sbc	r15, r24
  }

  /* enable ADC again */
  ADCSRA = (1 << ADEN) | (1 << ADIF) | ADC_CLOCK_DIV;
    30e8:	86 e9       	ldi	r24, 0x96	; 150
    30ea:	80 93 7a 00 	sts	0x007A, r24	; 0x80007a <__TEXT_REGION_LENGTH__+0x7f807a>
  ADCSRB &= ~(1 << ACME);     /* disable ADC multiplexer as negative input */
    30ee:	80 91 7b 00 	lds	r24, 0x007B	; 0x80007b <__TEXT_REGION_LENGTH__+0x7f807b>
    30f2:	8f 7b       	andi	r24, 0xBF	; 191
    30f4:	80 93 7b 00 	sts	0x007B, r24	; 0x80007b <__TEXT_REGION_LENGTH__+0x7f807b>

  #ifndef HW_ADJUST_CAP
  /* get voltage of DUT */
  U_c = ReadU(Probes.Ch_1);        /* get voltage of cap */
    30f8:	80 91 c4 01 	lds	r24, 0x01C4	; 0x8001c4 <Probes+0xf>
    30fc:	0e 94 61 0d 	call	0x1ac2	; 0x1ac2 <ReadU>
    3100:	5c 01       	movw	r10, r24
  #endif

  /* start discharging DUT */
  R_PORT = 0;                      /* pull down probe-1 via Rh */
    3102:	1b b8       	out	0x0b, r1	; 11
  R_DDR = Probes.Rh_1;             /* enable Rh for probe-1 again */
    3104:	80 91 be 01 	lds	r24, 0x01BE	; 0x8001be <Probes+0x9>
    3108:	8a b9       	out	0x0a, r24	; 10

  /* skip measurement if charging took too long */
  if (Ticks2 >= (CPU_FREQ / 5000)) Flag = 1;
    310a:	81 e0       	ldi	r24, 0x01	; 1
    310c:	20 e4       	ldi	r18, 0x40	; 64
    310e:	e2 16       	cp	r14, r18
    3110:	26 e0       	ldi	r18, 0x06	; 6
    3112:	f2 06       	cpc	r15, r18
    3114:	08 f0       	brcs	.+2      	; 0x3118 <SmallCap+0xfc>
    3116:	76 c0       	rjmp	.+236    	; 0x3204 <SmallCap+0x1e8>
   */

  if (Flag == 3)              /* measurement successful */
  {
    /*  combine both counter values */
    Raw = (uint32_t)Ticks;                /* set lower 16 bits */
    3118:	c6 01       	movw	r24, r12
    311a:	b0 e0       	ldi	r27, 0x00	; 0
    311c:	a0 e0       	ldi	r26, 0x00	; 0
    Raw |= (uint32_t)Ticks2 << 16;        /* set upper 16 bits */
    311e:	67 01       	movw	r12, r14
    3120:	f1 2c       	mov	r15, r1
    3122:	e1 2c       	mov	r14, r1
    3124:	76 01       	movw	r14, r12
    3126:	dd 24       	eor	r13, r13
    3128:	cc 24       	eor	r12, r12
    312a:	c8 2a       	or	r12, r24
    312c:	d9 2a       	or	r13, r25
    312e:	ea 2a       	or	r14, r26
    3130:	fb 2a       	or	r15, r27
    if (Raw > 2) Raw -= 2;                /* subtract processing time overhead */
    3132:	83 e0       	ldi	r24, 0x03	; 3
    3134:	c8 16       	cp	r12, r24
    3136:	d1 04       	cpc	r13, r1
    3138:	e1 04       	cpc	r14, r1
    313a:	f1 04       	cpc	r15, r1
    313c:	08 f4       	brcc	.+2      	; 0x3140 <SmallCap+0x124>
    313e:	6a c0       	rjmp	.+212    	; 0x3214 <SmallCap+0x1f8>
    3140:	22 e0       	ldi	r18, 0x02	; 2
    3142:	c2 1a       	sub	r12, r18
    3144:	d1 08       	sbc	r13, r1
    3146:	e1 08       	sbc	r14, r1
    3148:	f1 08       	sbc	r15, r1

    Scale = -12;                          /* default factor is for pF scale */
    if (Raw > (UINT32_MAX / 1000))        /* prevent overflow (4.3*10^6) */
    314a:	88 e3       	ldi	r24, 0x38	; 56
    314c:	c8 16       	cp	r12, r24
    314e:	89 e8       	ldi	r24, 0x89	; 137
    3150:	d8 06       	cpc	r13, r24
    3152:	81 e4       	ldi	r24, 0x41	; 65
    3154:	e8 06       	cpc	r14, r24
    3156:	f1 04       	cpc	r15, r1
    3158:	08 f4       	brcc	.+2      	; 0x315c <SmallCap+0x140>
    315a:	5c c0       	rjmp	.+184    	; 0x3214 <SmallCap+0x1f8>
    {
      Raw /= 1000;                        /* scale down by 10^3 */
    315c:	c7 01       	movw	r24, r14
    315e:	b6 01       	movw	r22, r12
    3160:	28 ee       	ldi	r18, 0xE8	; 232
    3162:	33 e0       	ldi	r19, 0x03	; 3
    3164:	40 e0       	ldi	r20, 0x00	; 0
    3166:	50 e0       	ldi	r21, 0x00	; 0
    3168:	0e 94 04 2d 	call	0x5a08	; 0x5a08 <__udivmodsi4>
    316c:	69 01       	movw	r12, r18
    316e:	7a 01       	movw	r14, r20
      Scale += 3;                         /* add 3 to the exponent (nF) */
    3170:	17 ef       	ldi	r17, 0xF7	; 247
    }

    /* multiply with factor from table */
    Raw *= GetFactor(Cfg.Bandgap + NV.CompOffset, TABLE_SMALL_CAP);
    3172:	20 91 cf 01 	lds	r18, 0x01CF	; 0x8001cf <NV+0x8>
    3176:	80 91 8c 01 	lds	r24, 0x018C	; 0x80018c <Cfg+0x6>
    317a:	90 91 8d 01 	lds	r25, 0x018D	; 0x80018d <Cfg+0x7>
    317e:	61 e0       	ldi	r22, 0x01	; 1
    3180:	82 0f       	add	r24, r18
    3182:	91 1d       	adc	r25, r1
    3184:	27 fd       	sbrc	r18, 7
    3186:	9a 95       	dec	r25
    3188:	0e 94 9b 0f 	call	0x1f36	; 0x1f36 <GetFactor>
    318c:	dc 01       	movw	r26, r24
    318e:	a7 01       	movw	r20, r14
    3190:	96 01       	movw	r18, r12
    3192:	0e 94 61 2d 	call	0x5ac2	; 0x5ac2 <__muluhisi3>

    /* divide by CPU frequency to get the time and multiply with table scale */
    Raw /= (CPU_FREQ / 10000);
    3196:	20 e2       	ldi	r18, 0x20	; 32
    3198:	33 e0       	ldi	r19, 0x03	; 3
    319a:	40 e0       	ldi	r20, 0x00	; 0
    319c:	50 e0       	ldi	r21, 0x00	; 0
    319e:	0e 94 04 2d 	call	0x5a08	; 0x5a08 <__udivmodsi4>
    31a2:	69 01       	movw	r12, r18
    31a4:	7a 01       	movw	r14, r20
    #endif

    Value = Raw;                          /* take raw value */

    /* take care about zero offset if feasable */
    if (Scale == -12)                     /* pF scale */
    31a6:	14 3f       	cpi	r17, 0xF4	; 244
    31a8:	99 f4       	brne	.+38     	; 0x31d0 <SmallCap+0x1b4>
      if (Value >= NV.CapZero[TempByte])  /* if value is larger than offset */
      {
        Value -= NV.CapZero[TempByte];    /* substract offset */
      }
      #else
      if (Value >= NV.CapZero)            /* if value is larger than offset */
    31aa:	80 91 cd 01 	lds	r24, 0x01CD	; 0x8001cd <NV+0x6>
    31ae:	90 e0       	ldi	r25, 0x00	; 0
    31b0:	b0 e0       	ldi	r27, 0x00	; 0
    31b2:	a0 e0       	ldi	r26, 0x00	; 0
      }
      #endif
      else                                /* if value is smaller than offset */
      {
        /* we have to prevent a negative value */
        Value = 0;                        /* set value to 0 */
    31b4:	c1 2c       	mov	r12, r1
    31b6:	d1 2c       	mov	r13, r1
    31b8:	76 01       	movw	r14, r12
      if (Value >= NV.CapZero[TempByte])  /* if value is larger than offset */
      {
        Value -= NV.CapZero[TempByte];    /* substract offset */
      }
      #else
      if (Value >= NV.CapZero)            /* if value is larger than offset */
    31ba:	28 17       	cp	r18, r24
    31bc:	39 07       	cpc	r19, r25
    31be:	4a 07       	cpc	r20, r26
    31c0:	5b 07       	cpc	r21, r27
    31c2:	30 f0       	brcs	.+12     	; 0x31d0 <SmallCap+0x1b4>
      {
        Value -= NV.CapZero;              /* substract offset */
    31c4:	69 01       	movw	r12, r18
    31c6:	7a 01       	movw	r14, r20
    31c8:	c8 1a       	sub	r12, r24
    31ca:	d9 0a       	sbc	r13, r25
    31cc:	ea 0a       	sbc	r14, r26
    31ce:	fb 0a       	sbc	r15, r27
        Value = 0;                        /* set value to 0 */
      }
    }

    /* copy data */
    Cap->A = Probes.ID_2;     /* pull-down probe pin */
    31d0:	80 91 b6 01 	lds	r24, 0x01B6	; 0x8001b6 <Probes+0x1>
    31d4:	88 83       	st	Y, r24
    Cap->B = Probes.ID_1;     /* pull-up probe pin */
    31d6:	80 91 b5 01 	lds	r24, 0x01B5	; 0x8001b5 <Probes>
    31da:	89 83       	std	Y+1, r24	; 0x01
    Cap->Scale = Scale;       /* -12 or -9 */
    31dc:	1a 83       	std	Y+2, r17	; 0x02
    Cap->Raw = Raw;
    31de:	2f 83       	std	Y+7, r18	; 0x07
    31e0:	38 87       	std	Y+8, r19	; 0x08
    31e2:	49 87       	std	Y+9, r20	; 0x09
    31e4:	5a 87       	std	Y+10, r21	; 0x0a
    Cap->Value = Value;       /* max. 5.1*10^6pF or 125*10^3nF */
    31e6:	cb 82       	std	Y+3, r12	; 0x03
    31e8:	dc 82       	std	Y+4, r13	; 0x04
    31ea:	ed 82       	std	Y+5, r14	; 0x05
    31ec:	fe 82       	std	Y+6, r15	; 0x06
     *  bandgap reference if C is 100nF up to 20ÁF. The minimum of 100nF
     *  should keep the voltage stable long enough for the measurements. 
     *  Changed offsets will be used in the next test run.
     */

    if (((Scale == -12) && (Value >= 100000)) ||
    31ee:	14 3f       	cpi	r17, 0xF4	; 244
    31f0:	99 f4       	brne	.+38     	; 0x3218 <SmallCap+0x1fc>
    31f2:	20 ea       	ldi	r18, 0xA0	; 160
    31f4:	c2 16       	cp	r12, r18
    31f6:	26 e8       	ldi	r18, 0x86	; 134
    31f8:	d2 06       	cpc	r13, r18
    31fa:	21 e0       	ldi	r18, 0x01	; 1
    31fc:	e2 06       	cpc	r14, r18
    31fe:	f1 04       	cpc	r15, r1
    3200:	a0 f4       	brcc	.+40     	; 0x322a <SmallCap+0x20e>
 *  - 0 on any problem
 */

uint8_t SmallCap(Capacitor_Type *Cap)
{
  uint8_t           Flag = 3;      /* return value */
    3202:	83 e0       	ldi	r24, 0x03	; 3
    }
    #endif
  }

  return Flag;
}
    3204:	cd b7       	in	r28, 0x3d	; 61
    3206:	de b7       	in	r29, 0x3e	; 62
    3208:	ea e0       	ldi	r30, 0x0A	; 10
    320a:	0c 94 90 2d 	jmp	0x5b20	; 0x5b20 <__epilogue_restores__+0x10>
    /* keep all probe pins pulled down but probe-1 */
    TempByte = ((1 << TP1) | (1 << TP2) | (1 << TP3)) & ~(Probes.Pin_1);
  }
  else                             /* normal measurement */
  {
    TempByte = Probes.Pin_2;            /* keep just probe-2 pulled down */
    320e:	80 91 c2 01 	lds	r24, 0x01C2	; 0x8001c2 <Probes+0xd>
    3212:	3e cf       	rjmp	.-388    	; 0x3090 <SmallCap+0x74>
    /*  combine both counter values */
    Raw = (uint32_t)Ticks;                /* set lower 16 bits */
    Raw |= (uint32_t)Ticks2 << 16;        /* set upper 16 bits */
    if (Raw > 2) Raw -= 2;                /* subtract processing time overhead */

    Scale = -12;                          /* default factor is for pF scale */
    3214:	14 ef       	ldi	r17, 0xF4	; 244
    3216:	ad cf       	rjmp	.-166    	; 0x3172 <SmallCap+0x156>
     *  bandgap reference if C is 100nF up to 20ÁF. The minimum of 100nF
     *  should keep the voltage stable long enough for the measurements. 
     *  Changed offsets will be used in the next test run.
     */

    if (((Scale == -12) && (Value >= 100000)) ||
    3218:	17 3f       	cpi	r17, 0xF7	; 247
    321a:	99 f7       	brne	.-26     	; 0x3202 <SmallCap+0x1e6>
        ((Scale == -9) && (Value <= 20000)))
    321c:	81 e2       	ldi	r24, 0x21	; 33
    321e:	c8 16       	cp	r12, r24
    3220:	8e e4       	ldi	r24, 0x4E	; 78
    3222:	d8 06       	cpc	r13, r24
    3224:	e1 04       	cpc	r14, r1
    3226:	f1 04       	cpc	r15, r1
    3228:	60 f7       	brcc	.-40     	; 0x3202 <SmallCap+0x1e6>
       *  by measuring a voltage lower than the bandgap reference, one time
       *  with the bandgap as reference and a second time with Vcc as
       *  reference. The common voltage source is the cap we just measured.
       */

       while (ReadU(Probes.Ch_1) > 980)      /* discharge below bandgap ref */ 
    322a:	80 91 c4 01 	lds	r24, 0x01C4	; 0x8001c4 <Probes+0xf>
    322e:	0e 94 61 0d 	call	0x1ac2	; 0x1ac2 <ReadU>
    3232:	85 3d       	cpi	r24, 0xD5	; 213
    3234:	93 40       	sbci	r25, 0x03	; 3
    3236:	c8 f7       	brcc	.-14     	; 0x322a <SmallCap+0x20e>
       {
         /* keep discharging */
       }

       R_DDR = 0;                       /* stop discharging */
    3238:	1a b8       	out	0x0a, r1	; 10

       Cfg.AutoScale = 0;               /* disable auto scaling */
    323a:	10 92 8a 01 	sts	0x018A, r1	; 0x80018a <Cfg+0x4>
       Ticks = ReadU(Probes.Ch_1);      /* U_c with Vcc reference */
    323e:	80 91 c4 01 	lds	r24, 0x01C4	; 0x8001c4 <Probes+0xf>
    3242:	0e 94 61 0d 	call	0x1ac2	; 0x1ac2 <ReadU>
    3246:	ec 01       	movw	r28, r24
       Cfg.AutoScale = 1;               /* enable auto scaling again */
    3248:	81 e0       	ldi	r24, 0x01	; 1
    324a:	80 93 8a 01 	sts	0x018A, r24	; 0x80018a <Cfg+0x4>
       Ticks2 = ReadU(Probes.Ch_1);     /* U_c with bandgap reference */
    324e:	80 91 c4 01 	lds	r24, 0x01C4	; 0x8001c4 <Probes+0xf>
    3252:	0e 94 61 0d 	call	0x1ac2	; 0x1ac2 <ReadU>
    3256:	ac 01       	movw	r20, r24

       R_DDR = Probes.Rh_1;             /* resume discharging */
    3258:	80 91 be 01 	lds	r24, 0x01BE	; 0x8001be <Probes+0x9>
    325c:	8a b9       	out	0x0a, r24	; 10

       Offset = Ticks - Ticks2;         /* difference */
    325e:	de 01       	movw	r26, r28
    3260:	a4 1b       	sub	r26, r20
    3262:	b5 0b       	sbc	r27, r21
       Ticks = Cfg.Bandgap;             /* current U_bandgap incl. offset */
    3264:	c0 91 8c 01 	lds	r28, 0x018C	; 0x80018c <Cfg+0x6>
    3268:	d0 91 8d 01 	lds	r29, 0x018D	; 0x80018d <Cfg+0x7>

       /* allow some difference caused by the different voltage resolutions
          (4.88 vs. 1.07) */
       if ((Offset < -4) || (Offset > 4))    /* difference too large */
    326c:	cd 01       	movw	r24, r26
    326e:	04 96       	adiw	r24, 0x04	; 4
    3270:	09 97       	sbiw	r24, 0x09	; 9
    3272:	88 f0       	brcs	.+34     	; 0x3296 <SmallCap+0x27a>
          *    Offset = factor * U_ref = (Delta / U_c_bandgap) * U_ref
          *           = (Delta * U_ref) / U_c_bandgap
          */

         TempLong = Offset;                  /* delta */
         TempLong *= Ticks;                  /* * U_ref */
    3274:	9e 01       	movw	r18, r28
    3276:	0e 94 5a 2d 	call	0x5ab4	; 0x5ab4 <__usmulhisi3>
         TempLong /= Ticks2;                 /* / U_c_bandgap */
    327a:	9a 01       	movw	r18, r20
    327c:	50 e0       	ldi	r21, 0x00	; 0
    327e:	40 e0       	ldi	r20, 0x00	; 0
    3280:	0e 94 26 2d 	call	0x5a4c	; 0x5a4c <__divmodsi4>

         NV.RefOffset += (int8_t)TempLong;   /* update offset */
    3284:	80 91 ce 01 	lds	r24, 0x01CE	; 0x8001ce <NV+0x7>
    3288:	28 0f       	add	r18, r24
    328a:	20 93 ce 01 	sts	0x01CE, r18	; 0x8001ce <NV+0x7>
         Ticks += (int8_t)Value;             /* update local U_bandgap */
    328e:	cc 0d       	add	r28, r12
    3290:	d1 1d       	adc	r29, r1
    3292:	c7 fc       	sbrc	r12, 7
    3294:	da 95       	dec	r29
       *  MCU used actually U_bandgap + U_offset. We get that offset by
       *  comparing the bandgap reference with the voltage of the cap:
       *  U_c = U_bandgap + U_offset -> U_offset = U_c - U_bandgap
       */

      Offset = U_c - Ticks;
    3296:	85 01       	movw	r16, r10
    3298:	0c 1b       	sub	r16, r28
    329a:	1d 0b       	sbc	r17, r29

      /* limit offset to a valid range of -50mV - 50mV */
      if ((Offset > -50) && (Offset < 50))
    329c:	c8 01       	movw	r24, r16
    329e:	c1 96       	adiw	r24, 0x31	; 49
    32a0:	83 36       	cpi	r24, 0x63	; 99
    32a2:	91 05       	cpc	r25, r1
    32a4:	08 f0       	brcs	.+2      	; 0x32a8 <SmallCap+0x28c>
    32a6:	ad cf       	rjmp	.-166    	; 0x3202 <SmallCap+0x1e6>
      {
        NV.CompOffset = Offset;         /* update offset */
    32a8:	00 93 cf 01 	sts	0x01CF, r16	; 0x8001cf <NV+0x8>
    32ac:	aa cf       	rjmp	.-172    	; 0x3202 <SmallCap+0x1e6>
   *  init hardware
   */

  /* prepare probes */
  DischargeProbes();                    /* try to discharge probes */
  if (Check.Found == COMP_ERROR) return 0;     /* skip on error */
    32ae:	80 e0       	ldi	r24, 0x00	; 0
    32b0:	a9 cf       	rjmp	.-174    	; 0x3204 <SmallCap+0x1e8>

000032b2 <MeasureCap>:
 *  - Probe2: ID of probe to be pulled down [0-2]
 *  - ID: capacitor ID [0-2]
 */

void MeasureCap(uint8_t Probe1, uint8_t Probe2, uint8_t ID)
{
    32b2:	b0 e0       	ldi	r27, 0x00	; 0
    32b4:	a0 e0       	ldi	r26, 0x00	; 0
    32b6:	ef e5       	ldi	r30, 0x5F	; 95
    32b8:	f9 e1       	ldi	r31, 0x19	; 25
    32ba:	0c 94 73 2d 	jmp	0x5ae6	; 0x5ae6 <__prologue_saves__+0xe>
   *  init
   */

  /* reset cap data */
  Cap = &Caps[ID];            /* get pointer */
  Cap->A = 0;
    32be:	c4 2e       	mov	r12, r20
    32c0:	d1 2c       	mov	r13, r1
    32c2:	2e e0       	ldi	r18, 0x0E	; 14
    32c4:	42 9f       	mul	r20, r18
    32c6:	f0 01       	movw	r30, r0
    32c8:	11 24       	eor	r1, r1
    32ca:	e8 5c       	subi	r30, 0xC8	; 200
    32cc:	fe 4f       	sbci	r31, 0xFE	; 254
    32ce:	10 82       	st	Z, r1
  Cap->B = 0;
    32d0:	11 82       	std	Z+1, r1	; 0x01
  Cap->Scale = -12;           /* pF by default */
    32d2:	94 ef       	ldi	r25, 0xF4	; 244
    32d4:	92 83       	std	Z+2, r25	; 0x02
  Cap->Raw = 0;
    32d6:	17 82       	std	Z+7, r1	; 0x07
    32d8:	10 86       	std	Z+8, r1	; 0x08
    32da:	11 86       	std	Z+9, r1	; 0x09
    32dc:	12 86       	std	Z+10, r1	; 0x0a
  Cap->Value = 0;
    32de:	13 82       	std	Z+3, r1	; 0x03
    32e0:	14 82       	std	Z+4, r1	; 0x04
    32e2:	15 82       	std	Z+5, r1	; 0x05
    32e4:	16 82       	std	Z+6, r1	; 0x06
  Cap->I_leak_Value = 0;
    32e6:	14 86       	std	Z+12, r1	; 0x0c
    32e8:	13 86       	std	Z+11, r1	; 0x0b
  #ifdef SW_C_VLOSS
  Cap->U_loss = 0;
  #endif

  if (Check.Found == COMP_ERROR) return;    /* skip check on any error */
    32ea:	90 91 01 01 	lds	r25, 0x0101	; 0x800101 <Check>
    32ee:	91 30       	cpi	r25, 0x01	; 1
    32f0:	09 f4       	brne	.+2      	; 0x32f4 <MeasureCap+0x42>
    32f2:	63 c0       	rjmp	.+198    	; 0x33ba <MeasureCap+0x108>
    32f4:	c4 2f       	mov	r28, r20
    32f6:	96 2e       	mov	r9, r22
    32f8:	f8 2e       	mov	r15, r24
  /*
   *  Normaly we would skip resistors, but a resistor < 10 Ohms could be
   *  also a large cap.
   */

  if (Check.Found == COMP_RESISTOR)
    32fa:	9a 30       	cpi	r25, 0x0A	; 10
    32fc:	09 f4       	brne	.+2      	; 0x3300 <MeasureCap+0x4e>
    32fe:	62 c0       	rjmp	.+196    	; 0x33c4 <MeasureCap+0x112>
  /*
   *  Skip measurement for "dangerous" diodes
   *  - when Vf collides with the voltage of the capacitance measurement
   */

  Diode = SearchDiode(Probe1, Probe2);  /* search for matching diode */
    3300:	69 2d       	mov	r22, r9
    3302:	8f 2d       	mov	r24, r15
    3304:	0e 94 9a 1a 	call	0x3534	; 0x3534 <SearchDiode>
  if (Diode != NULL)                    /* got it */
    3308:	00 97       	sbiw	r24, 0x00	; 0
    330a:	09 f0       	breq	.+2      	; 0x330e <MeasureCap+0x5c>
    330c:	61 c0       	rjmp	.+194    	; 0x33d0 <MeasureCap+0x11e>
  /*
   *  init
   */

  /* reset cap data */
  Cap = &Caps[ID];            /* get pointer */
    330e:	2e e0       	ldi	r18, 0x0E	; 14
    3310:	c2 9f       	mul	r28, r18
    3312:	e0 01       	movw	r28, r0
    3314:	11 24       	eor	r1, r1
    3316:	c8 5c       	subi	r28, 0xC8	; 200
    3318:	de 4f       	sbci	r29, 0xFE	; 254

  /*
   *  run measurements
   */

  UpdateProbes2(Probe1, Probe2);        /* update probes */
    331a:	69 2d       	mov	r22, r9
    331c:	8f 2d       	mov	r24, r15
    331e:	0e 94 31 0e 	call	0x1c62	; 0x1c62 <UpdateProbes2>

  /* first run measurement for large caps */ 
  TempByte = LargeCap(Cap);
    3322:	ce 01       	movw	r24, r28
    3324:	0e 94 ac 16 	call	0x2d58	; 0x2d58 <LargeCap>

  /* if cap is too small run measurement for small caps */
  if (TempByte == 2)
    3328:	82 30       	cpi	r24, 0x02	; 2
    332a:	19 f4       	brne	.+6      	; 0x3332 <MeasureCap+0x80>
  {
    TempByte = SmallCap(Cap);
    332c:	ce 01       	movw	r24, r28
    332e:	0e 94 0e 18 	call	0x301c	; 0x301c <SmallCap>
   *  check for plausibility
   *  - skip diodes which could be detected as capacitors
   *  - skip any transistor
   */

  if (Check.Found < COMP_DIODE)
    3332:	90 91 01 01 	lds	r25, 0x0101	; 0x800101 <Check>
    3336:	94 31       	cpi	r25, 0x14	; 20
    3338:	88 f4       	brcc	.+34     	; 0x335c <MeasureCap+0xaa>
    333a:	8e e0       	ldi	r24, 0x0E	; 14
    333c:	8c 9d       	mul	r24, r12
    333e:	f0 01       	movw	r30, r0
    3340:	8d 9d       	mul	r24, r13
    3342:	f0 0d       	add	r31, r0
    3344:	11 24       	eor	r1, r1
    3346:	e8 5c       	subi	r30, 0xC8	; 200
    3348:	fe 4f       	sbci	r31, 0xFE	; 254
    334a:	82 81       	ldd	r24, Z+2	; 0x02
  {
    /* low resistance might be a large cap */
    if (Check.Found == COMP_RESISTOR)
    334c:	9a 30       	cpi	r25, 0x0A	; 10
    334e:	09 f0       	breq	.+2      	; 0x3352 <MeasureCap+0xa0>
    3350:	47 c0       	rjmp	.+142    	; 0x33e0 <MeasureCap+0x12e>
    {
      /* report capacitor only for a large C (> 4.3ÁF) */
      if (Cap->Scale >= -6) Check.Found = COMP_CAPACITOR;
    3352:	8a 3f       	cpi	r24, 0xFA	; 250
    3354:	1c f0       	brlt	.+6      	; 0x335c <MeasureCap+0xaa>
    3356:	8b e0       	ldi	r24, 0x0B	; 11
    3358:	80 93 01 01 	sts	0x0101, r24	; 0x800101 <Check>

  /*
   *  clean up
   */

  DischargeProbes();               /* discharge DUT */
    335c:	0e 94 d4 0e 	call	0x1da8	; 0x1da8 <DischargeProbes>

  /* reset all ports and pins */
  ADC_DDR = 0;                     /* set ADC port to input */
    3360:	17 b8       	out	0x07, r1	; 7
  ADC_PORT = 0;                    /* set ADC port low */
    3362:	18 b8       	out	0x08, r1	; 8
  R_DDR = 0;                       /* set resistor port to input */
    3364:	1a b8       	out	0x0a, r1	; 10
  R_PORT = 0;                      /* set resistor port low */
    3366:	1b b8       	out	0x0b, r1	; 11
    3368:	28 c0       	rjmp	.+80     	; 0x33ba <MeasureCap+0x108>
    TempByte = 0;

    while (TempByte < Check.Resistors)       /* loop through all resistors */
    {
      /* got matching pins */
      if (((Resistor->A == Probe1) && (Resistor->B == Probe2)) ||
    336a:	f5 01       	movw	r30, r10
    336c:	80 81       	ld	r24, Z
    336e:	8f 11       	cpse	r24, r15
    3370:	14 c0       	rjmp	.+40     	; 0x339a <MeasureCap+0xe8>
    3372:	81 81       	ldd	r24, Z+1	; 0x01
    3374:	89 11       	cpse	r24, r9
    3376:	16 c0       	rjmp	.+44     	; 0x33a4 <MeasureCap+0xf2>
          ((Resistor->A == Probe2) && (Resistor->B == Probe1)))
      {
        /* check for low value < 10 Ohms */
        if (CmpValue(Resistor->Value, Resistor->Scale, 10UL, 0) == -1)
    3378:	f5 01       	movw	r30, r10
    337a:	63 81       	ldd	r22, Z+3	; 0x03
    337c:	74 81       	ldd	r23, Z+4	; 0x04
    337e:	85 81       	ldd	r24, Z+5	; 0x05
    3380:	96 81       	ldd	r25, Z+6	; 0x06
    3382:	e1 2c       	mov	r14, r1
    3384:	0a e0       	ldi	r16, 0x0A	; 10
    3386:	10 e0       	ldi	r17, 0x00	; 0
    3388:	20 e0       	ldi	r18, 0x00	; 0
    338a:	30 e0       	ldi	r19, 0x00	; 0
    338c:	42 81       	ldd	r20, Z+2	; 0x02
    338e:	0e 94 a6 06 	call	0xd4c	; 0xd4c <CmpValue>
    3392:	8f 3f       	cpi	r24, 0xFF	; 255
    3394:	39 f4       	brne	.+14     	; 0x33a4 <MeasureCap+0xf2>
          TempByte = 99;                /* signal low resistance and end loop */
    3396:	d3 e6       	ldi	r29, 0x63	; 99
    3398:	05 c0       	rjmp	.+10     	; 0x33a4 <MeasureCap+0xf2>
    TempByte = 0;

    while (TempByte < Check.Resistors)       /* loop through all resistors */
    {
      /* got matching pins */
      if (((Resistor->A == Probe1) && (Resistor->B == Probe2)) ||
    339a:	89 11       	cpse	r24, r9
    339c:	03 c0       	rjmp	.+6      	; 0x33a4 <MeasureCap+0xf2>
          ((Resistor->A == Probe2) && (Resistor->B == Probe1)))
    339e:	81 81       	ldd	r24, Z+1	; 0x01
    33a0:	8f 15       	cp	r24, r15
    33a2:	51 f3       	breq	.-44     	; 0x3378 <MeasureCap+0xc6>
        /* check for low value < 10 Ohms */
        if (CmpValue(Resistor->Value, Resistor->Scale, 10UL, 0) == -1)
          TempByte = 99;                /* signal low resistance and end loop */
      }

      TempByte++;      /* next one */
    33a4:	df 5f       	subi	r29, 0xFF	; 255
      Resistor++;      /* next one */  
    33a6:	f7 e0       	ldi	r31, 0x07	; 7
    33a8:	af 0e       	add	r10, r31
    33aa:	b1 1c       	adc	r11, r1
  if (Check.Found == COMP_RESISTOR)
  {
    Resistor = &Resistors[0];         /* pointer to first resistor */
    TempByte = 0;

    while (TempByte < Check.Resistors)       /* loop through all resistors */
    33ac:	80 91 05 01 	lds	r24, 0x0105	; 0x800105 <Check+0x4>
    33b0:	d8 17       	cp	r29, r24
    33b2:	d8 f2       	brcs	.-74     	; 0x336a <MeasureCap+0xb8>
      TempByte++;      /* next one */
      Resistor++;      /* next one */  
    }

    /* we got a valid resistor */ 
    if (TempByte != 100) return;        /* skip this one */
    33b4:	d4 36       	cpi	r29, 0x64	; 100
    33b6:	09 f4       	brne	.+2      	; 0x33ba <MeasureCap+0x108>
    33b8:	a3 cf       	rjmp	.-186    	; 0x3300 <MeasureCap+0x4e>
  /* reset all ports and pins */
  ADC_DDR = 0;                     /* set ADC port to input */
  ADC_PORT = 0;                    /* set ADC port low */
  R_DDR = 0;                       /* set resistor port to input */
  R_PORT = 0;                      /* set resistor port low */
}
    33ba:	cd b7       	in	r28, 0x3d	; 61
    33bc:	de b7       	in	r29, 0x3e	; 62
    33be:	eb e0       	ldi	r30, 0x0B	; 11
    33c0:	0c 94 8f 2d 	jmp	0x5b1e	; 0x5b1e <__epilogue_restores__+0xe>
   *  also a large cap.
   */

  if (Check.Found == COMP_RESISTOR)
  {
    Resistor = &Resistors[0];         /* pointer to first resistor */
    33c4:	8a e0       	ldi	r24, 0x0A	; 10
    33c6:	a8 2e       	mov	r10, r24
    33c8:	81 e0       	ldi	r24, 0x01	; 1
    33ca:	b8 2e       	mov	r11, r24
    TempByte = 0;
    33cc:	d0 e0       	ldi	r29, 0x00	; 0
    33ce:	ee cf       	rjmp	.-36     	; 0x33ac <MeasureCap+0xfa>
   */

  Diode = SearchDiode(Probe1, Probe2);  /* search for matching diode */
  if (Diode != NULL)                    /* got it */
  {
    if (Diode->V_f < 1500)              /* Vf too low */
    33d0:	fc 01       	movw	r30, r24
    33d2:	82 81       	ldd	r24, Z+2	; 0x02
    33d4:	93 81       	ldd	r25, Z+3	; 0x03
    33d6:	8c 3d       	cpi	r24, 0xDC	; 220
    33d8:	95 40       	sbci	r25, 0x05	; 5
    33da:	08 f0       	brcs	.+2      	; 0x33de <MeasureCap+0x12c>
    33dc:	98 cf       	rjmp	.-208    	; 0x330e <MeasureCap+0x5c>
    33de:	ed cf       	rjmp	.-38     	; 0x33ba <MeasureCap+0x108>
      /* report capacitor only for a large C (> 4.3ÁF) */
      if (Cap->Scale >= -6) Check.Found = COMP_CAPACITOR;
    }

    /* we consider values below 5pF being just ghosts */
    else if ((Cap->Scale > -12) || (Cap->Value >= 5UL))
    33e0:	85 3f       	cpi	r24, 0xF5	; 245
    33e2:	0c f0       	brlt	.+2      	; 0x33e6 <MeasureCap+0x134>
    33e4:	b8 cf       	rjmp	.-144    	; 0x3356 <MeasureCap+0xa4>
    33e6:	83 81       	ldd	r24, Z+3	; 0x03
    33e8:	94 81       	ldd	r25, Z+4	; 0x04
    33ea:	a5 81       	ldd	r26, Z+5	; 0x05
    33ec:	b6 81       	ldd	r27, Z+6	; 0x06
    33ee:	05 97       	sbiw	r24, 0x05	; 5
    33f0:	a1 05       	cpc	r26, r1
    33f2:	b1 05       	cpc	r27, r1
    33f4:	08 f0       	brcs	.+2      	; 0x33f8 <MeasureCap+0x146>
    33f6:	af cf       	rjmp	.-162    	; 0x3356 <MeasureCap+0xa4>
    33f8:	b1 cf       	rjmp	.-158    	; 0x335c <MeasureCap+0xaa>

000033fa <SemiPinDesignators>:

  /*
   *  set pin designators based on semiconductor type
   */

  switch (Check.Found)
    33fa:	e0 91 01 01 	lds	r30, 0x0101	; 0x800101 <Check>
    33fe:	ee 51       	subi	r30, 0x1E	; 30

void SemiPinDesignators(void)
{
  uint8_t           A = 0;         /* designator for pin A */
  uint8_t           B = 0;         /* designator for pin B */
  uint8_t           C = 0;         /* designator for pin C */
    3400:	80 e0       	ldi	r24, 0x00	; 0
 */

void SemiPinDesignators(void)
{
  uint8_t           A = 0;         /* designator for pin A */
  uint8_t           B = 0;         /* designator for pin B */
    3402:	90 e0       	ldi	r25, 0x00	; 0
 *    each semiconductor check function
 */

void SemiPinDesignators(void)
{
  uint8_t           A = 0;         /* designator for pin A */
    3404:	20 e0       	ldi	r18, 0x00	; 0

  /*
   *  set pin designators based on semiconductor type
   */

  switch (Check.Found)
    3406:	e7 30       	cpi	r30, 0x07	; 7
    3408:	78 f4       	brcc	.+30     	; 0x3428 <SemiPinDesignators+0x2e>
    340a:	f0 e0       	ldi	r31, 0x00	; 0
    340c:	e6 5f       	subi	r30, 0xF6	; 246
    340e:	f5 4e       	sbci	r31, 0xE5	; 229
    3410:	0c 94 45 2d 	jmp	0x5a8a	; 0x5a8a <__tablejump2__>
    3414:	11 1a       	sub	r1, r17
    3416:	1b 1a       	sub	r1, r27
    3418:	23 1a       	sub	r2, r19
    341a:	29 1a       	sub	r2, r25
    341c:	26 1a       	sub	r2, r22
    341e:	26 1a       	sub	r2, r22
    3420:	2c 1a       	sub	r2, r28
  {
    case COMP_BJT:            /* BJT */
      A = 'B';                /* base */
      B = 'C';                /* collector */
      C = 'E';                /* emitter */
    3422:	85 e4       	ldi	r24, 0x45	; 69

  switch (Check.Found)
  {
    case COMP_BJT:            /* BJT */
      A = 'B';                /* base */
      B = 'C';                /* collector */
    3424:	93 e4       	ldi	r25, 0x43	; 67
   */

  switch (Check.Found)
  {
    case COMP_BJT:            /* BJT */
      A = 'B';                /* base */
    3426:	22 e4       	ldi	r18, 0x42	; 66
      break;
    #endif
  }

  /* update pin designators */
  Semi.DesA = A;              /* designator for pin A */
    3428:	20 93 9d 01 	sts	0x019D, r18	; 0x80019d <Semi+0x3>
  Semi.DesB = B;              /* designator for pin B */
    342c:	90 93 9e 01 	sts	0x019E, r25	; 0x80019e <Semi+0x4>
  Semi.DesC = C;              /* designator for pin C */
    3430:	80 93 9f 01 	sts	0x019F, r24	; 0x80019f <Semi+0x5>
}
    3434:	08 95       	ret
      C = 'E';                /* emitter */
      break;

    case COMP_FET:            /* FET */
      A = 'G';                /* gate */
      if (Check.Type & TYPE_SYMMETRICAL)     /* symmetrical */
    3436:	80 91 02 01 	lds	r24, 0x0102	; 0x800102 <Check+0x1>
    343a:	86 fd       	sbrc	r24, 6
    343c:	11 c0       	rjmp	.+34     	; 0x3460 <SemiPinDesignators+0x66>
        C = 'x';              /* source */
      }
      else                                   /* normal */
      {
        B = 'D';              /* drain */
        C = 'S';              /* source */
    343e:	83 e5       	ldi	r24, 0x53	; 83
        B = 'x';              /* drain */
        C = 'x';              /* source */
      }
      else                                   /* normal */
      {
        B = 'D';              /* drain */
    3440:	94 e4       	ldi	r25, 0x44	; 68
      B = 'C';                /* collector */
      C = 'E';                /* emitter */
      break;

    case COMP_FET:            /* FET */
      A = 'G';                /* gate */
    3442:	27 e4       	ldi	r18, 0x47	; 71
    3444:	f1 cf       	rjmp	.-30     	; 0x3428 <SemiPinDesignators+0x2e>
      break;

    case COMP_IGBT:           /* IGBT */
      A = 'G';                /* gate */
      B = 'C';                /* collector */
      C = 'E';                /* emitter */
    3446:	85 e4       	ldi	r24, 0x45	; 69
      }
      break;

    case COMP_IGBT:           /* IGBT */
      A = 'G';                /* gate */
      B = 'C';                /* collector */
    3448:	93 e4       	ldi	r25, 0x43	; 67
    344a:	fb cf       	rjmp	.-10     	; 0x3442 <SemiPinDesignators+0x48>

    case COMP_THYRISTOR:      /* Thyristor / SCR */
    case COMP_PUT:            /* PUT */
      A = 'G';                /* gate */
      B = 'A';                /* anode */
      C = 'C';                /* cathode */
    344c:	83 e4       	ldi	r24, 0x43	; 67
      break;

    case COMP_THYRISTOR:      /* Thyristor / SCR */
    case COMP_PUT:            /* PUT */
      A = 'G';                /* gate */
      B = 'A';                /* anode */
    344e:	91 e4       	ldi	r25, 0x41	; 65
    3450:	f8 cf       	rjmp	.-16     	; 0x3442 <SemiPinDesignators+0x48>
      break;

    case COMP_TRIAC:          /* TRIAC */
      A = 'G';                /* gate */
      B = '2';                /* MT2 */
      C = '1';                /* MT1 */
    3452:	81 e3       	ldi	r24, 0x31	; 49
      C = 'C';                /* cathode */
      break;

    case COMP_TRIAC:          /* TRIAC */
      A = 'G';                /* gate */
      B = '2';                /* MT2 */
    3454:	92 e3       	ldi	r25, 0x32	; 50
    3456:	f5 cf       	rjmp	.-22     	; 0x3442 <SemiPinDesignators+0x48>

    #ifdef SW_UJT
    case COMP_UJT:            /* UJT */
      A = 'E';                /* emitter */
      B = '2';                /* B2 */
      C = '1';                /* B1 */
    3458:	81 e3       	ldi	r24, 0x31	; 49
      break;

    #ifdef SW_UJT
    case COMP_UJT:            /* UJT */
      A = 'E';                /* emitter */
      B = '2';                /* B2 */
    345a:	92 e3       	ldi	r25, 0x32	; 50
      C = '1';                /* MT1 */
      break;

    #ifdef SW_UJT
    case COMP_UJT:            /* UJT */
      A = 'E';                /* emitter */
    345c:	25 e4       	ldi	r18, 0x45	; 69
      B = '2';                /* B2 */
      C = '1';                /* B1 */
      break;
    345e:	e4 cf       	rjmp	.-56     	; 0x3428 <SemiPinDesignators+0x2e>
    case COMP_FET:            /* FET */
      A = 'G';                /* gate */
      if (Check.Type & TYPE_SYMMETRICAL)     /* symmetrical */
      {
        B = 'x';              /* drain */
        C = 'x';              /* source */
    3460:	88 e7       	ldi	r24, 0x78	; 120

    case COMP_FET:            /* FET */
      A = 'G';                /* gate */
      if (Check.Type & TYPE_SYMMETRICAL)     /* symmetrical */
      {
        B = 'x';              /* drain */
    3462:	98 e7       	ldi	r25, 0x78	; 120
    3464:	ee cf       	rjmp	.-36     	; 0x3442 <SemiPinDesignators+0x48>

00003466 <GetLeakageCurrent>:
 *    0 = normal
 *    1 = high current
 */

void GetLeakageCurrent(uint8_t Mode)
{
    3466:	cf 92       	push	r12
    3468:	df 92       	push	r13
    346a:	ef 92       	push	r14
    346c:	ff 92       	push	r15
    346e:	cf 93       	push	r28
    3470:	c8 2f       	mov	r28, r24
   *    NPN BJT:  probe-1 = collector / probe-2 = emitter
   *    PNP BJT:  probe-1 = emitter / probe-2 = collector
   *  - set probes: Gnd -- Rl -- probe-2 / probe-1 -- Vcc
   */

  R_PORT = 0;                      /* set resistor port to Gnd */
    3472:	1b b8       	out	0x0b, r1	; 11
  R_DDR = Probes.Rl_2;             /* pull down probe-2 via Rl */
    3474:	80 91 bc 01 	lds	r24, 0x01BC	; 0x8001bc <Probes+0x7>
    3478:	8a b9       	out	0x0a, r24	; 10
  ADC_DDR = Probes.Pin_1;          /* set probe-1 to output */
    347a:	80 91 c1 01 	lds	r24, 0x01C1	; 0x8001c1 <Probes+0xc>
    347e:	87 b9       	out	0x07, r24	; 7
  ADC_PORT = Probes.Pin_1;         /* pull-up probe-1 directly */
    3480:	88 b9       	out	0x08, r24	; 8
  U_Rl = ReadU_5ms(Probes.Ch_2);   /* get voltage at Rl */
    3482:	80 91 c5 01 	lds	r24, 0x01C5	; 0x8001c5 <Probes+0x10>
    3486:	0e 94 c1 0d 	call	0x1b82	; 0x1b82 <ReadU_5ms>

  if (U_Rl > 3)          /* > 5ÁA */
    348a:	84 30       	cpi	r24, 0x04	; 4
    348c:	91 05       	cpc	r25, r1
    348e:	f0 f1       	brcs	.+124    	; 0x350c <GetLeakageCurrent+0xa6>
  {
    /* consider internal resistance of MCU */
    R_Shunt = (uint32_t)NV.RiL;         /* in 0.1 Ohms */
    3490:	c0 90 c7 01 	lds	r12, 0x01C7	; 0x8001c7 <NV>
    3494:	d0 90 c8 01 	lds	r13, 0x01C8	; 0x8001c8 <NV+0x1>
    3498:	f1 2c       	mov	r15, r1
    349a:	e1 2c       	mov	r14, r1
    Scale = -7;                         /* 100n */
    Value = 100000;                     /* scale voltage to 10 nV */

    if ((U_Rl > 1400) && (Mode == 1))   /* > 2mA */
    349c:	89 37       	cpi	r24, 0x79	; 121
    349e:	25 e0       	ldi	r18, 0x05	; 5
    34a0:	92 07       	cpc	r25, r18
    34a2:	68 f1       	brcs	.+90     	; 0x34fe <GetLeakageCurrent+0x98>
    34a4:	c1 30       	cpi	r28, 0x01	; 1
    34a6:	59 f5       	brne	.+86     	; 0x34fe <GetLeakageCurrent+0x98>
       *  - with 1mV ADC resolution we get down to 50ÁA
       *  - max. current is 5V/40Ohms = 125mA
       *  - set probes: Gnd -- probe-2 / probe-1 -- Vcc
       */

      R_DDR = 0;                        /* disable resistors */
    34a8:	1a b8       	out	0x0a, r1	; 10
      /* pull down probe-2 directly */
      ADC_DDR = Probes.Pin_1 | Probes.Pin_2;
    34aa:	80 91 c1 01 	lds	r24, 0x01C1	; 0x8001c1 <Probes+0xc>
    34ae:	90 91 c2 01 	lds	r25, 0x01C2	; 0x8001c2 <Probes+0xd>
    34b2:	89 2b       	or	r24, r25
    34b4:	87 b9       	out	0x07, r24	; 7
      U_Rl = ReadU(Probes.Ch_2);        /* get voltage at RiL */
    34b6:	80 91 c5 01 	lds	r24, 0x01C5	; 0x8001c5 <Probes+0x10>
    34ba:	0e 94 61 0d 	call	0x1ac2	; 0x1ac2 <ReadU>
  if (U_Rl > 3)          /* > 5ÁA */
  {
    /* consider internal resistance of MCU */
    R_Shunt = (uint32_t)NV.RiL;         /* in 0.1 Ohms */
    Scale = -7;                         /* 100n */
    Value = 100000;                     /* scale voltage to 10 nV */
    34be:	20 ea       	ldi	r18, 0xA0	; 160
    34c0:	36 e8       	ldi	r19, 0x86	; 134
    34c2:	41 e0       	ldi	r20, 0x01	; 1
    34c4:	50 e0       	ldi	r21, 0x00	; 0

  if (U_Rl > 3)          /* > 5ÁA */
  {
    /* consider internal resistance of MCU */
    R_Shunt = (uint32_t)NV.RiL;         /* in 0.1 Ohms */
    Scale = -7;                         /* 100n */
    34c6:	c9 ef       	ldi	r28, 0xF9	; 249
    Scale = -9;                         /* 1n */
    Value = 1000000;                    /* scale voltage to 1 nV */
  }

  /* clean up */
  ADC_DDR = 0;           /* set ADC port to HiZ mode */
    34c8:	17 b8       	out	0x07, r1	; 7
  ADC_PORT = 0;          /* set ADC port low */
    34ca:	18 b8       	out	0x08, r1	; 8
  R_DDR = 0;             /* set resistor port to HiZ mode */
    34cc:	1a b8       	out	0x0a, r1	; 10
  R_PORT = 0;            /* set resistor port low */
    34ce:	1b b8       	out	0x0b, r1	; 11

  /* calculate current */
  Value *= U_Rl;                   /* scale voltage */
    34d0:	dc 01       	movw	r26, r24
    34d2:	0e 94 61 2d 	call	0x5ac2	; 0x5ac2 <__muluhisi3>
  Value /= R_Shunt;                /* I = U/R */
    34d6:	a7 01       	movw	r20, r14
    34d8:	96 01       	movw	r18, r12
    34da:	0e 94 04 2d 	call	0x5a08	; 0x5a08 <__udivmodsi4>

  /* save result */
  Semi.I_value = Value;
    34de:	20 93 ab 01 	sts	0x01AB, r18	; 0x8001ab <Semi+0x11>
    34e2:	30 93 ac 01 	sts	0x01AC, r19	; 0x8001ac <Semi+0x12>
    34e6:	40 93 ad 01 	sts	0x01AD, r20	; 0x8001ad <Semi+0x13>
    34ea:	50 93 ae 01 	sts	0x01AE, r21	; 0x8001ae <Semi+0x14>
  Semi.I_scale = Scale;
    34ee:	c0 93 af 01 	sts	0x01AF, r28	; 0x8001af <Semi+0x15>
}
    34f2:	cf 91       	pop	r28
    34f4:	ff 90       	pop	r15
    34f6:	ef 90       	pop	r14
    34f8:	df 90       	pop	r13
    34fa:	cf 90       	pop	r12
    34fc:	08 95       	ret
       *  - with 1mV ADC resolution we get down to 1.4ÁA
       *  - max. current is 5V/720Ohms = 7mA
       */

      /* add Rl */
      R_Shunt += (R_LOW * 10);          /* in 0.1 Ohms */
    34fe:	20 e9       	ldi	r18, 0x90	; 144
    3500:	c2 0e       	add	r12, r18
    3502:	2a e1       	ldi	r18, 0x1A	; 26
    3504:	d2 1e       	adc	r13, r18
    3506:	e1 1c       	adc	r14, r1
    3508:	f1 1c       	adc	r15, r1
    350a:	d9 cf       	rjmp	.-78     	; 0x34be <GetLeakageCurrent+0x58>
     *  - with 1mV ADC resolution we get down to 2nA
     *  - max. current is 5V/470kOhms = 10ÁA
     *  - set probes: Gnd -- Rh -- probe-2 / probe-1 -- Vcc
     */

    R_DDR = Probes.Rh_2;                /* pull down probe-2 via Rh */
    350c:	80 91 bf 01 	lds	r24, 0x01BF	; 0x8001bf <Probes+0xa>
    3510:	8a b9       	out	0x0a, r24	; 10
    U_Rl = ReadU_5ms(Probes.Ch_2);      /* get voltage at Rh */
    3512:	80 91 c5 01 	lds	r24, 0x01C5	; 0x8001c5 <Probes+0x10>
    3516:	0e 94 c1 0d 	call	0x1b82	; 0x1b82 <ReadU_5ms>

    /* neglect MCU's internal resistance */
    R_Shunt =  R_HIGH;
    351a:	20 ef       	ldi	r18, 0xF0	; 240
    351c:	c2 2e       	mov	r12, r18
    351e:	2b e2       	ldi	r18, 0x2B	; 43
    3520:	d2 2e       	mov	r13, r18
    3522:	27 e0       	ldi	r18, 0x07	; 7
    3524:	e2 2e       	mov	r14, r18
    3526:	f1 2c       	mov	r15, r1
    Scale = -9;                         /* 1n */
    Value = 1000000;                    /* scale voltage to 1 nV */
    3528:	20 e4       	ldi	r18, 0x40	; 64
    352a:	32 e4       	ldi	r19, 0x42	; 66
    352c:	4f e0       	ldi	r20, 0x0F	; 15
    352e:	50 e0       	ldi	r21, 0x00	; 0
    R_DDR = Probes.Rh_2;                /* pull down probe-2 via Rh */
    U_Rl = ReadU_5ms(Probes.Ch_2);      /* get voltage at Rh */

    /* neglect MCU's internal resistance */
    R_Shunt =  R_HIGH;
    Scale = -9;                         /* 1n */
    3530:	c7 ef       	ldi	r28, 0xF7	; 247
    3532:	ca cf       	rjmp	.-108    	; 0x34c8 <GetLeakageCurrent+0x62>

00003534 <SearchDiode>:
Diode_Type *SearchDiode(uint8_t A, uint8_t C)
{
  Diode_Type        *Diode;        /* pointer to diode */
  uint8_t           n;             /* counter */

  n = Check.Diodes;           /* number of diodes */
    3534:	90 91 06 01 	lds	r25, 0x0106	; 0x800106 <Check+0x5>
  Diode = &Diodes[0];         /* pointer to first diode */
    3538:	e2 e6       	ldi	r30, 0x62	; 98
    353a:	f1 e0       	ldi	r31, 0x01	; 1

  while (n > 0)
    353c:	91 11       	cpse	r25, r1
    353e:	04 c0       	rjmp	.+8      	; 0x3548 <SearchDiode+0x14>
    Diode++;
  }

  if (n == 0)            /* no match found */
  {
    Diode = NULL;        /* reset pointer */
    3540:	f0 e0       	ldi	r31, 0x00	; 0
    3542:	e0 e0       	ldi	r30, 0x00	; 0
  }

  return Diode;
}
    3544:	cf 01       	movw	r24, r30
    3546:	08 95       	ret
  n = Check.Diodes;           /* number of diodes */
  Diode = &Diodes[0];         /* pointer to first diode */

  while (n > 0)
  {
    if ((A == Diode->A) && (C == Diode->C))
    3548:	20 81       	ld	r18, Z
    354a:	28 13       	cpse	r18, r24
    354c:	03 c0       	rjmp	.+6      	; 0x3554 <SearchDiode+0x20>
    354e:	21 81       	ldd	r18, Z+1	; 0x01
    3550:	26 17       	cp	r18, r22
    3552:	c1 f3       	breq	.-16     	; 0x3544 <SearchDiode+0x10>
    {
      break;
    }

    n--;                 /* next diode */
    3554:	91 50       	subi	r25, 0x01	; 1
    Diode++;
    3556:	36 96       	adiw	r30, 0x06	; 6
    3558:	f1 cf       	rjmp	.-30     	; 0x353c <SearchDiode+0x8>

0000355a <CheckDiode>:
/*
 *  check for diode
 */

void CheckDiode(void)
{
    355a:	b0 e0       	ldi	r27, 0x00	; 0
    355c:	a0 e0       	ldi	r26, 0x00	; 0
    355e:	e3 eb       	ldi	r30, 0xB3	; 179
    3560:	fa e1       	ldi	r31, 0x1A	; 26
    3562:	0c 94 72 2d 	jmp	0x5ae4	; 0x5ae4 <__prologue_saves__+0xc>
  uint16_t          U2_Rl;         /* Vf #2 with Rl pull-down */
  uint16_t          U2_Rh;         /* Vf #2 with Rh pull-down */
  uint16_t          U2_Zero;       /* Vf #2 zero */
  uint16_t          U_Diff;        /* Vf difference */

  wdt_reset();                          /* reset watchdog */
    3566:	a8 95       	wdr

  DischargeProbes();                    /* try to discharge probes */
    3568:	0e 94 d4 0e 	call	0x1da8	; 0x1da8 <DischargeProbes>
  if (Check.Found == COMP_ERROR) return;     /* skip on error */
    356c:	80 91 01 01 	lds	r24, 0x0101	; 0x800101 <Check>
    3570:	81 30       	cpi	r24, 0x01	; 1
    3572:	09 f4       	brne	.+2      	; 0x3576 <CheckDiode+0x1c>
    3574:	94 c0       	rjmp	.+296    	; 0x369e <CheckDiode+0x144>
   *  Vf #1, supporting a possible p-channel MOSFET
   */

  /* we assume: probe-1 = A / probe2 = C */
  /* set probes: Gnd -- probe-2 / probe-1 -- HiZ */
  ADC_PORT = 0;
    3576:	18 b8       	out	0x08, r1	; 8
  ADC_DDR = Probes.Pin_2;               /* pull down cathode directly */
    3578:	80 91 c2 01 	lds	r24, 0x01C2	; 0x8001c2 <Probes+0xd>
    357c:	87 b9       	out	0x07, r24	; 7
  /* R_DDR is set to HiZ by DischargeProbes() */
  U1_Zero = ReadU(Probes.Ch_1);         /* get voltage at anode */
    357e:	80 91 c4 01 	lds	r24, 0x01C4	; 0x8001c4 <Probes+0xf>
    3582:	0e 94 61 0d 	call	0x1ac2	; 0x1ac2 <ReadU>
    3586:	4c 01       	movw	r8, r24

  /* measure voltage across DUT (Vf) with Rh */
  /* set probes: Gnd -- probe-2 / probe-1 -- Rh -- Vcc */
  R_DDR = Probes.Rh_1;                  /* enable Rh for probe-1 */
    3588:	80 91 be 01 	lds	r24, 0x01BE	; 0x8001be <Probes+0x9>
    358c:	8a b9       	out	0x0a, r24	; 10
  R_PORT = Probes.Rh_1;                 /* pull up anode via Rh */
    358e:	8b b9       	out	0x0b, r24	; 11
  PullProbe(Probes.Rl_3, PULL_10MS | PULL_UP);     /* discharge gate */
    3590:	61 e1       	ldi	r22, 0x11	; 17
    3592:	80 91 bd 01 	lds	r24, 0x01BD	; 0x8001bd <Probes+0x8>
    3596:	0e 94 7f 0f 	call	0x1efe	; 0x1efe <PullProbe>
  U1_Rh = ReadU_5ms(Probes.Ch_1);       /* get voltage at anode */
    359a:	80 91 c4 01 	lds	r24, 0x01C4	; 0x8001c4 <Probes+0xf>
    359e:	0e 94 c1 0d 	call	0x1b82	; 0x1b82 <ReadU_5ms>
    35a2:	5c 01       	movw	r10, r24
                                        /* neglect voltage at cathode */

  /* measure voltage across DUT (Vf) with Rl */
  /* set probes: Gnd -- probe-2 / probe-1 -- Rl -- Vcc */
  R_DDR = Probes.Rl_1;                  /* enable Rl for probe-1 */
    35a4:	80 91 bb 01 	lds	r24, 0x01BB	; 0x8001bb <Probes+0x6>
    35a8:	8a b9       	out	0x0a, r24	; 10
  R_PORT = Probes.Rl_1;                 /* pull up anode via Rl */
    35aa:	8b b9       	out	0x0b, r24	; 11
  PullProbe(Probes.Rl_3, PULL_10MS | PULL_UP);     /* discharge gate */
    35ac:	61 e1       	ldi	r22, 0x11	; 17
    35ae:	80 91 bd 01 	lds	r24, 0x01BD	; 0x8001bd <Probes+0x8>
    35b2:	0e 94 7f 0f 	call	0x1efe	; 0x1efe <PullProbe>
  U1_Rl = ReadU_5ms(Probes.Ch_1);       /* get voltage at anode */
    35b6:	80 91 c4 01 	lds	r24, 0x01C4	; 0x8001c4 <Probes+0xf>
    35ba:	0e 94 c1 0d 	call	0x1b82	; 0x1b82 <ReadU_5ms>
    35be:	8c 01       	movw	r16, r24
  U1_Rl -= ReadU(Probes.Ch_2);          /* substract voltage at cathode */
    35c0:	80 91 c5 01 	lds	r24, 0x01C5	; 0x8001c5 <Probes+0x10>
    35c4:	0e 94 61 0d 	call	0x1ac2	; 0x1ac2 <ReadU>
    35c8:	6c 01       	movw	r12, r24


  DischargeProbes();                    /* try to discharge probes */
    35ca:	0e 94 d4 0e 	call	0x1da8	; 0x1da8 <DischargeProbes>
  if (Check.Found == COMP_ERROR) return;     /* skip on error */  
    35ce:	80 91 01 01 	lds	r24, 0x0101	; 0x800101 <Check>
    35d2:	81 30       	cpi	r24, 0x01	; 1
    35d4:	09 f4       	brne	.+2      	; 0x35d8 <CheckDiode+0x7e>
    35d6:	63 c0       	rjmp	.+198    	; 0x369e <CheckDiode+0x144>
   *  Vf #2, supporting a possible n-channel MOSFET
   */

  /* we assume: probe-1 = A / probe2 = C */
  /* set probes: Gnd -- probe-2 / probe-1 -- HiZ */
  ADC_PORT = 0;
    35d8:	18 b8       	out	0x08, r1	; 8
  ADC_DDR = Probes.Pin_2;               /* pull down cathode directly */
    35da:	80 91 c2 01 	lds	r24, 0x01C2	; 0x8001c2 <Probes+0xd>
    35de:	87 b9       	out	0x07, r24	; 7
  /* R_DDR is set to HiZ by DischargeProbes() */
  U2_Zero = ReadU(Probes.Ch_1);         /* get voltage at anode */
    35e0:	80 91 c4 01 	lds	r24, 0x01C4	; 0x8001c4 <Probes+0xf>
    35e4:	0e 94 61 0d 	call	0x1ac2	; 0x1ac2 <ReadU>
    35e8:	7c 01       	movw	r14, r24

  /* measure voltage across DUT (Vf) with Rh */
  /* set probes: Gnd -- Rh -- probe-2 / probe-1 -- Vcc */
  ADC_DDR = 0;                          /* set to HiZ to prepare change */
    35ea:	17 b8       	out	0x07, r1	; 7
  ADC_PORT = Probes.Pin_1;              /* pull up anode directly */
    35ec:	80 91 c1 01 	lds	r24, 0x01C1	; 0x8001c1 <Probes+0xc>
    35f0:	88 b9       	out	0x08, r24	; 8
  ADC_DDR = Probes.Pin_1;               /* enable output */
    35f2:	87 b9       	out	0x07, r24	; 7
  R_PORT = 0;                           /* pull down cathode via Rh */
    35f4:	1b b8       	out	0x0b, r1	; 11
  R_DDR = Probes.Rh_2;                  /* enable Rh for probe-2 */
    35f6:	80 91 bf 01 	lds	r24, 0x01BF	; 0x8001bf <Probes+0xa>
    35fa:	8a b9       	out	0x0a, r24	; 10
  PullProbe(Probes.Rl_3, PULL_10MS | PULL_DOWN);   /* discharge gate */
    35fc:	60 e1       	ldi	r22, 0x10	; 16
    35fe:	80 91 bd 01 	lds	r24, 0x01BD	; 0x8001bd <Probes+0x8>
    3602:	0e 94 7f 0f 	call	0x1efe	; 0x1efe <PullProbe>
  U2_Rh = ReadU_5ms(Probes.Ch_1);       /* get voltage at anode */
    3606:	80 91 c4 01 	lds	r24, 0x01C4	; 0x8001c4 <Probes+0xf>
    360a:	0e 94 c1 0d 	call	0x1b82	; 0x1b82 <ReadU_5ms>
    360e:	ec 01       	movw	r28, r24
  U_Diff = ReadU(Probes.Ch_2);          /* get voltage at cathode */
    3610:	80 91 c5 01 	lds	r24, 0x01C5	; 0x8001c5 <Probes+0x10>
    3614:	0e 94 61 0d 	call	0x1ac2	; 0x1ac2 <ReadU>
  if (U2_Rh >= U_Diff)                  /* prevent underrun */
    3618:	c8 17       	cp	r28, r24
    361a:	d9 07       	cpc	r29, r25
    361c:	08 f4       	brcc	.+2      	; 0x3620 <CheckDiode+0xc6>
    361e:	44 c0       	rjmp	.+136    	; 0x36a8 <CheckDiode+0x14e>
  {
    U2_Rh -= U_Diff;                    /* V_f = U_Anode - U_Cathode */
    3620:	c8 1b       	sub	r28, r24
    3622:	d9 0b       	sbc	r29, r25
  /* set probes: Gnd -- probe-2 / probe-1 -- Rl -- Vcc */
  R_DDR = Probes.Rl_1;                  /* enable Rl for probe-1 */
  R_PORT = Probes.Rl_1;                 /* pull up anode via Rl */
  PullProbe(Probes.Rl_3, PULL_10MS | PULL_UP);     /* discharge gate */
  U1_Rl = ReadU_5ms(Probes.Ch_1);       /* get voltage at anode */
  U1_Rl -= ReadU(Probes.Ch_2);          /* substract voltage at cathode */
    3624:	0c 19       	sub	r16, r12
    3626:	1d 09       	sbc	r17, r13
    U2_Rh = 0;                          /* simply zero */
  }

  /* measure voltage across DUT (Vf) with Rl */
  /* set probes: Gnd -- Rl -- probe-2 / probe-1 -- Vcc */
  R_DDR = Probes.Rl_2;                  /* pull down cathode via Rl */
    3628:	80 91 bc 01 	lds	r24, 0x01BC	; 0x8001bc <Probes+0x7>
    362c:	8a b9       	out	0x0a, r24	; 10
  PullProbe(Probes.Rl_3, PULL_10MS | PULL_DOWN);   /* discharge gate */
    362e:	60 e1       	ldi	r22, 0x10	; 16
    3630:	80 91 bd 01 	lds	r24, 0x01BD	; 0x8001bd <Probes+0x8>
    3634:	0e 94 7f 0f 	call	0x1efe	; 0x1efe <PullProbe>
  U2_Rl = ReadU_5ms(Probes.Ch_1);       /* get voltage at anode */
    3638:	80 91 c4 01 	lds	r24, 0x01C4	; 0x8001c4 <Probes+0xf>
    363c:	0e 94 c1 0d 	call	0x1b82	; 0x1b82 <ReadU_5ms>
    3640:	6c 01       	movw	r12, r24
  U2_Rl -= ReadU(Probes.Ch_2);          /* substract voltage at cathode */
    3642:	80 91 c5 01 	lds	r24, 0x01C5	; 0x8001c5 <Probes+0x10>
    3646:	0e 94 61 0d 	call	0x1ac2	; 0x1ac2 <ReadU>
    364a:	c8 1a       	sub	r12, r24
    364c:	d9 0a       	sbc	r13, r25

  ADC_DDR = 0;                     /* stop pulling up */
    364e:	17 b8       	out	0x07, r1	; 7
  /*
   *  process results
   */

  /* choose between both measurements */
  if (U1_Rl > U2_Rl)          /* the higher voltage wins */
    3650:	c0 16       	cp	r12, r16
    3652:	d1 06       	cpc	r13, r17
    3654:	60 f5       	brcc	.+88     	; 0x36ae <CheckDiode+0x154>
  {
    U_Diff = U1_Rl - U2_Rl;   /* difference of U_Rls */
    3656:	c8 01       	movw	r24, r16
    3658:	8c 19       	sub	r24, r12
    365a:	9d 09       	sbc	r25, r13
    U2_Rl = U1_Rl;
    U2_Rh = U1_Rh;
    U2_Zero = U1_Zero;
    365c:	74 01       	movw	r14, r8
  /* choose between both measurements */
  if (U1_Rl > U2_Rl)          /* the higher voltage wins */
  {
    U_Diff = U1_Rl - U2_Rl;   /* difference of U_Rls */
    U2_Rl = U1_Rl;
    U2_Rh = U1_Rh;
    365e:	e5 01       	movw	r28, r10
   *  - nearly zero for diodes, BJTs etc.
   *  - about a diode drop for enhancement-mode MOSFETs
   *  - >1000mV for depletion-mode FETs partly conducting 
   */

  if (U_Diff > 1000) return;       /* depletion-mode FET */
    3660:	89 3e       	cpi	r24, 0xE9	; 233
    3662:	93 40       	sbci	r25, 0x03	; 3
    3664:	e0 f4       	brcc	.+56     	; 0x369e <CheckDiode+0x144>
   *  - very large cap
   *
   *  The lowest Vf measured with Rh is 9mV for a GY100 (Germanium).
   */

  if (U2_Rh <= 5) return;          /* small resistor or very large cap */
    3666:	c6 30       	cpi	r28, 0x06	; 6
    3668:	d1 05       	cpc	r29, r1
    366a:	c8 f0       	brcs	.+50     	; 0x369e <CheckDiode+0x144>
   *  As larger the cap as lower U_Rl (charging time 15ms).
   */

  if (U2_Rh > U2_Zero)             /* prevent underrun */
  {
    U_Diff = U2_Rh - U2_Zero;      /* calculate difference */
    366c:	ce 01       	movw	r24, r28
    366e:	8e 19       	sub	r24, r14
    3670:	9f 09       	sbc	r25, r15
   *  Hints:
   *  If U_Zero > 10 and U_Rh is about U_Zero it's a large cap.
   *  As larger the cap as lower U_Rl (charging time 15ms).
   */

  if (U2_Rh > U2_Zero)             /* prevent underrun */
    3672:	ec 16       	cp	r14, r28
    3674:	fd 06       	cpc	r15, r29
    3676:	18 f0       	brcs	.+6      	; 0x367e <CheckDiode+0x124>
  {
    U_Diff = U2_Rh - U2_Zero;      /* calculate difference */
  }
  else
  {
    U_Diff = U2_Zero - U2_Rh;      /* calculate difference */
    3678:	c7 01       	movw	r24, r14
    367a:	8c 1b       	sub	r24, r28
    367c:	9d 0b       	sbc	r25, r29
  }

  if ((U2_Zero > 2) && (U_Diff < 100))  /* capacitor */
    367e:	23 e0       	ldi	r18, 0x03	; 3
    3680:	e2 16       	cp	r14, r18
    3682:	f1 04       	cpc	r15, r1
    3684:	18 f0       	brcs	.+6      	; 0x368c <CheckDiode+0x132>
    3686:	84 36       	cpi	r24, 0x64	; 100
    3688:	91 05       	cpc	r25, r1
    368a:	48 f0       	brcs	.+18     	; 0x369e <CheckDiode+0x144>
   *  - Measure current in forward and reverse direction. Both currents
   *    should be the same for a resistor.
   *  - For U_Rh > 40mV we don't need to check for a resistor.
   */

  if (U2_Rh < 40)             /* resistor (< 3k) */
    368c:	c8 32       	cpi	r28, 0x28	; 40
    368e:	d1 05       	cpc	r29, r1
    3690:	98 f0       	brcs	.+38     	; 0x36b8 <CheckDiode+0x15e>

  /*
   *  if U_Rl (Vf) is between 0.15V and 4.64V it's a diode
   */

  if ((U2_Rl > 150) && (U2_Rl < 4640))
    3692:	c8 01       	movw	r24, r16
    3694:	87 59       	subi	r24, 0x97	; 151
    3696:	91 09       	sbc	r25, r1
    3698:	89 38       	cpi	r24, 0x89	; 137
    369a:	91 41       	sbci	r25, 0x11	; 17
    369c:	b8 f1       	brcs	.+110    	; 0x370c <CheckDiode+0x1b2>
    Diode->C = Probes.ID_2;   /* probe ID for Cathode */ 
    Diode->V_f = U2_Rl;       /* Vf for high measurement current */
    Diode->V_f2 = U2_Rh;      /* Vf for low measurement current */
    Check.Diodes++;
  }
}
    369e:	cd b7       	in	r28, 0x3d	; 61
    36a0:	de b7       	in	r29, 0x3e	; 62
    36a2:	ec e0       	ldi	r30, 0x0C	; 12
    36a4:	0c 94 8e 2d 	jmp	0x5b1c	; 0x5b1c <__epilogue_restores__+0xc>
  {
    U2_Rh -= U_Diff;                    /* V_f = U_Anode - U_Cathode */
  }
  else                                  /* maybe large inductance */
  {
    U2_Rh = 0;                          /* simply zero */
    36a8:	d0 e0       	ldi	r29, 0x00	; 0
    36aa:	c0 e0       	ldi	r28, 0x00	; 0
    36ac:	bb cf       	rjmp	.-138    	; 0x3624 <CheckDiode+0xca>
    U2_Rh = U1_Rh;
    U2_Zero = U1_Zero;
  }
  else                        /* keep 2nd data set */
  {
    U_Diff = U2_Rl - U1_Rl;   /* difference of U_Rls */
    36ae:	c6 01       	movw	r24, r12
    36b0:	80 1b       	sub	r24, r16
    36b2:	91 0b       	sbc	r25, r17
    36b4:	86 01       	movw	r16, r12
    36b6:	d4 cf       	rjmp	.-88     	; 0x3660 <CheckDiode+0x106>

  if (U2_Rh < 40)             /* resistor (< 3k) */
  {
    /* get current in forward direction */
    /* set probes: Gnd -- Rl -- probe-2 / probe-1 -- Vcc */
    R_PORT = 0;
    36b8:	1b b8       	out	0x0b, r1	; 11
    R_DDR = Probes.Rl_2;                  /* pull down cathode via Rl */
    36ba:	80 91 bc 01 	lds	r24, 0x01BC	; 0x8001bc <Probes+0x7>
    36be:	8a b9       	out	0x0a, r24	; 10
    ADC_PORT = Probes.Pin_1;
    36c0:	80 91 c1 01 	lds	r24, 0x01C1	; 0x8001c1 <Probes+0xc>
    36c4:	88 b9       	out	0x08, r24	; 8
    ADC_DDR = Probes.Pin_1;               /* pull up anode directly */
    36c6:	87 b9       	out	0x07, r24	; 7
    U1_Rl = ReadU_5ms(Probes.Ch_2);       /* get voltage at Rl */
    36c8:	80 91 c5 01 	lds	r24, 0x01C5	; 0x8001c5 <Probes+0x10>
    36cc:	0e 94 c1 0d 	call	0x1b82	; 0x1b82 <ReadU_5ms>
    36d0:	7c 01       	movw	r14, r24

    /* get current in reverse direction */
    /* set probes: Gnd -- Rl -- probe-1 / probe-2 -- Vcc */
    R_DDR = Probes.Rl_1;                  /* pull down anode via Rl */
    36d2:	80 91 bb 01 	lds	r24, 0x01BB	; 0x8001bb <Probes+0x6>
    36d6:	8a b9       	out	0x0a, r24	; 10
    ADC_PORT = Probes.Pin_2;
    36d8:	80 91 c2 01 	lds	r24, 0x01C2	; 0x8001c2 <Probes+0xd>
    36dc:	88 b9       	out	0x08, r24	; 8
    ADC_DDR = Probes.Pin_2;               /* pull up cathode directly */
    36de:	87 b9       	out	0x07, r24	; 7
    U1_Rh = ReadU_5ms(Probes.Ch_1);       /* get voltage at Rl */
    36e0:	80 91 c4 01 	lds	r24, 0x01C4	; 0x8001c4 <Probes+0xf>
    36e4:	0e 94 c1 0d 	call	0x1b82	; 0x1b82 <ReadU_5ms>
    36e8:	9c 01       	movw	r18, r24

    /* check if both currents match */
    U_Diff = U1_Rl / 20;           /* 5% */
    36ea:	c7 01       	movw	r24, r14
    36ec:	64 e1       	ldi	r22, 0x14	; 20
    36ee:	70 e0       	ldi	r23, 0x00	; 0
    36f0:	0e 94 dc 2c 	call	0x59b8	; 0x59b8 <__udivmodhi4>
    U1_Zero = U1_Rl - U_Diff;      /* 95% */
    36f4:	c7 01       	movw	r24, r14
    36f6:	86 1b       	sub	r24, r22
    36f8:	97 0b       	sbc	r25, r23
    U2_Zero = U1_Rl + U_Diff;      /* 105% */

    if ((U1_Rh > U1_Zero) && (U1_Rh < U2_Zero))   /* within limits */
    36fa:	82 17       	cp	r24, r18
    36fc:	93 07       	cpc	r25, r19
    36fe:	48 f6       	brcc	.-110    	; 0x3692 <CheckDiode+0x138>
    U1_Rh = ReadU_5ms(Probes.Ch_1);       /* get voltage at Rl */

    /* check if both currents match */
    U_Diff = U1_Rl / 20;           /* 5% */
    U1_Zero = U1_Rl - U_Diff;      /* 95% */
    U2_Zero = U1_Rl + U_Diff;      /* 105% */
    3700:	e6 0e       	add	r14, r22
    3702:	f7 1e       	adc	r15, r23

    if ((U1_Rh > U1_Zero) && (U1_Rh < U2_Zero))   /* within limits */
    3704:	2e 15       	cp	r18, r14
    3706:	3f 05       	cpc	r19, r15
    3708:	20 f6       	brcc	.-120    	; 0x3692 <CheckDiode+0x138>
    370a:	c9 cf       	rjmp	.-110    	; 0x369e <CheckDiode+0x144>
   */

  if ((U2_Rl > 150) && (U2_Rl < 4640))
  {
    /* if we haven't found any other component yet */
    if ((Check.Found == COMP_NONE) ||
    370c:	80 91 01 01 	lds	r24, 0x0101	; 0x800101 <Check>
    3710:	88 23       	and	r24, r24
    3712:	11 f0       	breq	.+4      	; 0x3718 <CheckDiode+0x1be>
    3714:	8a 30       	cpi	r24, 0x0A	; 10
    3716:	19 f4       	brne	.+6      	; 0x371e <CheckDiode+0x1c4>
        (Check.Found == COMP_RESISTOR))
    {
      Check.Found = COMP_DIODE;
    3718:	84 e1       	ldi	r24, 0x14	; 20
    371a:	80 93 01 01 	sts	0x0101, r24	; 0x800101 <Check>
      /* Check.Type = TYPE_STANDARD; */
      /* we don't set Check.Done in case we'll find something different */
    }

    /* save data */
    Diode = &Diodes[Check.Diodes];
    371e:	80 91 06 01 	lds	r24, 0x0106	; 0x800106 <Check+0x5>
    Diode->A = Probes.ID_1;   /* probe ID for Anode */
    3722:	96 e0       	ldi	r25, 0x06	; 6
    3724:	89 9f       	mul	r24, r25
    3726:	f0 01       	movw	r30, r0
    3728:	11 24       	eor	r1, r1
    372a:	ee 59       	subi	r30, 0x9E	; 158
    372c:	fe 4f       	sbci	r31, 0xFE	; 254
    372e:	90 91 b5 01 	lds	r25, 0x01B5	; 0x8001b5 <Probes>
    3732:	90 83       	st	Z, r25
    Diode->C = Probes.ID_2;   /* probe ID for Cathode */ 
    3734:	90 91 b6 01 	lds	r25, 0x01B6	; 0x8001b6 <Probes+0x1>
    3738:	91 83       	std	Z+1, r25	; 0x01
    Diode->V_f = U2_Rl;       /* Vf for high measurement current */
    373a:	13 83       	std	Z+3, r17	; 0x03
    373c:	02 83       	std	Z+2, r16	; 0x02
    Diode->V_f2 = U2_Rh;      /* Vf for low measurement current */
    373e:	d5 83       	std	Z+5, r29	; 0x05
    3740:	c4 83       	std	Z+4, r28	; 0x04
    Check.Diodes++;
    3742:	8f 5f       	subi	r24, 0xFF	; 255
    3744:	80 93 06 01 	sts	0x0106, r24	; 0x800106 <Check+0x5>
    3748:	aa cf       	rjmp	.-172    	; 0x369e <CheckDiode+0x144>

0000374a <VerifyMOSFET>:
/*
 *  verify MOSFET by checking the body diode
 */

void VerifyMOSFET(void)
{
    374a:	80 91 9b 01 	lds	r24, 0x019B	; 0x80019b <Semi+0x1>
    374e:	60 91 9c 01 	lds	r22, 0x019C	; 0x80019c <Semi+0x2>
  uint8_t           Anode;
  uint8_t           Cathode;
  Diode_Type        *Diode;             /* pointer to diode */

  /* set expected body diode */
  if (Check.Type & TYPE_N_CHANNEL)      /* n-channel */
    3752:	90 91 02 01 	lds	r25, 0x0102	; 0x800102 <Check+0x1>
    3756:	90 fd       	sbrc	r25, 0
    3758:	03 c0       	rjmp	.+6      	; 0x3760 <VerifyMOSFET+0x16>
    375a:	96 2f       	mov	r25, r22
    Anode = Semi.C;      /* anode at source */
    Cathode = Semi.B;    /* cathode at drain */
  }
  else                                  /* p-channel */
  {
    Anode = Semi.B;      /* anode at drain */
    375c:	68 2f       	mov	r22, r24
    Cathode = Semi.C;    /* cathode at source */
    375e:	89 2f       	mov	r24, r25
  }

  /* search for a diode with reversed polarity */
  Diode = SearchDiode(Cathode, Anode);  /* search for reversed diode */
    3760:	0e 94 9a 1a 	call	0x3534	; 0x3534 <SearchDiode>
  if (Diode != NULL)                    /* got it */
    3764:	89 2b       	or	r24, r25
    3766:	49 f0       	breq	.+18     	; 0x377a <VerifyMOSFET+0x30>
  {
    /* this can't be a MOSFET, so let's reset */
    Check.Found = COMP_NONE;
    3768:	10 92 01 01 	sts	0x0101, r1	; 0x800101 <Check>
    Check.Type = 0;
    376c:	10 92 02 01 	sts	0x0102, r1	; 0x800102 <Check+0x1>
    Check.Done &= ~(DONE_SEMI);    /* unset flag */
    3770:	80 91 03 01 	lds	r24, 0x0103	; 0x800103 <Check+0x2>
    3774:	8e 7f       	andi	r24, 0xFE	; 254
    3776:	80 93 03 01 	sts	0x0103, r24	; 0x800103 <Check+0x2>
  }
}
    377a:	08 95       	ret

0000377c <GetGateThreshold>:
 *  requires:
 *  - Type: n-channel or p-channel
 */

void GetGateThreshold(uint8_t Type)
{
    377c:	b0 e0       	ldi	r27, 0x00	; 0
    377e:	a0 e0       	ldi	r26, 0x00	; 0
    3780:	e4 ec       	ldi	r30, 0xC4	; 196
    3782:	fb e1       	ldi	r31, 0x1B	; 27
    3784:	0c 94 73 2d 	jmp	0x5ae6	; 0x5ae6 <__prologue_saves__+0xe>

  /*
   *  init variables
   */

  if (Type & TYPE_N_CHANNEL)       /* n-channel */
    3788:	28 2f       	mov	r18, r24
    378a:	21 70       	andi	r18, 0x01	; 1
    378c:	92 2e       	mov	r9, r18
  {
    /* we assume: probe-1 = D / probe-2 = S / probe-3 = G */
    /* probe-2 is still pulled down directly */
    /* probe-1 is still pulled up via Rl */

    Drain_Rl =  Probes.Rl_1;
    378e:	10 91 bb 01 	lds	r17, 0x01BB	; 0x8001bb <Probes+0x6>
    Drain_ADC = Probes.Pin_1;
    3792:	c0 91 c1 01 	lds	r28, 0x01C1	; 0x8001c1 <Probes+0xc>
    PullMode = PULL_10MS | PULL_DOWN;
    3796:	00 e1       	ldi	r16, 0x10	; 16

  /*
   *  init variables
   */

  if (Type & TYPE_N_CHANNEL)       /* n-channel */
    3798:	80 fd       	sbrc	r24, 0
    379a:	05 c0       	rjmp	.+10     	; 0x37a6 <GetGateThreshold+0x2a>
  {
    /* we assume: probe-1 = S / probe-2 = D / probe-3 = G */
    /* probe-2 is still pulled down via Rl */
    /* probe-1 is still pulled up directly */

    Drain_Rl =  Probes.Rl_2;
    379c:	10 91 bc 01 	lds	r17, 0x01BC	; 0x8001bc <Probes+0x7>
    Drain_ADC = Probes.Pin_2;
    37a0:	c0 91 c2 01 	lds	r28, 0x01C2	; 0x8001c2 <Probes+0xd>
    PullMode = PULL_10MS | PULL_UP;
    37a4:	01 e1       	ldi	r16, 0x11	; 17
  /*
   *  For low reaction times we use the ADC directly.
   */

  /* sanitize register bits for drain to prevent a never-ending loop */ 
  Drain_ADC &= ((1 << TP1) | (1 << TP2) | (1 << TP3));
    37a6:	c7 70       	andi	r28, 0x07	; 7
  ADMUX = Probes.Ch_3 | ADC_REF_VCC;    /* select probe-3 for ADC input */
    37a8:	80 91 c6 01 	lds	r24, 0x01C6	; 0x8001c6 <Probes+0x11>
    37ac:	80 64       	ori	r24, 0x40	; 64
    37ae:	80 93 7c 00 	sts	0x007C, r24	; 0x80007c <__TEXT_REGION_LENGTH__+0x7f807c>
                                        /* and use Vcc as reference */
  #ifndef ADC_LARGE_BUFFER_CAP
    /* buffer cap: 1nF or none at all */
    wait100us();                   /* time for voltage stabilization */
    37b2:	0e 94 32 2b 	call	0x5664	; 0x5664 <wait100us>
    37b6:	da e0       	ldi	r29, 0x0A	; 10
 *  - Type: n-channel or p-channel
 */

void GetGateThreshold(uint8_t Type)
{
  int32_t           Ugs = 0;       /* gate threshold voltage / Vth */
    37b8:	c1 2c       	mov	r12, r1
    37ba:	d1 2c       	mov	r13, r1
    37bc:	76 01       	movw	r14, r12
    {
      Ugs += ADCW;                        /* Ugs = U_g */
    }
    else                                /* p-channel */
    {
      Ugs -= (1023 - ADCW);               /* Ugs = - (Vcc - U_g) */
    37be:	aa 24       	eor	r10, r10
    37c0:	aa 94       	dec	r10
    37c2:	83 e0       	ldi	r24, 0x03	; 3
    37c4:	b8 2e       	mov	r11, r24
  #endif

  /* sample 10 times */
  for (Counter = 0; Counter < 10; Counter++) 
  {
    wdt_reset();                         /* reset watchdog */
    37c6:	a8 95       	wdr

    /* discharge gate via Rl for 10 ms */
    PullProbe(Probes.Rl_3, PullMode);
    37c8:	60 2f       	mov	r22, r16
    37ca:	80 91 bd 01 	lds	r24, 0x01BD	; 0x8001bd <Probes+0x8>
    37ce:	0e 94 7f 0f 	call	0x1efe	; 0x1efe <PullProbe>

    /* pull up/down gate via Rh to slowly charge gate */
    R_DDR = Drain_Rl | Probes.Rh_3;
    37d2:	80 91 c0 01 	lds	r24, 0x01C0	; 0x8001c0 <Probes+0xb>
    37d6:	81 2b       	or	r24, r17
    37d8:	8a b9       	out	0x0a, r24	; 10

    /* wait until FET conducts */
    /* any problem will cause a watchdog timeout */
    if (Type & TYPE_N_CHANNEL)          /* n-channel */
    37da:	99 20       	and	r9, r9
    37dc:	c9 f1       	breq	.+114    	; 0x3850 <GetGateThreshold+0xd4>
    {
      /* FET conducts when the voltage at the drain reaches low level */
      while (ADC_PIN & Drain_ADC);
    37de:	86 b1       	in	r24, 0x06	; 6
    37e0:	8c 23       	and	r24, r28
    37e2:	e9 f7       	brne	.-6      	; 0x37de <GetGateThreshold+0x62>
    {
      /* FET conducts when the voltage at the drain reaches high level */
      while (!(ADC_PIN & Drain_ADC));             
    }

    R_DDR = Drain_Rl;                   /* set probe-3 to HiZ mode */
    37e4:	1a b9       	out	0x0a, r17	; 10

    /* get voltage of gate */
    ADCSRA |= (1 << ADSC);              /* start ADC conversion */
    37e6:	80 91 7a 00 	lds	r24, 0x007A	; 0x80007a <__TEXT_REGION_LENGTH__+0x7f807a>
    37ea:	80 64       	ori	r24, 0x40	; 64
    37ec:	80 93 7a 00 	sts	0x007A, r24	; 0x80007a <__TEXT_REGION_LENGTH__+0x7f807a>
    while (ADCSRA & (1 << ADSC));       /* wait until conversion is done */
    37f0:	80 91 7a 00 	lds	r24, 0x007A	; 0x80007a <__TEXT_REGION_LENGTH__+0x7f807a>
    37f4:	86 fd       	sbrc	r24, 6
    37f6:	fc cf       	rjmp	.-8      	; 0x37f0 <GetGateThreshold+0x74>

    /* add ADC reading */
    if (Type & TYPE_N_CHANNEL)          /* n-channel */
    {
      Ugs += ADCW;                        /* Ugs = U_g */
    37f8:	80 91 78 00 	lds	r24, 0x0078	; 0x800078 <__TEXT_REGION_LENGTH__+0x7f8078>
    37fc:	90 91 79 00 	lds	r25, 0x0079	; 0x800079 <__TEXT_REGION_LENGTH__+0x7f8079>
    /* get voltage of gate */
    ADCSRA |= (1 << ADSC);              /* start ADC conversion */
    while (ADCSRA & (1 << ADSC));       /* wait until conversion is done */

    /* add ADC reading */
    if (Type & TYPE_N_CHANNEL)          /* n-channel */
    3800:	99 20       	and	r9, r9
    3802:	51 f1       	breq	.+84     	; 0x3858 <GetGateThreshold+0xdc>
    {
      Ugs += ADCW;                        /* Ugs = U_g */
    3804:	c8 0e       	add	r12, r24
    3806:	d9 1e       	adc	r13, r25
    3808:	e1 1c       	adc	r14, r1
    380a:	f1 1c       	adc	r15, r1
    380c:	d1 50       	subi	r29, 0x01	; 1
    /* buffer cap: 100nF */
    wait10ms();                    /* time for voltage stabilization */
  #endif

  /* sample 10 times */
  for (Counter = 0; Counter < 10; Counter++) 
    380e:	d9 f6       	brne	.-74     	; 0x37c6 <GetGateThreshold+0x4a>
      Ugs -= (1023 - ADCW);               /* Ugs = - (Vcc - U_g) */
    }
  }

  /* calculate V_th */
  Ugs /= 10;                     /* average of 10 samples */
    3810:	c7 01       	movw	r24, r14
    3812:	b6 01       	movw	r22, r12
    3814:	2a e0       	ldi	r18, 0x0A	; 10
    3816:	30 e0       	ldi	r19, 0x00	; 0
    3818:	40 e0       	ldi	r20, 0x00	; 0
    381a:	50 e0       	ldi	r21, 0x00	; 0
    381c:	0e 94 26 2d 	call	0x5a4c	; 0x5a4c <__divmodsi4>
  Ugs *= Cfg.Vcc;                /* convert to voltage */
    3820:	a0 91 8e 01 	lds	r26, 0x018E	; 0x80018e <Cfg+0x8>
    3824:	b0 91 8f 01 	lds	r27, 0x018F	; 0x80018f <Cfg+0x9>
    3828:	0e 94 61 2d 	call	0x5ac2	; 0x5ac2 <__muluhisi3>
  Ugs /= 1024;                   /* using 10 bit resolution */
    382c:	20 e0       	ldi	r18, 0x00	; 0
    382e:	34 e0       	ldi	r19, 0x04	; 4
    3830:	40 e0       	ldi	r20, 0x00	; 0
    3832:	50 e0       	ldi	r21, 0x00	; 0
    3834:	0e 94 26 2d 	call	0x5a4c	; 0x5a4c <__divmodsi4>

  /* save data */
  Semi.U_2 = (int16_t)Ugs;       /* gate threshold voltage (in mV) */
    3838:	30 93 a4 01 	sts	0x01A4, r19	; 0x8001a4 <Semi+0xa>
    383c:	20 93 a3 01 	sts	0x01A3, r18	; 0x8001a3 <Semi+0x9>

  /* update reference source for next ADC run */
  Cfg.Ref = ADC_REF_VCC;         /* we've used Vcc as reference */
    3840:	80 e4       	ldi	r24, 0x40	; 64
    3842:	80 93 8b 01 	sts	0x018B, r24	; 0x80018b <Cfg+0x5>
}
    3846:	cd b7       	in	r28, 0x3d	; 61
    3848:	de b7       	in	r29, 0x3e	; 62
    384a:	eb e0       	ldi	r30, 0x0B	; 11
    384c:	0c 94 8f 2d 	jmp	0x5b1e	; 0x5b1e <__epilogue_restores__+0xe>
      while (ADC_PIN & Drain_ADC);
    }
    else                                /* p-channel */
    {
      /* FET conducts when the voltage at the drain reaches high level */
      while (!(ADC_PIN & Drain_ADC));             
    3850:	86 b1       	in	r24, 0x06	; 6
    3852:	8c 23       	and	r24, r28
    3854:	e9 f3       	breq	.-6      	; 0x3850 <GetGateThreshold+0xd4>
    3856:	c6 cf       	rjmp	.-116    	; 0x37e4 <GetGateThreshold+0x68>
    {
      Ugs += ADCW;                        /* Ugs = U_g */
    }
    else                                /* p-channel */
    {
      Ugs -= (1023 - ADCW);               /* Ugs = - (Vcc - U_g) */
    3858:	95 01       	movw	r18, r10
    385a:	28 1b       	sub	r18, r24
    385c:	39 0b       	sbc	r19, r25
    385e:	c2 1a       	sub	r12, r18
    3860:	d3 0a       	sbc	r13, r19
    3862:	e1 08       	sbc	r14, r1
    3864:	f1 08       	sbc	r15, r1
    3866:	d2 cf       	rjmp	.-92     	; 0x380c <GetGateThreshold+0x90>

00003868 <Get_hFE_C>:
 *  returns:
 *  - hFE
 */

uint32_t Get_hFE_C(uint8_t Type)
{
    3868:	b0 e0       	ldi	r27, 0x00	; 0
    386a:	a0 e0       	ldi	r26, 0x00	; 0
    386c:	ea e3       	ldi	r30, 0x3A	; 58
    386e:	fc e1       	ldi	r31, 0x1C	; 28
    3870:	0c 94 76 2d 	jmp	0x5aec	; 0x5aec <__prologue_saves__+0x14>
    3874:	18 2f       	mov	r17, r24
    3876:	90 91 bd 01 	lds	r25, 0x01BD	; 0x8001bd <Probes+0x8>

  /*
   *  set up probes and get voltages using Rl as base resistor
   */

  if (Type == TYPE_NPN)            /* NPN */
    387a:	81 30       	cpi	r24, 0x01	; 1
    387c:	09 f0       	breq	.+2      	; 0x3880 <Get_hFE_C+0x18>
    387e:	6f c0       	rjmp	.+222    	; 0x395e <Get_hFE_C+0xf6>
  {
    /* we assume: probe-1 = C / probe-2 = E / probe-3 = B */
    /* set probes: Gnd -- Rl -- probe-2 / probe-1 -- Vcc / probe-3 -- Rl -- Vcc */
    ADC_DDR = Probes.Pin_1;             /* set probe-1 to output */
    3880:	80 91 c1 01 	lds	r24, 0x01C1	; 0x8001c1 <Probes+0xc>
    3884:	87 b9       	out	0x07, r24	; 7
    ADC_PORT = Probes.Pin_1;            /* pull up collector directly */
    3886:	88 b9       	out	0x08, r24	; 8
    R_DDR = Probes.Rl_2 | Probes.Rl_3;  /* select Rl for probe-2 & Rl for probe-3 */
    3888:	80 91 bc 01 	lds	r24, 0x01BC	; 0x8001bc <Probes+0x7>
    388c:	89 2b       	or	r24, r25
    388e:	8a b9       	out	0x0a, r24	; 10
    R_PORT = Probes.Rl_3;               /* pull up base via Rl */
    3890:	9b b9       	out	0x0b, r25	; 11

    U_R_e = ReadU_5ms(Probes.Ch_2);          /* U_R_e = U_e */
    3892:	80 91 c5 01 	lds	r24, 0x01C5	; 0x8001c5 <Probes+0x10>
    3896:	0e 94 c1 0d 	call	0x1b82	; 0x1b82 <ReadU_5ms>
    389a:	7c 01       	movw	r14, r24
    U_R_b = Cfg.Vcc - ReadU(Probes.Ch_3);    /* U_R_b = Vcc - U_b */
    389c:	c0 91 8e 01 	lds	r28, 0x018E	; 0x80018e <Cfg+0x8>
    38a0:	d0 91 8f 01 	lds	r29, 0x018F	; 0x80018f <Cfg+0x9>
    38a4:	80 91 c6 01 	lds	r24, 0x01C6	; 0x8001c6 <Probes+0x11>
    38a8:	0e 94 61 0d 	call	0x1ac2	; 0x1ac2 <ReadU>
    38ac:	c8 1b       	sub	r28, r24
    38ae:	d9 0b       	sbc	r29, r25
   *  Both resistors are about the same (R_e = R_b): 
   *  - hFE = ((U_R_e / R_e) - (U_R_b / R_b)) / (U_R_b / R_b)
   *  -     = (U_R_e - U_R_b) / U_R_b 
   */

  if (U_R_b == 0) U_R_b = 1;            /* prevent division by zero */
    38b0:	20 97       	sbiw	r28, 0x00	; 0
    38b2:	11 f4       	brne	.+4      	; 0x38b8 <Get_hFE_C+0x50>
    38b4:	c1 e0       	ldi	r28, 0x01	; 1
    38b6:	d0 e0       	ldi	r29, 0x00	; 0

  hFE = (uint32_t)((U_R_e - U_R_b) / U_R_b);
    38b8:	c7 01       	movw	r24, r14
    38ba:	8c 1b       	sub	r24, r28
    38bc:	9d 0b       	sbc	r25, r29
    38be:	be 01       	movw	r22, r28
    38c0:	0e 94 dc 2c 	call	0x59b8	; 0x59b8 <__udivmodhi4>
    38c4:	6b 01       	movw	r12, r22
    38c6:	f1 2c       	mov	r15, r1
    38c8:	e1 2c       	mov	r14, r1
  /*
   *  for a possible high gain BJT or Darlington change the base resistor
   *  from Rl to Rh and measure again
   */

  if (U_R_b <= 15)            /* I_b <= 21 ÁA */
    38ca:	60 97       	sbiw	r28, 0x10	; 16
    38cc:	08 f0       	brcs	.+2      	; 0x38d0 <Get_hFE_C+0x68>
    38ce:	40 c0       	rjmp	.+128    	; 0x3950 <Get_hFE_C+0xe8>
    38d0:	80 91 c0 01 	lds	r24, 0x01C0	; 0x8001c0 <Probes+0xb>
  {
    if (Type == TYPE_NPN)          /* NPN */
    38d4:	11 30       	cpi	r17, 0x01	; 1
    38d6:	09 f0       	breq	.+2      	; 0x38da <Get_hFE_C+0x72>
    38d8:	5b c0       	rjmp	.+182    	; 0x3990 <Get_hFE_C+0x128>
    {
      /* change probes: probe-3 -- Rh -- Vcc */
      R_DDR = Probes.Rl_2 | Probes.Rh_3;     /* select Rl for probe-2 & Rh for probe-3 */
    38da:	90 91 bc 01 	lds	r25, 0x01BC	; 0x8001bc <Probes+0x7>
    38de:	98 2b       	or	r25, r24
    38e0:	9a b9       	out	0x0a, r25	; 10
      R_PORT = Probes.Rh_3;                  /* pull up base via Rh */
    38e2:	8b b9       	out	0x0b, r24	; 11

      U_R_e = ReadU_5ms(Probes.Ch_2);             /* U_R_e = U_e */
    38e4:	80 91 c5 01 	lds	r24, 0x01C5	; 0x8001c5 <Probes+0x10>
    38e8:	0e 94 c1 0d 	call	0x1b82	; 0x1b82 <ReadU_5ms>
    38ec:	8c 01       	movw	r16, r24
      U_R_b = Cfg.Vcc - ReadU(Probes.Ch_3);       /* U_R_b = Vcc - U_b */
    38ee:	c0 91 8e 01 	lds	r28, 0x018E	; 0x80018e <Cfg+0x8>
    38f2:	d0 91 8f 01 	lds	r29, 0x018F	; 0x80018f <Cfg+0x9>
    38f6:	80 91 c6 01 	lds	r24, 0x01C6	; 0x8001c6 <Probes+0x11>
    38fa:	0e 94 61 0d 	call	0x1ac2	; 0x1ac2 <ReadU>
    38fe:	fe 01       	movw	r30, r28
    3900:	e8 1b       	sub	r30, r24
    3902:	f9 0b       	sbc	r31, r25

      #ifdef SW_HFE_CURRENT
      I_e = (int32_t)U_R_e;             /* U_R_e (mV) */
      #endif

      Ri = NV.RiL;                      /* get internal resistance */
    3904:	c0 91 c7 01 	lds	r28, 0x01C7	; 0x8001c7 <NV>
    3908:	d0 91 c8 01 	lds	r29, 0x01C8	; 0x8001c8 <NV+0x1>
     *  hFE = I_e / I_b
     *      = (U_R_e / R_e) / (U_R_b / R_b)
     *      = (U_R_e * R_b) / (U_R_b * R_e)
     */

    if (U_R_b == 0) U_R_b = 1;          /* prevent division by zero */
    390c:	30 97       	sbiw	r30, 0x00	; 0
    390e:	11 f4       	brne	.+4      	; 0x3914 <Get_hFE_C+0xac>
    3910:	e1 e0       	ldi	r30, 0x01	; 1
    3912:	f0 e0       	ldi	r31, 0x00	; 0
    hFE2 = U_R_e * R_HIGH;              /* U_R_e * R_b */
    3914:	d8 01       	movw	r26, r16
    3916:	20 ef       	ldi	r18, 0xF0	; 240
    3918:	3b e2       	ldi	r19, 0x2B	; 43
    391a:	47 e0       	ldi	r20, 0x07	; 7
    391c:	50 e0       	ldi	r21, 0x00	; 0
    391e:	0e 94 61 2d 	call	0x5ac2	; 0x5ac2 <__muluhisi3>
    hFE2 /= U_R_b;                      /* / U_R_b */
    3922:	9f 01       	movw	r18, r30
    3924:	50 e0       	ldi	r21, 0x00	; 0
    3926:	40 e0       	ldi	r20, 0x00	; 0
    3928:	0e 94 04 2d 	call	0x5a08	; 0x5a08 <__udivmodsi4>
    hFE2 *= 10;                         /* upscale to 0.1 */
    392c:	aa e0       	ldi	r26, 0x0A	; 10
    392e:	b0 e0       	ldi	r27, 0x00	; 0
    3930:	0e 94 61 2d 	call	0x5ac2	; 0x5ac2 <__muluhisi3>
    Ri += (R_LOW * 10);                 /* R_e = Ri + Rl (in 0.1 Ohms) */
    3934:	c0 57       	subi	r28, 0x70	; 112
    3936:	d5 4e       	sbci	r29, 0xE5	; 229
    hFE2 /= Ri;                         /* / R_e in 0.1 Ohms */
    3938:	9e 01       	movw	r18, r28
    393a:	50 e0       	ldi	r21, 0x00	; 0
    393c:	40 e0       	ldi	r20, 0x00	; 0
    393e:	0e 94 04 2d 	call	0x5a08	; 0x5a08 <__udivmodsi4>
    3942:	c2 16       	cp	r12, r18
    3944:	d3 06       	cpc	r13, r19
    3946:	e4 06       	cpc	r14, r20
    3948:	f5 06       	cpc	r15, r21
    394a:	10 f4       	brcc	.+4      	; 0x3950 <Get_hFE_C+0xe8>
    394c:	69 01       	movw	r12, r18
    394e:	7a 01       	movw	r14, r20
  #endif

  #endif

  return hFE;
}
    3950:	c7 01       	movw	r24, r14
    3952:	b6 01       	movw	r22, r12
    3954:	cd b7       	in	r28, 0x3d	; 61
    3956:	de b7       	in	r29, 0x3e	; 62
    3958:	e8 e0       	ldi	r30, 0x08	; 8
    395a:	0c 94 92 2d 	jmp	0x5b24	; 0x5b24 <__epilogue_restores__+0x14>
  }
  else                             /* PNP */
  {
    /* we assume: probe-1 = E / probe-2 = C / probe-3 = B */
    /* set probes: Gnd -- probe-2 / probe-1 -- Rl -- Vcc / Gnd -- Rl -- probe-3 */
    ADC_PORT = 0;                       /* set ADC port low */
    395e:	18 b8       	out	0x08, r1	; 8
    ADC_DDR = Probes.Pin_2;             /* pull down collector directly */
    3960:	80 91 c2 01 	lds	r24, 0x01C2	; 0x8001c2 <Probes+0xd>
    3964:	87 b9       	out	0x07, r24	; 7
    R_PORT = Probes.Rl_1;               /* pull up emitter via Rl */
    3966:	80 91 bb 01 	lds	r24, 0x01BB	; 0x8001bb <Probes+0x6>
    396a:	8b b9       	out	0x0b, r24	; 11
    R_DDR = Probes.Rl_1 | Probes.Rl_3;  /* pull down base via Rl */
    396c:	89 2b       	or	r24, r25
    396e:	8a b9       	out	0x0a, r24	; 10

    U_R_e = Cfg.Vcc - ReadU_5ms(Probes.Ch_1);     /* U_R_e = Vcc - U_e */
    3970:	e0 90 8e 01 	lds	r14, 0x018E	; 0x80018e <Cfg+0x8>
    3974:	f0 90 8f 01 	lds	r15, 0x018F	; 0x80018f <Cfg+0x9>
    3978:	80 91 c4 01 	lds	r24, 0x01C4	; 0x8001c4 <Probes+0xf>
    397c:	0e 94 c1 0d 	call	0x1b82	; 0x1b82 <ReadU_5ms>
    3980:	e8 1a       	sub	r14, r24
    3982:	f9 0a       	sbc	r15, r25
    U_R_b = ReadU(Probes.Ch_3);                   /* U_R_b = U_b */
    3984:	80 91 c6 01 	lds	r24, 0x01C6	; 0x8001c6 <Probes+0x11>
    3988:	0e 94 61 0d 	call	0x1ac2	; 0x1ac2 <ReadU>
    398c:	ec 01       	movw	r28, r24
    398e:	90 cf       	rjmp	.-224    	; 0x38b0 <Get_hFE_C+0x48>
      Ri = NV.RiL;                      /* get internal resistance */
    }
    else                           /* PNP */
    {
      /* change probes: Gnd -- Rh -- probe-3 */
      R_DDR = Probes.Rl_1 | Probes.Rh_3;     /* pull down base via Rh */
    3990:	90 91 bb 01 	lds	r25, 0x01BB	; 0x8001bb <Probes+0x6>
    3994:	89 2b       	or	r24, r25
    3996:	8a b9       	out	0x0a, r24	; 10

      U_R_e = Cfg.Vcc - ReadU_5ms(Probes.Ch_1);   /* U_R_e = Vcc - U_e */
    3998:	00 91 8e 01 	lds	r16, 0x018E	; 0x80018e <Cfg+0x8>
    399c:	10 91 8f 01 	lds	r17, 0x018F	; 0x80018f <Cfg+0x9>
    39a0:	80 91 c4 01 	lds	r24, 0x01C4	; 0x8001c4 <Probes+0xf>
    39a4:	0e 94 c1 0d 	call	0x1b82	; 0x1b82 <ReadU_5ms>
    39a8:	08 1b       	sub	r16, r24
    39aa:	19 0b       	sbc	r17, r25
      U_R_b = ReadU(Probes.Ch_3);                 /* U_R_b = U_b */
    39ac:	80 91 c6 01 	lds	r24, 0x01C6	; 0x8001c6 <Probes+0x11>
    39b0:	0e 94 61 0d 	call	0x1ac2	; 0x1ac2 <ReadU>
    39b4:	fc 01       	movw	r30, r24

      #ifdef SW_HFE_CURRENT
      I_e = -(int32_t)U_R_e;            /* negative U_R_e (mV) */
      #endif

      Ri = NV.RiH;                      /* get internal resistance */
    39b6:	c0 91 c9 01 	lds	r28, 0x01C9	; 0x8001c9 <NV+0x2>
    39ba:	d0 91 ca 01 	lds	r29, 0x01CA	; 0x8001ca <NV+0x3>
    39be:	a6 cf       	rjmp	.-180    	; 0x390c <Get_hFE_C+0xa4>

000039c0 <CheckTransistor>:
 *  - BJT_Type: NPN or PNP (also used for FET channel type)
 *  - U_Rl: voltage across Rl pulled down
 */

void CheckTransistor(uint8_t BJT_Type, uint16_t U_Rl)
{
    39c0:	b0 e0       	ldi	r27, 0x00	; 0
    39c2:	a0 e0       	ldi	r26, 0x00	; 0
    39c4:	e6 ee       	ldi	r30, 0xE6	; 230
    39c6:	fc e1       	ldi	r31, 0x1C	; 28
    39c8:	0c 94 6e 2d 	jmp	0x5adc	; 0x5adc <__prologue_saves__+0x4>
    39cc:	f8 2e       	mov	r15, r24
    39ce:	5b 01       	movw	r10, r22

  /*
   *  init, set probes and measure
   */

  BackupProbes();             /* save current probe IDs */
    39d0:	0e 94 3f 0e 	call	0x1c7e	; 0x1c7e <BackupProbes>
    39d4:	90 91 c0 01 	lds	r25, 0x01C0	; 0x8001c0 <Probes+0xb>

  if (BJT_Type == TYPE_NPN)   /* NPN / n-channel */
    39d8:	21 e0       	ldi	r18, 0x01	; 1
    39da:	f2 12       	cpse	r15, r18
    39dc:	df c0       	rjmp	.+446    	; 0x3b9c <CheckTransistor+0x1dc>
     *  probes already set to:
     *    Gnd -- probe-2 / probe-1 -- Rl -- Vcc / (probe-3 -- Rl -- Vcc)
     *  drive base/gate via Rh instead of Rl
     */

    R_DDR = Probes.Rl_1 | Probes.Rh_3;       /* enable Rl for probe-1 & Rh for probe-3 */
    39de:	80 91 bb 01 	lds	r24, 0x01BB	; 0x8001bb <Probes+0x6>
    39e2:	89 2b       	or	r24, r25
    39e4:	8a b9       	out	0x0a, r24	; 10
    R_PORT = Probes.Rl_1 | Probes.Rh_3;      /* pull up collector via Rl and base via Rh */
    39e6:	8b b9       	out	0x0b, r24	; 11
    wait50ms();                              /* wait to skip gate charging of a FET */
    39e8:	0e 94 24 2b 	call	0x5648	; 0x5648 <wait50ms>
    U_R_c = Cfg.Vcc - ReadU(Probes.Ch_1);    /* U_R_c = Vcc - U_c */ 
    39ec:	c0 91 8e 01 	lds	r28, 0x018E	; 0x80018e <Cfg+0x8>
    39f0:	d0 91 8f 01 	lds	r29, 0x018F	; 0x80018f <Cfg+0x9>
    39f4:	80 91 c4 01 	lds	r24, 0x01C4	; 0x8001c4 <Probes+0xf>
    39f8:	0e 94 61 0d 	call	0x1ac2	; 0x1ac2 <ReadU>
    39fc:	c8 1b       	sub	r28, r24
    39fe:	d9 0b       	sbc	r29, r25
    U_R_b = Cfg.Vcc - ReadU(Probes.Ch_3);    /* U_R_b = Vcc - U_b */
    3a00:	00 91 8e 01 	lds	r16, 0x018E	; 0x80018e <Cfg+0x8>
    3a04:	10 91 8f 01 	lds	r17, 0x018F	; 0x80018f <Cfg+0x9>
    3a08:	80 91 c6 01 	lds	r24, 0x01C6	; 0x8001c6 <Probes+0x11>
    3a0c:	0e 94 61 0d 	call	0x1ac2	; 0x1ac2 <ReadU>
    3a10:	f8 01       	movw	r30, r16
    3a12:	e8 1b       	sub	r30, r24
    3a14:	f9 0b       	sbc	r31, r25

    #ifdef SW_HFE_CURRENT
    I_c = (int32_t)U_R_c;          /* U_R_c (mV) */
    #endif

    Ri = NV.RiH;                   /* RiH (0.1 Ohms) */
    3a16:	c0 90 c9 01 	lds	r12, 0x01C9	; 0x8001c9 <NV+0x2>
    3a1a:	d0 90 ca 01 	lds	r13, 0x01CA	; 0x8001ca <NV+0x3>

  if (BJT_Type == TYPE_NPN)   /* NPN / n-channel */
  {
    BJT_Level = 2557;         /* voltage across base resistor (5.44ÁA) */
    FET_Level = 3400;         /* voltage across drain resistor (4.8mA) */
    FET_Type = TYPE_N_CHANNEL;
    3a1e:	11 e0       	ldi	r17, 0x01	; 1
  BackupProbes();             /* save current probe IDs */

  if (BJT_Type == TYPE_NPN)   /* NPN / n-channel */
  {
    BJT_Level = 2557;         /* voltage across base resistor (5.44ÁA) */
    FET_Level = 3400;         /* voltage across drain resistor (4.8mA) */
    3a20:	88 e4       	ldi	r24, 0x48	; 72
    3a22:	9d e0       	ldi	r25, 0x0D	; 13

  BackupProbes();             /* save current probe IDs */

  if (BJT_Type == TYPE_NPN)   /* NPN / n-channel */
  {
    BJT_Level = 2557;         /* voltage across base resistor (5.44ÁA) */
    3a24:	2d ef       	ldi	r18, 0xFD	; 253
    3a26:	39 e0       	ldi	r19, 0x09	; 9

  /*
   *  distinguish BJT from enhancement-mode MOSFET or IGBT
   */

  if (U_R_b > BJT_Level)      /* U_R_b exceeds minimum level of BJT */
    3a28:	2e 17       	cp	r18, r30
    3a2a:	3f 07       	cpc	r19, r31
    3a2c:	08 f0       	brcs	.+2      	; 0x3a30 <CheckTransistor+0x70>
    3a2e:	e4 c0       	rjmp	.+456    	; 0x3bf8 <CheckTransistor+0x238>
     *  hFE. A freewheeling diode might prevent one test run.
     *  Another possible solution: V_f for collector junction is slightly
     *  lower than for emitter junction (larger area for collector -> lower R).
     */

    if (Check.Found == COMP_BJT)        /* second test run */
    3a30:	80 91 01 01 	lds	r24, 0x0101	; 0x800101 <Check>
    3a34:	8e 31       	cpi	r24, 0x1E	; 30
    3a36:	09 f0       	breq	.+2      	; 0x3a3a <CheckTransistor+0x7a>
    3a38:	c9 c0       	rjmp	.+402    	; 0x3bcc <CheckTransistor+0x20c>
      /*
       *  If the type is different from the one in the first run, we have
       *  a parasitic BJT (caused by a freewheeling diode on the same substrate).
       */

      if (!(Check.Type & BJT_Type))     /* different type */
    3a3a:	80 91 02 01 	lds	r24, 0x0102	; 0x800102 <Check+0x1>
    3a3e:	98 2f       	mov	r25, r24
    3a40:	9f 21       	and	r25, r15
      {
        Check.Type |= TYPE_PARASITIC;   /* set flag */
    3a42:	84 60       	ori	r24, 0x04	; 4
      /*
       *  If the type is different from the one in the first run, we have
       *  a parasitic BJT (caused by a freewheeling diode on the same substrate).
       */

      if (!(Check.Type & BJT_Type))     /* different type */
    3a44:	99 23       	and	r25, r25
    3a46:	61 f0       	breq	.+24     	; 0x3a60 <CheckTransistor+0xa0>
       *  If we have an NPN and the collector/emitter pins are the same for both
       *  test runs we could have a TRIAC which wasn't detected (sufficient gate
       *  trigger current, but insufficient holding current).
       */

      else if (BJT_Type == TYPE_NPN)   /* same type and NPN */
    3a48:	81 e0       	ldi	r24, 0x01	; 1
    3a4a:	f8 12       	cpse	r15, r24
    3a4c:	0b c0       	rjmp	.+22     	; 0x3a64 <CheckTransistor+0xa4>
      {
        if (Semi.B == Probes.ID_1)     /* same pin for collector */
    3a4e:	90 91 9b 01 	lds	r25, 0x019B	; 0x80019b <Semi+0x1>
    3a52:	80 91 b5 01 	lds	r24, 0x01B5	; 0x8001b5 <Probes>
    3a56:	98 13       	cpse	r25, r24
    3a58:	05 c0       	rjmp	.+10     	; 0x3a64 <CheckTransistor+0xa4>
        {
          /* possibly a TRIAC with a too high holding current */
          Check.Found = COMP_ERROR;     /* signal error */
    3a5a:	f0 92 01 01 	sts	0x0101, r15	; 0x800101 <Check>
          Check.Type = TYPE_DETECTION;  /* detection problem */
    3a5e:	82 e0       	ldi	r24, 0x02	; 2
    3a60:	80 93 02 01 	sts	0x0102, r24	; 0x800102 <Check+0x1>
        }
      }

      Check.Done |= DONE_SEMI;          /* no more tests needed */
    3a64:	80 91 03 01 	lds	r24, 0x0103	; 0x800103 <Check+0x2>
    3a68:	81 60       	ori	r24, 0x01	; 1
    3a6a:	80 93 03 01 	sts	0x0103, r24	; 0x800103 <Check+0x2>
     *        = (U_R_c_conducting - U_R_c_leak) / R_c
     *    -> U_R_c = U_R_c_conducting - U_R_c_leak
     *             = U_R_c_conducting - U_Rl
     */

    if (U_R_c > U_Rl) U_R_c -= U_Rl;    /* - U_Rl (leakage) */
    3a6e:	ac 16       	cp	r10, r28
    3a70:	bd 06       	cpc	r11, r29
    3a72:	10 f4       	brcc	.+4      	; 0x3a78 <CheckTransistor+0xb8>
    3a74:	ca 19       	sub	r28, r10
    3a76:	db 09       	sbc	r29, r11
    hFE_E = U_R_c * R_HIGH;             /* U_R_c * R_b */
    3a78:	de 01       	movw	r26, r28
    3a7a:	20 ef       	ldi	r18, 0xF0	; 240
    3a7c:	3b e2       	ldi	r19, 0x2B	; 43
    3a7e:	47 e0       	ldi	r20, 0x07	; 7
    3a80:	50 e0       	ldi	r21, 0x00	; 0
    3a82:	0e 94 61 2d 	call	0x5ac2	; 0x5ac2 <__muluhisi3>
    hFE_E /= U_R_b;                     /* / U_R_b */
    3a86:	9f 01       	movw	r18, r30
    3a88:	50 e0       	ldi	r21, 0x00	; 0
    3a8a:	40 e0       	ldi	r20, 0x00	; 0
    3a8c:	0e 94 04 2d 	call	0x5a08	; 0x5a08 <__udivmodsi4>
    hFE_E *= 10;                        /* upscale to 0.1 */
    3a90:	aa e0       	ldi	r26, 0x0A	; 10
    3a92:	b0 e0       	ldi	r27, 0x00	; 0
    3a94:	0e 94 61 2d 	call	0x5ac2	; 0x5ac2 <__muluhisi3>
    Ri += (R_LOW * 10);                 /* R_c = Ri + Rl (in 0.1 Ohms) */
    3a98:	20 e7       	ldi	r18, 0x70	; 112
    3a9a:	c2 1a       	sub	r12, r18
    3a9c:	25 ee       	ldi	r18, 0xE5	; 229
    3a9e:	d2 0a       	sbc	r13, r18
    hFE_E /= Ri;                        /* / R_c in 0.1 Ohms */
    3aa0:	96 01       	movw	r18, r12
    3aa2:	50 e0       	ldi	r21, 0x00	; 0
    3aa4:	40 e0       	ldi	r20, 0x00	; 0
    3aa6:	0e 94 04 2d 	call	0x5a08	; 0x5a08 <__udivmodsi4>
    3aaa:	29 01       	movw	r4, r18
    3aac:	3a 01       	movw	r6, r20
    I_c *= 10000;                  /* scale to 0.1 ÁV (for ÁA and Ri's 0.1 Ohms */
    I_c /= Ri;                     /* / (Rl + Ri) */
    #endif

    /* get hFE for common collector circuit */
    hFE_C = Get_hFE_C(BJT_Type);
    3aae:	8f 2d       	mov	r24, r15
    3ab0:	0e 94 34 1c 	call	0x3868	; 0x3868 <Get_hFE_C>
    3ab4:	4b 01       	movw	r8, r22
    3ab6:	5c 01       	movw	r10, r24

    /* keep higher hFE of both test circuits */
    if (hFE_C > hFE_E)                  /* hFE_C larger */
    {
      hFE_E = hFE_C;                    /* take hFE_C */
      Flag = HFE_COMMON_COLLECTOR;      /* common collector circuit */
    3ab8:	c2 e0       	ldi	r28, 0x02	; 2

    /* get hFE for common collector circuit */
    hFE_C = Get_hFE_C(BJT_Type);

    /* keep higher hFE of both test circuits */
    if (hFE_C > hFE_E)                  /* hFE_C larger */
    3aba:	48 14       	cp	r4, r8
    3abc:	59 04       	cpc	r5, r9
    3abe:	6a 04       	cpc	r6, r10
    3ac0:	7b 04       	cpc	r7, r11
    3ac2:	18 f0       	brcs	.+6      	; 0x3aca <CheckTransistor+0x10a>
    3ac4:	53 01       	movw	r10, r6
    3ac6:	42 01       	movw	r8, r4
    hFE_E /= U_R_b;                     /* / U_R_b */
    hFE_E *= 10;                        /* upscale to 0.1 */
    Ri += (R_LOW * 10);                 /* R_c = Ri + Rl (in 0.1 Ohms) */
    hFE_E /= Ri;                        /* / R_c in 0.1 Ohms */

    Flag = HFE_COMMON_EMITTER;          /* common emitter circuit */
    3ac8:	c1 e0       	ldi	r28, 0x01	; 1
    }

    /* update logic */
    FET_Type = 0;             /* use as update flag */

    if (hFE_E > Semi.F_1)     /* hFE not set yet or higher than old one */
    3aca:	40 90 a7 01 	lds	r4, 0x01A7	; 0x8001a7 <Semi+0xd>
    3ace:	50 90 a8 01 	lds	r5, 0x01A8	; 0x8001a8 <Semi+0xe>
    3ad2:	60 90 a9 01 	lds	r6, 0x01A9	; 0x8001a9 <Semi+0xf>
    3ad6:	70 90 aa 01 	lds	r7, 0x01AA	; 0x8001aa <Semi+0x10>
    3ada:	80 91 b7 01 	lds	r24, 0x01B7	; 0x8001b7 <Probes+0x2>
    /*
     *  parasitic BJT
     */

    /* measure Base-Emitter capacitance */
    if (BJT_Type == TYPE_NPN)           /* NPN */
    3ade:	91 e0       	ldi	r25, 0x01	; 1
    {
      MeasureCap(Probes.ID_2, Probes.ID_3, 0);    /* E-B */
    3ae0:	40 e0       	ldi	r20, 0x00	; 0
    }
    else                                /* PNP */
    {
      MeasureCap(Probes.ID_3, Probes.ID_1, 0);    /* B-E */
    3ae2:	60 91 b5 01 	lds	r22, 0x01B5	; 0x8001b5 <Probes>
    /*
     *  parasitic BJT
     */

    /* measure Base-Emitter capacitance */
    if (BJT_Type == TYPE_NPN)           /* NPN */
    3ae6:	f9 12       	cpse	r15, r25
    3ae8:	03 c0       	rjmp	.+6      	; 0x3af0 <CheckTransistor+0x130>
    {
      MeasureCap(Probes.ID_2, Probes.ID_3, 0);    /* E-B */
    3aea:	68 2f       	mov	r22, r24
    3aec:	80 91 b6 01 	lds	r24, 0x01B6	; 0x8001b6 <Probes+0x1>
    }
    else                                /* PNP */
    {
      MeasureCap(Probes.ID_3, Probes.ID_1, 0);    /* B-E */
    3af0:	0e 94 59 19 	call	0x32b2	; 0x32b2 <MeasureCap>
    }

    RestoreProbes();               /* restore original probe IDs */
    3af4:	0e 94 37 0e 	call	0x1c6e	; 0x1c6e <RestoreProbes>

    if (Check.Type & TYPE_PARASITIC)    /* parasitic BJT */
    3af8:	80 91 02 01 	lds	r24, 0x0102	; 0x800102 <Check+0x1>
    3afc:	82 ff       	sbrs	r24, 2
    3afe:	6c c0       	rjmp	.+216    	; 0x3bd8 <CheckTransistor+0x218>
      /*
       *  Detect the correct type:
       *  - The correct type has a larger Base-Emitter capacitance.
       */

      if (CmpValue(Semi.C_value, Semi.C_scale, Caps[0].Value, Caps[0].Scale) == 1)   
    3b00:	00 91 3b 01 	lds	r16, 0x013B	; 0x80013b <Caps+0x3>
    3b04:	10 91 3c 01 	lds	r17, 0x013C	; 0x80013c <Caps+0x4>
    3b08:	20 91 3d 01 	lds	r18, 0x013D	; 0x80013d <Caps+0x5>
    3b0c:	30 91 3e 01 	lds	r19, 0x013E	; 0x80013e <Caps+0x6>
    3b10:	60 91 b0 01 	lds	r22, 0x01B0	; 0x8001b0 <Semi+0x16>
    3b14:	70 91 b1 01 	lds	r23, 0x01B1	; 0x8001b1 <Semi+0x17>
    3b18:	80 91 b2 01 	lds	r24, 0x01B2	; 0x8001b2 <Semi+0x18>
    3b1c:	90 91 b3 01 	lds	r25, 0x01B3	; 0x8001b3 <Semi+0x19>
    3b20:	e0 90 3a 01 	lds	r14, 0x013A	; 0x80013a <Caps+0x2>
    3b24:	40 91 b4 01 	lds	r20, 0x01B4	; 0x8001b4 <Semi+0x1a>
    3b28:	0e 94 a6 06 	call	0xd4c	; 0xd4c <CmpValue>
    3b2c:	81 30       	cpi	r24, 0x01	; 1
    3b2e:	09 f4       	brne	.+2      	; 0x3b32 <CheckTransistor+0x172>
    3b30:	59 c0       	rjmp	.+178    	; 0x3be4 <CheckTransistor+0x224>
      }
      else
      {
        /* C_BE of old type is lower -> take the new type */
        FET_Type = 1;                             /* update data */
        Check.Type = BJT_Type | TYPE_PARASITIC;   /* update type */
    3b32:	8f 2d       	mov	r24, r15
    3b34:	84 60       	ori	r24, 0x04	; 4
    3b36:	80 93 02 01 	sts	0x0102, r24	; 0x800102 <Check+0x1>
     *  update data
     */

    if (FET_Type > 0)              /* update requested */
    {
      GetLeakageCurrent(0);             /* get leakage current */
    3b3a:	80 e0       	ldi	r24, 0x00	; 0
    3b3c:	0e 94 33 1a 	call	0x3466	; 0x3466 <GetLeakageCurrent>

      /* save data */
      Semi.F_1 = hFE_E;                 /* hFE */
    3b40:	80 92 a7 01 	sts	0x01A7, r8	; 0x8001a7 <Semi+0xd>
    3b44:	90 92 a8 01 	sts	0x01A8, r9	; 0x8001a8 <Semi+0xe>
    3b48:	a0 92 a9 01 	sts	0x01A9, r10	; 0x8001a9 <Semi+0xf>
    3b4c:	b0 92 aa 01 	sts	0x01AA, r11	; 0x8001aa <Semi+0x10>
      Semi.Flags = Flag;                /* hFE circuit type */
    3b50:	c0 93 a0 01 	sts	0x01A0, r28	; 0x8001a0 <Semi+0x6>
      #ifdef SW_HFE_CURRENT
      Semi.U_3 = (int16_t)I_c;          /* I_c/I_e (in ÁA) */
      #endif
      Semi.C_value = Caps[0].Value;     /* B-E/E-B capacitance */
    3b54:	80 91 3b 01 	lds	r24, 0x013B	; 0x80013b <Caps+0x3>
    3b58:	90 91 3c 01 	lds	r25, 0x013C	; 0x80013c <Caps+0x4>
    3b5c:	a0 91 3d 01 	lds	r26, 0x013D	; 0x80013d <Caps+0x5>
    3b60:	b0 91 3e 01 	lds	r27, 0x013E	; 0x80013e <Caps+0x6>
    3b64:	80 93 b0 01 	sts	0x01B0, r24	; 0x8001b0 <Semi+0x16>
    3b68:	90 93 b1 01 	sts	0x01B1, r25	; 0x8001b1 <Semi+0x17>
    3b6c:	a0 93 b2 01 	sts	0x01B2, r26	; 0x8001b2 <Semi+0x18>
    3b70:	b0 93 b3 01 	sts	0x01B3, r27	; 0x8001b3 <Semi+0x19>
      Semi.C_scale = Caps[0].Scale;
    3b74:	80 91 3a 01 	lds	r24, 0x013A	; 0x80013a <Caps+0x2>
    3b78:	80 93 b4 01 	sts	0x01B4, r24	; 0x8001b4 <Semi+0x1a>
      Semi.A = Probes.ID_3;             /* probe ID for base */
    3b7c:	80 91 b7 01 	lds	r24, 0x01B7	; 0x8001b7 <Probes+0x2>
    3b80:	80 93 9a 01 	sts	0x019A, r24	; 0x80019a <Semi>
    3b84:	80 91 b5 01 	lds	r24, 0x01B5	; 0x8001b5 <Probes>
    3b88:	90 91 b6 01 	lds	r25, 0x01B6	; 0x8001b6 <Probes+0x1>

      /* update Collector and Emitter pins */
      if (BJT_Type == TYPE_NPN)    /* NPN */
    3b8c:	21 e0       	ldi	r18, 0x01	; 1
    3b8e:	f2 12       	cpse	r15, r18
    3b90:	2e c0       	rjmp	.+92     	; 0x3bee <CheckTransistor+0x22e>
      {
        Semi.B = Probes.ID_1;      /* probe ID for collector */
    3b92:	80 93 9b 01 	sts	0x019B, r24	; 0x80019b <Semi+0x1>
        Semi.C = Probes.ID_2;      /* probe ID for emitter */
    3b96:	90 93 9c 01 	sts	0x019C, r25	; 0x80019c <Semi+0x2>
    3b9a:	24 c0       	rjmp	.+72     	; 0x3be4 <CheckTransistor+0x224>
     *  probes already set to:
     *    Gnd -- Rl - probe-2 / probe-1 -- Vcc / (probe-3 -- Rl -- Gnd)
     *  drive base/gate via Rh instead of Rl
     */

    R_DDR = Probes.Rl_2 | Probes.Rh_3;  /* pull down base via Rh */
    3b9c:	80 91 bc 01 	lds	r24, 0x01BC	; 0x8001bc <Probes+0x7>
    3ba0:	89 2b       	or	r24, r25
    3ba2:	8a b9       	out	0x0a, r24	; 10
    U_R_c = ReadU_5ms(Probes.Ch_2);     /* U_R_c = U_c */
    3ba4:	80 91 c5 01 	lds	r24, 0x01C5	; 0x8001c5 <Probes+0x10>
    3ba8:	0e 94 c1 0d 	call	0x1b82	; 0x1b82 <ReadU_5ms>
    3bac:	ec 01       	movw	r28, r24
    U_R_b = ReadU(Probes.Ch_3);         /* U_R_b = U_b */
    3bae:	80 91 c6 01 	lds	r24, 0x01C6	; 0x8001c6 <Probes+0x11>
    3bb2:	0e 94 61 0d 	call	0x1ac2	; 0x1ac2 <ReadU>
    3bb6:	fc 01       	movw	r30, r24

    #ifdef SW_HFE_CURRENT
    I_c = -(int32_t)U_R_c;         /* negative U_R_c (mV) */
    #endif

    Ri = NV.RiL;                   /* RiL (0.1 Ohms) */
    3bb8:	c0 90 c7 01 	lds	r12, 0x01C7	; 0x8001c7 <NV>
    3bbc:	d0 90 c8 01 	lds	r13, 0x01C8	; 0x8001c8 <NV+0x1>
    Ri = NV.RiH;                   /* RiH (0.1 Ohms) */
  }
  else                        /* PNP / p-channel */
  {
    BJT_Level = 977;          /* voltage across base resistor (2.1ÁA) */
    FET_Level = 2000;         /* voltage across drain resistor (2.8mA) */
    3bc0:	80 ed       	ldi	r24, 0xD0	; 208
    3bc2:	97 e0       	ldi	r25, 0x07	; 7

    Ri = NV.RiH;                   /* RiH (0.1 Ohms) */
  }
  else                        /* PNP / p-channel */
  {
    BJT_Level = 977;          /* voltage across base resistor (2.1ÁA) */
    3bc4:	21 ed       	ldi	r18, 0xD1	; 209
    3bc6:	33 e0       	ldi	r19, 0x03	; 3
    FET_Level = 2000;         /* voltage across drain resistor (2.8mA) */
    FET_Type = TYPE_P_CHANNEL;
    3bc8:	12 e0       	ldi	r17, 0x02	; 2
    3bca:	2e cf       	rjmp	.-420    	; 0x3a28 <CheckTransistor+0x68>

      Check.Done |= DONE_SEMI;          /* no more tests needed */
    }
    else                                /* first test run */
    {
      Check.Found = COMP_BJT;           /* seems to be a BJT */
    3bcc:	8e e1       	ldi	r24, 0x1E	; 30
    3bce:	80 93 01 01 	sts	0x0101, r24	; 0x800101 <Check>
      Check.Type = BJT_Type;            /* save BJT type */
    3bd2:	f0 92 02 01 	sts	0x0102, r15	; 0x800102 <Check+0x1>
    3bd6:	4b cf       	rjmp	.-362    	; 0x3a6e <CheckTransistor+0xae>

    /*
     *  update data
     */

    if (FET_Type > 0)              /* update requested */
    3bd8:	48 14       	cp	r4, r8
    3bda:	59 04       	cpc	r5, r9
    3bdc:	6a 04       	cpc	r6, r10
    3bde:	7b 04       	cpc	r7, r11
    3be0:	08 f4       	brcc	.+2      	; 0x3be4 <CheckTransistor+0x224>
    3be2:	ab cf       	rjmp	.-170    	; 0x3b3a <CheckTransistor+0x17a>
    MeasureCap(Semi.A, Semi.C, 0);      /* measure capacitance */
    Semi.C_value = Caps[0].Value;       /* save value */
    Semi.C_scale = Caps[0].Scale;
    RestoreProbes();                    /* restore original probe IDs */
  }
}
    3be4:	cd b7       	in	r28, 0x3d	; 61
    3be6:	de b7       	in	r29, 0x3e	; 62
    3be8:	e0 e1       	ldi	r30, 0x10	; 16
    3bea:	0c 94 8a 2d 	jmp	0x5b14	; 0x5b14 <__epilogue_restores__+0x4>
        Check.Symbol = SYMBOL_BJT_NPN;  /* set symbol ID */
        #endif
      }
      else                         /* PNP */
      {
        Semi.B = Probes.ID_2;      /* probe ID for collector */
    3bee:	90 93 9b 01 	sts	0x019B, r25	; 0x80019b <Semi+0x1>
        Semi.C = Probes.ID_1;      /* probe ID for emitter */
    3bf2:	80 93 9c 01 	sts	0x019C, r24	; 0x80019c <Semi+0x2>
    3bf6:	f6 cf       	rjmp	.-20     	; 0x3be4 <CheckTransistor+0x224>
        Check.Symbol = SYMBOL_BJT_PNP;  /* set symbol ID */
        #endif
      }
    }
  }
  else if ((U_Rl < 97) && (U_R_c > FET_Level))    /* MOSFET */
    3bf8:	21 e6       	ldi	r18, 0x61	; 97
    3bfa:	a2 16       	cp	r10, r18
    3bfc:	b1 04       	cpc	r11, r1
    3bfe:	90 f7       	brcc	.-28     	; 0x3be4 <CheckTransistor+0x224>
    3c00:	8c 17       	cp	r24, r28
    3c02:	9d 07       	cpc	r25, r29
    3c04:	78 f7       	brcc	.-34     	; 0x3be4 <CheckTransistor+0x224>
     *  while an IGBT acts more like a diode. So we measure the voltage drop
     *  across the conducting path. A MOSFET got a low voltage drop based on
     *  it's R_DS_on and the current. An IGBT got a much higher voltage drop.
     */

    FET_Level = ReadU(Probes.Ch_1) - ReadU(Probes.Ch_2);
    3c06:	80 91 c4 01 	lds	r24, 0x01C4	; 0x8001c4 <Probes+0xf>
    3c0a:	0e 94 61 0d 	call	0x1ac2	; 0x1ac2 <ReadU>
    3c0e:	6c 01       	movw	r12, r24
    3c10:	80 91 c5 01 	lds	r24, 0x01C5	; 0x8001c5 <Probes+0x10>
    3c14:	0e 94 61 0d 	call	0x1ac2	; 0x1ac2 <ReadU>
    3c18:	c8 1a       	sub	r12, r24
    3c1a:	d9 0a       	sbc	r13, r25

    if (FET_Level < 250)      /* MOSFET */
    3c1c:	8a ef       	ldi	r24, 0xFA	; 250
    3c1e:	c8 16       	cp	r12, r24
    3c20:	d1 04       	cpc	r13, r1
    3c22:	08 f0       	brcs	.+2      	; 0x3c26 <CheckTransistor+0x266>
    3c24:	62 c0       	rjmp	.+196    	; 0x3cea <CheckTransistor+0x32a>
    {
      Check.Found = COMP_FET;
    3c26:	2f e1       	ldi	r18, 0x1F	; 31
    3c28:	20 93 01 01 	sts	0x0101, r18	; 0x800101 <Check>
      Check.Type = FET_Type | TYPE_ENHANCEMENT | TYPE_MOSFET;
    3c2c:	21 2f       	mov	r18, r17
    3c2e:	24 61       	ori	r18, 0x14	; 20
    3c30:	20 93 02 01 	sts	0x0102, r18	; 0x800102 <Check+0x1>

      BJT_Level = R_LOW * 10;                /* Rl in 0.1 Ohms */

      if (FET_Type == TYPE_N_CHANNEL)        /* n-channel */
      {
        BJT_Level += NV.RiH;                 /* Rl + RiH (0.1 Ohms) */
    3c34:	a0 91 c9 01 	lds	r26, 0x01C9	; 0x8001c9 <NV+0x2>
    3c38:	b0 91 ca 01 	lds	r27, 0x01CA	; 0x8001ca <NV+0x3>
       *  -> R_DS_on = FET_Level * Rl / U_R_c
       */

      BJT_Level = R_LOW * 10;                /* Rl in 0.1 Ohms */

      if (FET_Type == TYPE_N_CHANNEL)        /* n-channel */
    3c3c:	11 30       	cpi	r17, 0x01	; 1
    3c3e:	21 f0       	breq	.+8      	; 0x3c48 <CheckTransistor+0x288>
        Check.Symbol = SYMBOL_MOSFET_ENH_N;  /* set symbol ID */
        #endif
      }
      else                                   /* p-channel */
      {
        BJT_Level += NV.RiL;                 /* Rl + RiL (0.1 Ohms) */
    3c40:	a0 91 c7 01 	lds	r26, 0x01C7	; 0x8001c7 <NV>
    3c44:	b0 91 c8 01 	lds	r27, 0x01C8	; 0x8001c8 <NV+0x1>
    3c48:	a0 57       	subi	r26, 0x70	; 112
    3c4a:	b5 4e       	sbci	r27, 0xE5	; 229
        #ifdef SW_SYMBOLS
        Check.Symbol = SYMBOL_MOSFET_ENH_P;  /* set symbol ID */
        #endif
      }

      FET_Level *= 10;                            /* scale to 0.1 mV */
    3c4c:	4a e0       	ldi	r20, 0x0A	; 10
    3c4e:	4c 9d       	mul	r20, r12
    3c50:	90 01       	movw	r18, r0
    3c52:	4d 9d       	mul	r20, r13
    3c54:	30 0d       	add	r19, r0
    3c56:	11 24       	eor	r1, r1
      hFE_C = (uint32_t)FET_Level * BJT_Level;    /* U_DS * Rl (0.1 Ohms * 0.1 mV) */
    3c58:	0e 94 4b 2d 	call	0x5a96	; 0x5a96 <__umulhisi3>
      hFE_C /= U_R_c;                             /* / U_Rl (0.01 Ohms) */
    3c5c:	9e 01       	movw	r18, r28
    3c5e:	50 e0       	ldi	r21, 0x00	; 0
    3c60:	40 e0       	ldi	r20, 0x00	; 0
    3c62:	0e 94 04 2d 	call	0x5a08	; 0x5a08 <__udivmodsi4>
      uint8_t            n;
      /* get index number for Source/Drain probe pair */
      n = GetOffsetIndex(Probes.ID_1, Probes.ID_2);
      BJT_Level = NV.RZero[n];
      #else
      BJT_Level = NV.RZero;
    3c66:	80 91 cb 01 	lds	r24, 0x01CB	; 0x8001cb <NV+0x4>
    3c6a:	90 91 cc 01 	lds	r25, 0x01CC	; 0x8001cc <NV+0x5>
      #endif

      if (FET_Level > BJT_Level)        /* large enough */
    3c6e:	82 17       	cp	r24, r18
    3c70:	93 07       	cpc	r25, r19
    3c72:	c0 f5       	brcc	.+112    	; 0x3ce4 <CheckTransistor+0x324>
      {
        FET_Level -= BJT_Level;         /* subtract probe resistance */
    3c74:	28 1b       	sub	r18, r24
    3c76:	39 0b       	sbc	r19, r25
      else                              /* too small */
      {
        FET_Level = 0;                  /* set to zero */
      }

      Semi.U_1 = FET_Level;             /* save R_DS_on (0.01 Ohms) */
    3c78:	30 93 a2 01 	sts	0x01A2, r19	; 0x8001a2 <Semi+0x8>
    3c7c:	20 93 a1 01 	sts	0x01A1, r18	; 0x8001a1 <Semi+0x7>
        Check.Symbol = SYMBOL_IGBT_ENH_P;    /* set symbol ID */
      }
      #endif
    }

    GetGateThreshold(FET_Type);    /* measure gate threshold voltage */
    3c80:	81 2f       	mov	r24, r17
    3c82:	0e 94 be 1b 	call	0x377c	; 0x377c <GetGateThreshold>

    Check.Done |= DONE_SEMI;       /* transistor detected */
    3c86:	80 91 03 01 	lds	r24, 0x0103	; 0x800103 <Check+0x2>
    3c8a:	81 60       	ori	r24, 0x01	; 1
    3c8c:	80 93 03 01 	sts	0x0103, r24	; 0x800103 <Check+0x2>

    /* save data */
    Semi.A = Probes.ID_3;           /* probe ID for gate */
    3c90:	80 91 b7 01 	lds	r24, 0x01B7	; 0x8001b7 <Probes+0x2>
    3c94:	80 93 9a 01 	sts	0x019A, r24	; 0x80019a <Semi>
    3c98:	90 91 b5 01 	lds	r25, 0x01B5	; 0x8001b5 <Probes>
    3c9c:	20 91 b6 01 	lds	r18, 0x01B6	; 0x8001b6 <Probes+0x1>

    if (FET_Type == TYPE_N_CHANNEL)     /* n-channel */
    3ca0:	11 30       	cpi	r17, 0x01	; 1
    3ca2:	59 f5       	brne	.+86     	; 0x3cfa <CheckTransistor+0x33a>
    {
      Semi.B = Probes.ID_1;        /* probe ID for drain */
    3ca4:	90 93 9b 01 	sts	0x019B, r25	; 0x80019b <Semi+0x1>
      Semi.C = Probes.ID_2;        /* probe ID for source */
    3ca8:	20 93 9c 01 	sts	0x019C, r18	; 0x80019c <Semi+0x2>
      Semi.B = Probes.ID_2;        /* probe ID for drain */
      Semi.C = Probes.ID_1;        /* probe ID for source */
    }

    /* Gate-Source capacitance */
    MeasureCap(Semi.A, Semi.C, 0);      /* measure capacitance */
    3cac:	40 e0       	ldi	r20, 0x00	; 0
    3cae:	60 91 9c 01 	lds	r22, 0x019C	; 0x80019c <Semi+0x2>
    3cb2:	0e 94 59 19 	call	0x32b2	; 0x32b2 <MeasureCap>
    Semi.C_value = Caps[0].Value;       /* save value */
    3cb6:	80 91 3b 01 	lds	r24, 0x013B	; 0x80013b <Caps+0x3>
    3cba:	90 91 3c 01 	lds	r25, 0x013C	; 0x80013c <Caps+0x4>
    3cbe:	a0 91 3d 01 	lds	r26, 0x013D	; 0x80013d <Caps+0x5>
    3cc2:	b0 91 3e 01 	lds	r27, 0x013E	; 0x80013e <Caps+0x6>
    3cc6:	80 93 b0 01 	sts	0x01B0, r24	; 0x8001b0 <Semi+0x16>
    3cca:	90 93 b1 01 	sts	0x01B1, r25	; 0x8001b1 <Semi+0x17>
    3cce:	a0 93 b2 01 	sts	0x01B2, r26	; 0x8001b2 <Semi+0x18>
    3cd2:	b0 93 b3 01 	sts	0x01B3, r27	; 0x8001b3 <Semi+0x19>
    Semi.C_scale = Caps[0].Scale;
    3cd6:	80 91 3a 01 	lds	r24, 0x013A	; 0x80013a <Caps+0x2>
    3cda:	80 93 b4 01 	sts	0x01B4, r24	; 0x8001b4 <Semi+0x1a>
    RestoreProbes();                    /* restore original probe IDs */
    3cde:	0e 94 37 0e 	call	0x1c6e	; 0x1c6e <RestoreProbes>
  }
}
    3ce2:	80 cf       	rjmp	.-256    	; 0x3be4 <CheckTransistor+0x224>
      {
        FET_Level -= BJT_Level;         /* subtract probe resistance */
      }
      else                              /* too small */
      {
        FET_Level = 0;                  /* set to zero */
    3ce4:	30 e0       	ldi	r19, 0x00	; 0
    3ce6:	20 e0       	ldi	r18, 0x00	; 0
    3ce8:	c7 cf       	rjmp	.-114    	; 0x3c78 <CheckTransistor+0x2b8>

      Semi.U_1 = FET_Level;             /* save R_DS_on (0.01 Ohms) */
    }
    else                      /* IGBT */
    {
      Check.Found = COMP_IGBT;
    3cea:	80 e2       	ldi	r24, 0x20	; 32
    3cec:	80 93 01 01 	sts	0x0101, r24	; 0x800101 <Check>
      Check.Type = FET_Type | TYPE_ENHANCEMENT;
    3cf0:	81 2f       	mov	r24, r17
    3cf2:	84 60       	ori	r24, 0x04	; 4
    3cf4:	80 93 02 01 	sts	0x0102, r24	; 0x800102 <Check+0x1>
    3cf8:	c3 cf       	rjmp	.-122    	; 0x3c80 <CheckTransistor+0x2c0>
      Semi.B = Probes.ID_1;        /* probe ID for drain */
      Semi.C = Probes.ID_2;        /* probe ID for source */
    }
    else                                /* p-channel */
    {
      Semi.B = Probes.ID_2;        /* probe ID for drain */
    3cfa:	20 93 9b 01 	sts	0x019B, r18	; 0x80019b <Semi+0x1>
      Semi.C = Probes.ID_1;        /* probe ID for source */
    3cfe:	90 93 9c 01 	sts	0x019C, r25	; 0x80019c <Semi+0x2>
    3d02:	d4 cf       	rjmp	.-88     	; 0x3cac <CheckTransistor+0x2ec>

00003d04 <CheckDepletionModeFET>:
 *  requires:
 *  - U_Rl: voltage across Rl pulled down (Gate HiZ)
 */

void CheckDepletionModeFET(uint16_t U_Rl)
{
    3d04:	af 92       	push	r10
    3d06:	bf 92       	push	r11
    3d08:	df 92       	push	r13
    3d0a:	ef 92       	push	r14
    3d0c:	ff 92       	push	r15
    3d0e:	0f 93       	push	r16
    3d10:	1f 93       	push	r17
    3d12:	cf 93       	push	r28
    3d14:	df 93       	push	r29
     *
     *  The high threshold allows us to skip most germanium BJTs with a high
     *  leakage current (I_CEO), but not all.
     */

    Offset = 488;         /* 0.7mA */
    3d16:	28 ee       	ldi	r18, 0xE8	; 232
    3d18:	e2 2e       	mov	r14, r18
    3d1a:	ff 24       	eor	r15, r15
    3d1c:	f3 94       	inc	r15

  /*
   *  select detection offset based on U_Rl
   */

  if (U_Rl > 490)         /* > 700ÁA (was 92mV/130ÁA) */
    3d1e:	8b 3e       	cpi	r24, 0xEB	; 235
    3d20:	91 40       	sbci	r25, 0x01	; 1
    3d22:	18 f4       	brcc	.+6      	; 0x3d2a <CheckDepletionModeFET+0x26>
    Offset = 488;         /* 0.7mA */
  }
  else                    /* > 21ÁA (15mV) */
  {
    /* JFET with low I_DSS */
    Offset = 40;          /* 57ÁA */
    3d24:	98 e2       	ldi	r25, 0x28	; 40
    3d26:	e9 2e       	mov	r14, r25
    3d28:	f1 2c       	mov	r15, r1
  /* probes already set to: Gnd -- Rl -- probe-2 / probe-1 -- Vcc */

  /* get source voltage when gate is pulled down */
  /* create a negative V_GS via voltage drop across Rl at source */
  /* set probes: Gnd -- Rl -- probe-2 / probe-1 -- Vcc / probe-3 -- Rh -- Gnd */
  R_DDR = Probes.Rl_2 | Probes.Rh_3;    /* pull down gate via Rh */
    3d2a:	80 91 bc 01 	lds	r24, 0x01BC	; 0x8001bc <Probes+0x7>
    3d2e:	90 91 c0 01 	lds	r25, 0x01C0	; 0x8001c0 <Probes+0xb>
    3d32:	89 2b       	or	r24, r25
    3d34:	8a b9       	out	0x0a, r24	; 10
  U_1 = ReadU_20ms(Probes.Ch_2);        /* voltage at source */
    3d36:	80 91 c5 01 	lds	r24, 0x01C5	; 0x8001c5 <Probes+0x10>
    3d3a:	0e 94 ca 0d 	call	0x1b94	; 0x1b94 <ReadU_20ms>
    3d3e:	ec 01       	movw	r28, r24

  /* get source voltage when gate is pulled up */
  /* create a slightly positive V_GS via voltage drop across Rl at source */
  /* set probes: Gnd -- Rl -- probe-2 / probe-1 -- Vcc / probe-3 -- Rh -- Vcc */
  R_PORT = Probes.Rh_3;                 /* pull up gate via Rh */
    3d40:	80 91 c0 01 	lds	r24, 0x01C0	; 0x8001c0 <Probes+0xb>
    3d44:	8b b9       	out	0x0b, r24	; 11
  U_2 = ReadU_20ms(Probes.Ch_2);        /* voltage at source */
    3d46:	80 91 c5 01 	lds	r24, 0x01C5	; 0x8001c5 <Probes+0x10>
    3d4a:	0e 94 ca 0d 	call	0x1b94	; 0x1b94 <ReadU_20ms>
  Diff_1 = U_2 - U_1;                   /* source voltage difference */
    3d4e:	8c 01       	movw	r16, r24
    3d50:	0c 1b       	sub	r16, r28
    3d52:	1d 0b       	sbc	r17, r29
   *  If the source voltage is higher (more current), when the gate is driven
   *  by a positive voltage vs. connected to ground, we got a depletion-mode
   *  n-channel FET.
   */

  if (U_2 > (U_1 + Offset))   /* exceeds required offset */
    3d54:	97 01       	movw	r18, r14
    3d56:	2c 0f       	add	r18, r28
    3d58:	3d 1f       	adc	r19, r29
    3d5a:	28 17       	cp	r18, r24
    3d5c:	39 07       	cpc	r19, r25
    3d5e:	08 f0       	brcs	.+2      	; 0x3d62 <CheckDepletionModeFET+0x5e>
    3d60:	78 c0       	rjmp	.+240    	; 0x3e52 <CheckDepletionModeFET+0x14e>
     *  - NPN
     */

    /* get base voltage when base is pulled up by Rl */
    /* set probes: Gnd -- probe-2 / probe-3 -- Rl -- Vcc / probe-1 -- HiZ */
    R_DDR = Probes.Rl_3;                     /* switch to Rl for base */
    3d62:	80 91 bd 01 	lds	r24, 0x01BD	; 0x8001bd <Probes+0x8>
    3d66:	8a b9       	out	0x0a, r24	; 10
    R_PORT = Probes.Rl_3;                    /* pull up base via Rl */
    3d68:	8b b9       	out	0x0b, r24	; 11
    ADC_PORT = 0;
    3d6a:	18 b8       	out	0x08, r1	; 8
    ADC_DDR = Probes.Pin_2;                  /* pull down emitter directly */
    3d6c:	80 91 c2 01 	lds	r24, 0x01C2	; 0x8001c2 <Probes+0xd>
    3d70:	87 b9       	out	0x07, r24	; 7
    U_1 = ReadU_20ms(Probes.Ch_3);           /* get voltage at base */
    3d72:	80 91 c6 01 	lds	r24, 0x01C6	; 0x8001c6 <Probes+0x11>
    3d76:	0e 94 ca 0d 	call	0x1b94	; 0x1b94 <ReadU_20ms>
    ADC_DDR = 0;
    3d7a:	17 b8       	out	0x07, r1	; 7

    if ((U_1 < 700) &&        /* low V_BE < (550mV + 150mV) */
    3d7c:	c3 97       	sbiw	r24, 0x33	; 51
        (U_1 > 50))           /* but not too low */
    {
      Flag = SIGNAL_OTHER;    /* most likely a Ge BJT */
    3d7e:	dd 24       	eor	r13, r13
    3d80:	d3 94       	inc	r13
    ADC_PORT = 0;
    ADC_DDR = Probes.Pin_2;                  /* pull down emitter directly */
    U_1 = ReadU_20ms(Probes.Ch_3);           /* get voltage at base */
    ADC_DDR = 0;

    if ((U_1 < 700) &&        /* low V_BE < (550mV + 150mV) */
    3d82:	89 38       	cpi	r24, 0x89	; 137
    3d84:	92 40       	sbci	r25, 0x02	; 2
    3d86:	18 f0       	brcs	.+6      	; 0x3d8e <CheckDepletionModeFET+0x8a>
     *  Check for Darlington BJT plus EMI issues causing a high U_Rl.
     *  - with base pulled down we should have a low leakage current
     *  - assumes: probe-1 = C / probe-2 = E / probe-3 = B
     */

    if (U_1 <= 5)             /* emitter shunt <= 5mV (7ÁA) */
    3d88:	26 97       	sbiw	r28, 0x06	; 6
    3d8a:	08 f0       	brcs	.+2      	; 0x3d8e <CheckDepletionModeFET+0x8a>
    3d8c:	d1 2c       	mov	r13, r1
     *  - NPN
     */

    /* get base voltage when base is pulled up by Rl */
    /* set probes: Gnd -- probe-1 / probe-3 -- Rl -- Vcc / probe-2 -- HiZ */
    ADC_DDR = Probes.Pin_1;                  /* pull down collector directly */
    3d8e:	80 91 c1 01 	lds	r24, 0x01C1	; 0x8001c1 <Probes+0xc>
    3d92:	87 b9       	out	0x07, r24	; 7
    U_1 = ReadU_20ms(Probes.Ch_3);           /* get voltage at base */
    3d94:	80 91 c6 01 	lds	r24, 0x01C6	; 0x8001c6 <Probes+0x11>
    3d98:	0e 94 ca 0d 	call	0x1b94	; 0x1b94 <ReadU_20ms>
    3d9c:	ec 01       	movw	r28, r24
    U_2 = ReadU(Probes.Ch_1);                /* get voltage at collector */
    3d9e:	80 91 c4 01 	lds	r24, 0x01C4	; 0x8001c4 <Probes+0xf>
    3da2:	0e 94 61 0d 	call	0x1ac2	; 0x1ac2 <ReadU>
    ADC_DDR = 0;
    3da6:	17 b8       	out	0x07, r1	; 7

    if (U_1 > U_2)          /* valid voltages */
    3da8:	8c 17       	cp	r24, r28
    3daa:	9d 07       	cpc	r25, r29
    3dac:	38 f4       	brcc	.+14     	; 0x3dbc <CheckDepletionModeFET+0xb8>
    {
      U_1 -= U_2;           /* V_f = U_B - U_C */
    3dae:	c8 1b       	sub	r28, r24
    3db0:	d9 0b       	sbc	r29, r25

      if (U_1 < 450)        /* low V_f < 450mV */
    3db2:	c2 3c       	cpi	r28, 0xC2	; 194
    3db4:	d1 40       	sbci	r29, 0x01	; 1
    3db6:	10 f4       	brcc	.+4      	; 0x3dbc <CheckDepletionModeFET+0xb8>
      {
        Flag = SIGNAL_OTHER;       /* most likely a Schottky BJT */
    3db8:	dd 24       	eor	r13, r13
    3dba:	d3 94       	inc	r13

    /* we simulate: probe-1 = S / probe-2 = D / probe-3 = G */

    /* get source voltage when gate is pulled down */
    /* set probes: Gnd -- Rl -- probe-1 / probe-2 -- Vcc / probe-3 -- Rh -- Gnd */
    ADC_PORT = Probes.Pin_2;            /* set ADC port to high */
    3dbc:	80 91 c2 01 	lds	r24, 0x01C2	; 0x8001c2 <Probes+0xd>
    3dc0:	88 b9       	out	0x08, r24	; 8
    ADC_DDR = Probes.Pin_2;             /* pull up drain directly */
    3dc2:	87 b9       	out	0x07, r24	; 7
    R_DDR = Probes.Rl_1 | Probes.Rh_3;  /* enable Rl for source and Rh for gate */
    3dc4:	80 91 bb 01 	lds	r24, 0x01BB	; 0x8001bb <Probes+0x6>
    3dc8:	90 91 c0 01 	lds	r25, 0x01C0	; 0x8001c0 <Probes+0xb>
    3dcc:	89 2b       	or	r24, r25
    3dce:	8a b9       	out	0x0a, r24	; 10
    R_PORT = 0;                         /* pull down source via Rl / pull down gate via Rh */
    3dd0:	1b b8       	out	0x0b, r1	; 11
    U_1 = ReadU_20ms(Probes.Ch_1);      /* voltage at source */
    3dd2:	80 91 c4 01 	lds	r24, 0x01C4	; 0x8001c4 <Probes+0xf>
    3dd6:	0e 94 ca 0d 	call	0x1b94	; 0x1b94 <ReadU_20ms>
    3dda:	ec 01       	movw	r28, r24

    /* get source voltage when gate is pulled up */
    /* set probes: Gnd -- Rl -- probe-1 / probe-2 -- Vcc / probe-3 -- Rh -- Vcc */
    R_PORT = Probes.Rh_3;               /* pull up gate via Rh */
    3ddc:	80 91 c0 01 	lds	r24, 0x01C0	; 0x8001c0 <Probes+0xb>
    3de0:	8b b9       	out	0x0b, r24	; 11
    U_2 = ReadU_20ms(Probes.Ch_1);      /* voltage at source */
    3de2:	80 91 c4 01 	lds	r24, 0x01C4	; 0x8001c4 <Probes+0xf>
    3de6:	0e 94 ca 0d 	call	0x1b94	; 0x1b94 <ReadU_20ms>
    Diff_2 = U_2 - U_1;                 /* source voltage difference */
    3dea:	8c 1b       	sub	r24, r28
    3dec:	9d 0b       	sbc	r25, r29
    3dee:	ec 01       	movw	r28, r24
    /*
     *  Compare gate voltages to distinguish JFET from MOSFET
     */

    /* set probes: Gnd -- probe-2 / probe-1 -- Rl -- Vcc / probe-3 -- Rh - Vcc */
    ADC_PORT = 0;                        /* set ADC port to low */
    3df0:	18 b8       	out	0x08, r1	; 8
    ADC_DDR = Probes.Pin_2;              /* pull down source directly */
    3df2:	80 91 c2 01 	lds	r24, 0x01C2	; 0x8001c2 <Probes+0xd>
    3df6:	87 b9       	out	0x07, r24	; 7
    R_DDR = Probes.Rl_1 | Probes.Rh_3;   /* enable Rl for drain & Rh for gate */
    3df8:	80 91 bb 01 	lds	r24, 0x01BB	; 0x8001bb <Probes+0x6>
    3dfc:	90 91 c0 01 	lds	r25, 0x01C0	; 0x8001c0 <Probes+0xb>
    3e00:	89 2b       	or	r24, r25
    3e02:	8a b9       	out	0x0a, r24	; 10
    R_PORT = Probes.Rl_1 | Probes.Rh_3;  /* pull up drain via Rl / pull up gate via Rh */
    3e04:	8b b9       	out	0x0b, r24	; 11

    U_1 = ReadU_20ms(Probes.Ch_3);       /* get voltage at gate */
    3e06:	80 91 c6 01 	lds	r24, 0x01C6	; 0x8001c6 <Probes+0x11>
    3e0a:	0e 94 ca 0d 	call	0x1b94	; 0x1b94 <ReadU_20ms>

    if (U_1 > 3911)           /* MOSFET */
    3e0e:	88 34       	cpi	r24, 0x48	; 72
    3e10:	9f 40       	sbci	r25, 0x0F	; 15
    3e12:	e0 f0       	brcs	.+56     	; 0x3e4c <CheckDepletionModeFET+0x148>
    {
      /* n channel depletion-mode MOSFET */ 
      Check.Type = TYPE_N_CHANNEL | TYPE_DEPLETION | TYPE_MOSFET;
    3e14:	89 e1       	ldi	r24, 0x19	; 25
      U_1 = ReadU_20ms(Probes.Ch_3);    /* get voltage at gate */

      if (U_1 < 977)               /* MOSFET */
      {
        /* p-channel depletion-mode MOSFET */ 
        Check.Type =  TYPE_P_CHANNEL | TYPE_DEPLETION | TYPE_MOSFET;
    3e16:	80 93 02 01 	sts	0x0102, r24	; 0x800102 <Check+0x1>
   */

  if (Flag == SIGNAL_FET)     /* found depletion-mode FET */
  {
    /* common stuff */
    Check.Found = COMP_FET;        /* it's a FET */
    3e1a:	8f e1       	ldi	r24, 0x1F	; 31
    3e1c:	80 93 01 01 	sts	0x0101, r24	; 0x800101 <Check>
    Check.Done |= DONE_SEMI;       /* transistor detection done */
    3e20:	80 91 03 01 	lds	r24, 0x0103	; 0x800103 <Check+0x2>
    3e24:	81 60       	ori	r24, 0x01	; 1
    3e26:	80 93 03 01 	sts	0x0103, r24	; 0x800103 <Check+0x2>
    Semi.A = Probes.ID_3;          /* probe ID for gate */
    3e2a:	40 91 b7 01 	lds	r20, 0x01B7	; 0x8001b7 <Probes+0x2>
    3e2e:	40 93 9a 01 	sts	0x019A, r20	; 0x80019a <Semi>
    3e32:	90 91 b6 01 	lds	r25, 0x01B6	; 0x8001b6 <Probes+0x1>
    3e36:	80 91 b5 01 	lds	r24, 0x01B5	; 0x8001b5 <Probes>
     *  - p-ch: smaller voltage difference wins
     *    But we take the larger one and indirectly reverse D/S pins
     *    (double reverse) to shorten code.
     */

    if (Diff_1 > Diff_2)      /* n-ch: drain and source as assumed */
    3e3a:	c0 17       	cp	r28, r16
    3e3c:	d1 07       	cpc	r29, r17
    3e3e:	08 f4       	brcc	.+2      	; 0x3e42 <CheckDepletionModeFET+0x13e>
    3e40:	87 c0       	rjmp	.+270    	; 0x3f50 <CheckDepletionModeFET+0x24c>
      Semi.B = Probes.ID_1;        /* probe ID for drain */
      Semi.C = Probes.ID_2;        /* probe ID for source */
    }
    else                      /* n-ch: drain and source reversed */
    {
      Semi.B = Probes.ID_2;        /* probe ID for drain */
    3e42:	90 93 9b 01 	sts	0x019B, r25	; 0x80019b <Semi+0x1>
      Semi.C = Probes.ID_1;        /* probe ID for source */
    3e46:	80 93 9c 01 	sts	0x019C, r24	; 0x80019c <Semi+0x2>
    3e4a:	86 c0       	rjmp	.+268    	; 0x3f58 <CheckDepletionModeFET+0x254>
    else                      /* JFET */
    {
      if (Flag == 0)          /* not a BJT */
      {
        /* n channel JFET (depletion-mode only) */
        Check.Type = TYPE_N_CHANNEL | TYPE_DEPLETION | TYPE_JFET;
    3e4c:	89 e2       	ldi	r24, 0x29	; 41

      Flag = SIGNAL_FET;      /* signal match */
    }
    else                      /* JFET */
    {
      if (Flag == 0)          /* not a BJT */
    3e4e:	dd 20       	and	r13, r13
    3e50:	11 f3       	breq	.-60     	; 0x3e16 <CheckDepletionModeFET+0x112>
    /*  we assume: probe-1 = S / probe-2 = D / probe-3 = G */

    /* get source voltage when gate is pulled up */
    /* create a positive V_GS via voltage drop across Rl at source */
    /* set probes: Gnd -- probe-2 / probe-1 -- Rl -- Vcc / probe-3 -- Rh -- Vcc */
    ADC_PORT = 0;                       /* set ADC port to Gnd */
    3e52:	18 b8       	out	0x08, r1	; 8
    ADC_DDR = Probes.Pin_2;             /* pull down drain directly */
    3e54:	80 91 c2 01 	lds	r24, 0x01C2	; 0x8001c2 <Probes+0xd>
    3e58:	87 b9       	out	0x07, r24	; 7
    R_DDR = Probes.Rl_1 | Probes.Rh_3;  /* enable Rl for probe-1 & Rh for probe-3 */
    3e5a:	80 91 bb 01 	lds	r24, 0x01BB	; 0x8001bb <Probes+0x6>
    3e5e:	90 91 c0 01 	lds	r25, 0x01C0	; 0x8001c0 <Probes+0xb>
    3e62:	89 2b       	or	r24, r25
    3e64:	8a b9       	out	0x0a, r24	; 10
    R_PORT = Probes.Rl_1 | Probes.Rh_3; /* pull up source via Rl / pull up gate via Rh */
    3e66:	8b b9       	out	0x0b, r24	; 11
    U_1 = ReadU_20ms(Probes.Ch_1);      /* get voltage at source */
    3e68:	80 91 c4 01 	lds	r24, 0x01C4	; 0x8001c4 <Probes+0xf>
    3e6c:	0e 94 ca 0d 	call	0x1b94	; 0x1b94 <ReadU_20ms>
    3e70:	ec 01       	movw	r28, r24

    /* get source voltage when gate is pulled down */
    /* create a slightly negative V_GS via voltage drop across Rl at source */
    /* set probes: Gnd -- probe-2 / probe-1 -- Rl -- Vcc / probe-3 -- Rh -- Gnd */
    R_PORT = Probes.Rl_1;               /* pull down gate via Rh */
    3e72:	80 91 bb 01 	lds	r24, 0x01BB	; 0x8001bb <Probes+0x6>
    3e76:	8b b9       	out	0x0b, r24	; 11
    U_2 = ReadU_20ms(Probes.Ch_1);      /* get voltage at source */
    3e78:	80 91 c4 01 	lds	r24, 0x01C4	; 0x8001c4 <Probes+0xf>
    3e7c:	0e 94 ca 0d 	call	0x1b94	; 0x1b94 <ReadU_20ms>
    3e80:	5c 01       	movw	r10, r24
     *  If the source voltage is higher (less current), when the gate is driven
     *  by a positive voltage vs. connected to ground, we got a depletion-mode
     *  p-channel FET.
     */

    if (U_1 > (U_2 + Offset))      /* exceeds required offset */
    3e82:	c7 01       	movw	r24, r14
    3e84:	8a 0d       	add	r24, r10
    3e86:	9b 1d       	adc	r25, r11
    3e88:	8c 17       	cp	r24, r28
    3e8a:	9d 07       	cpc	r25, r29
    3e8c:	08 f0       	brcs	.+2      	; 0x3e90 <CheckDepletionModeFET+0x18c>
    3e8e:	56 c0       	rjmp	.+172    	; 0x3f3c <CheckDepletionModeFET+0x238>
       *  Check for Darlington BJT plus EMI issues causing a high U_Rl.
       *  - with base pulled up we should have a low leakage current
       *  - assumes: probe-1 = E / probe-2 = C / probe-3 = B
       */

      U_2 = Cfg.Vcc - 12;          /* threshold: Vcc - 12mV */
    3e90:	00 91 8e 01 	lds	r16, 0x018E	; 0x80018e <Cfg+0x8>
    3e94:	10 91 8f 01 	lds	r17, 0x018F	; 0x80018f <Cfg+0x9>
       *  - PNP
       */

      /* get base voltage when base is pulled down by Rl */
      /* set probes: Gnd -- Rl -- probe-3 / probe-1 -- Vcc / probe-2 -- HiZ */
      R_DDR = Probes.Rl_3;                   /* switch to Rl */
    3e98:	80 91 bd 01 	lds	r24, 0x01BD	; 0x8001bd <Probes+0x8>
    3e9c:	8a b9       	out	0x0a, r24	; 10
      R_PORT = 0;                            /* pull down base by Rl */
    3e9e:	1b b8       	out	0x0b, r1	; 11
      ADC_DDR = Probes.Pin_1;
    3ea0:	80 91 c1 01 	lds	r24, 0x01C1	; 0x8001c1 <Probes+0xc>
    3ea4:	87 b9       	out	0x07, r24	; 7
      ADC_PORT = Probes.Pin_1;               /* pull up emitter directly */
    3ea6:	88 b9       	out	0x08, r24	; 8
      U_1 = ReadU_20ms(Probes.Ch_3);         /* get voltage at base */
    3ea8:	80 91 c6 01 	lds	r24, 0x01C6	; 0x8001c6 <Probes+0x11>
    3eac:	0e 94 ca 0d 	call	0x1b94	; 0x1b94 <ReadU_20ms>
      ADC_PORT = 0;
    3eb0:	18 b8       	out	0x08, r1	; 8

      if ((U_1 > 4300) &&     /* low V_BE < (550mV + 150mV) (V_BE = Vcc - V_B) */
    3eb2:	8d 5c       	subi	r24, 0xCD	; 205
    3eb4:	90 41       	sbci	r25, 0x10	; 16
          (U_1 < 4950))       /* but not too low  (Vcc - 50mV) */
      {
        Flag = SIGNAL_OTHER;       /* most likely a Ge BJT */
    3eb6:	dd 24       	eor	r13, r13
    3eb8:	d3 94       	inc	r13
      ADC_DDR = Probes.Pin_1;
      ADC_PORT = Probes.Pin_1;               /* pull up emitter directly */
      U_1 = ReadU_20ms(Probes.Ch_3);         /* get voltage at base */
      ADC_PORT = 0;

      if ((U_1 > 4300) &&     /* low V_BE < (550mV + 150mV) (V_BE = Vcc - V_B) */
    3eba:	89 38       	cpi	r24, 0x89	; 137
    3ebc:	92 40       	sbci	r25, 0x02	; 2
    3ebe:	40 f0       	brcs	.+16     	; 0x3ed0 <CheckDepletionModeFET+0x1cc>
       *  Check for Darlington BJT plus EMI issues causing a high U_Rl.
       *  - with base pulled up we should have a low leakage current
       *  - assumes: probe-1 = E / probe-2 = C / probe-3 = B
       */

      U_2 = Cfg.Vcc - 12;          /* threshold: Vcc - 12mV */
    3ec0:	0c 50       	subi	r16, 0x0C	; 12
    3ec2:	11 09       	sbc	r17, r1
        /* meant to be -5, but more leeway because of Vref=Vcc */
      if (U_1 >= U_2)              /* emitter shunt <= 12mV (17ÁA) */
    3ec4:	dd 24       	eor	r13, r13
    3ec6:	d3 94       	inc	r13
    3ec8:	c0 17       	cp	r28, r16
    3eca:	d1 07       	cpc	r29, r17
    3ecc:	08 f4       	brcc	.+2      	; 0x3ed0 <CheckDepletionModeFET+0x1cc>
    3ece:	d1 2c       	mov	r13, r1
    /* get source voltage when gate is pulled down */
    /* create a slightly negative V_GS via voltage drop across Rl at source */
    /* set probes: Gnd -- probe-2 / probe-1 -- Rl -- Vcc / probe-3 -- Rh -- Gnd */
    R_PORT = Probes.Rl_1;               /* pull down gate via Rh */
    U_2 = ReadU_20ms(Probes.Ch_1);      /* get voltage at source */
    Diff_1 = U_1 - U_2;                 /* source voltage difference */
    3ed0:	ca 19       	sub	r28, r10
    3ed2:	db 09       	sbc	r29, r11

      /* we simulate: probe-1 = D / probe-2 = S / probe-3 = G */

      /* get source voltage when gate is pulled up */
      /* set probes: Gnd -- probe-1 / probe-2 -- Rl -- Vcc / probe-3 -- Rh -- Vcc */
      ADC_DDR = Probes.Pin_1;             /* pull down drain directly */
    3ed4:	80 91 c1 01 	lds	r24, 0x01C1	; 0x8001c1 <Probes+0xc>
    3ed8:	87 b9       	out	0x07, r24	; 7
      R_DDR = Probes.Rl_2 | Probes.Rh_3;  /* enable Rl for source & Rh for gate */
    3eda:	80 91 bc 01 	lds	r24, 0x01BC	; 0x8001bc <Probes+0x7>
    3ede:	90 91 c0 01 	lds	r25, 0x01C0	; 0x8001c0 <Probes+0xb>
    3ee2:	89 2b       	or	r24, r25
    3ee4:	8a b9       	out	0x0a, r24	; 10
      R_PORT = Probes.Rl_2 | Probes.Rh_3; /* pull up source via Rl / pull up gate via Rh */
    3ee6:	8b b9       	out	0x0b, r24	; 11
      U_1 = ReadU_20ms(Probes.Ch_2);      /* get voltage at source */
    3ee8:	80 91 c5 01 	lds	r24, 0x01C5	; 0x8001c5 <Probes+0x10>
    3eec:	0e 94 ca 0d 	call	0x1b94	; 0x1b94 <ReadU_20ms>
    3ef0:	8c 01       	movw	r16, r24

      /* get source voltage when gate is pulled down */
      /* set probes: Gnd -- probe-1 / probe-2 -- Rl -- Vcc / probe-3 -- Rh -- Gnd */
      R_PORT = Probes.Rl_2;               /* pull down gate via Rh */
    3ef2:	80 91 bc 01 	lds	r24, 0x01BC	; 0x8001bc <Probes+0x7>
    3ef6:	8b b9       	out	0x0b, r24	; 11
      U_2 = ReadU_20ms(Probes.Ch_2);      /* get voltage at source */
    3ef8:	80 91 c5 01 	lds	r24, 0x01C5	; 0x8001c5 <Probes+0x10>
    3efc:	0e 94 ca 0d 	call	0x1b94	; 0x1b94 <ReadU_20ms>
      Diff_2 = U_1 - U_2;                 /* source voltage difference */
    3f00:	08 1b       	sub	r16, r24
    3f02:	19 0b       	sbc	r17, r25
        Diff_2 = 0;                       /* set zero */
      }
      #endif

      /* consider intrinsic or optional flyback diode (causes low Diff_2) */
      if (Diff_2 < (Offset / 2))          /* diode */
    3f04:	f6 94       	lsr	r15
    3f06:	e7 94       	ror	r14
    3f08:	0e 15       	cp	r16, r14
    3f0a:	1f 05       	cpc	r17, r15
    3f0c:	28 f0       	brcs	.+10     	; 0x3f18 <CheckDepletionModeFET+0x214>
    3f0e:	90 2f       	mov	r25, r16
    3f10:	81 2f       	mov	r24, r17
    /* get source voltage when gate is pulled down */
    /* create a slightly negative V_GS via voltage drop across Rl at source */
    /* set probes: Gnd -- probe-2 / probe-1 -- Rl -- Vcc / probe-3 -- Rh -- Gnd */
    R_PORT = Probes.Rl_1;               /* pull down gate via Rh */
    U_2 = ReadU_20ms(Probes.Ch_1);      /* get voltage at source */
    Diff_1 = U_1 - U_2;                 /* source voltage difference */
    3f12:	8e 01       	movw	r16, r28
        Diff_2 = 0;                       /* set zero */
      }
      #endif

      /* consider intrinsic or optional flyback diode (causes low Diff_2) */
      if (Diff_2 < (Offset / 2))          /* diode */
    3f14:	c9 2f       	mov	r28, r25
    3f16:	d8 2f       	mov	r29, r24
      /*
       *  Compare gate voltages to distinguish JFET from MOSFET
       */

      /* set probes: probe-1 -- Vcc / probe-2 -- Rl -- Gnd / probe-3 -- Rh -- Gnd */
      R_PORT = 0;                       /* pull down drain via Rl & gate via Rh */
    3f18:	1b b8       	out	0x0b, r1	; 11
      ADC_PORT = Probes.Pin_1;          /* pull up source directly */
    3f1a:	80 91 c1 01 	lds	r24, 0x01C1	; 0x8001c1 <Probes+0xc>
    3f1e:	88 b9       	out	0x08, r24	; 8
      ADC_DDR = Probes.Pin_1;           /* enable pull up for source */
    3f20:	87 b9       	out	0x07, r24	; 7
      /* gate is still pulled down via Rh */
      U_1 = ReadU_20ms(Probes.Ch_3);    /* get voltage at gate */
    3f22:	80 91 c6 01 	lds	r24, 0x01C6	; 0x8001c6 <Probes+0x11>
    3f26:	0e 94 ca 0d 	call	0x1b94	; 0x1b94 <ReadU_20ms>

      if (U_1 < 977)               /* MOSFET */
    3f2a:	81 3d       	cpi	r24, 0xD1	; 209
    3f2c:	93 40       	sbci	r25, 0x03	; 3
    3f2e:	10 f4       	brcc	.+4      	; 0x3f34 <CheckDepletionModeFET+0x230>
      {
        /* p-channel depletion-mode MOSFET */ 
        Check.Type =  TYPE_P_CHANNEL | TYPE_DEPLETION | TYPE_MOSFET;
    3f30:	8a e1       	ldi	r24, 0x1A	; 26
    3f32:	71 cf       	rjmp	.-286    	; 0x3e16 <CheckDepletionModeFET+0x112>
      else                         /* JFET */
      {
        if (Flag == SIGNAL_NONE)   /* not a BJT */
        {
          /* p-channel JFET (depletion-mode only) */
          Check.Type = TYPE_P_CHANNEL | TYPE_DEPLETION | TYPE_JFET;
    3f34:	8a e2       	ldi	r24, 0x2A	; 42

        Flag = SIGNAL_FET;         /* signal match */
      }
      else                         /* JFET */
      {
        if (Flag == SIGNAL_NONE)   /* not a BJT */
    3f36:	dd 20       	and	r13, r13
    3f38:	09 f4       	brne	.+2      	; 0x3f3c <CheckDepletionModeFET+0x238>
    3f3a:	6d cf       	rjmp	.-294    	; 0x3e16 <CheckDepletionModeFET+0x112>

  /* clean up local constants */
  #undef SIGNAL_NONE
  #undef SIGNAL_OTHER
  #undef SIGNAL_FET
}
    3f3c:	df 91       	pop	r29
    3f3e:	cf 91       	pop	r28
    3f40:	1f 91       	pop	r17
    3f42:	0f 91       	pop	r16
    3f44:	ff 90       	pop	r15
    3f46:	ef 90       	pop	r14
    3f48:	df 90       	pop	r13
    3f4a:	bf 90       	pop	r11
    3f4c:	af 90       	pop	r10
    3f4e:	08 95       	ret
     *    (double reverse) to shorten code.
     */

    if (Diff_1 > Diff_2)      /* n-ch: drain and source as assumed */
    {
      Semi.B = Probes.ID_1;        /* probe ID for drain */
    3f50:	80 93 9b 01 	sts	0x019B, r24	; 0x80019b <Semi+0x1>
      Semi.C = Probes.ID_2;        /* probe ID for source */
    3f54:	90 93 9c 01 	sts	0x019C, r25	; 0x80019c <Semi+0x2>
     *  drain & source symmetry
     *  - if both voltage differences are about the same we got a
     *    symmetrical FET
     */

    U_2 = Diff_1 / 50;             /* 2% of Diff_1 */
    3f58:	c8 01       	movw	r24, r16
    3f5a:	62 e3       	ldi	r22, 0x32	; 50
    3f5c:	70 e0       	ldi	r23, 0x00	; 0
    3f5e:	0e 94 dc 2c 	call	0x59b8	; 0x59b8 <__udivmodhi4>
    U_1 = Diff_1 - U_2;            /* 98% */
    3f62:	c8 01       	movw	r24, r16
    3f64:	86 1b       	sub	r24, r22
    3f66:	97 0b       	sbc	r25, r23
    U_2 += Diff_1;                 /* 102% */
    if ((Diff_2 >= U_1) && (Diff_2 <= U_2))   /* within +/- 2% */
    3f68:	c8 17       	cp	r28, r24
    3f6a:	d9 07       	cpc	r29, r25
    3f6c:	50 f0       	brcs	.+20     	; 0x3f82 <CheckDepletionModeFET+0x27e>
     *    symmetrical FET
     */

    U_2 = Diff_1 / 50;             /* 2% of Diff_1 */
    U_1 = Diff_1 - U_2;            /* 98% */
    U_2 += Diff_1;                 /* 102% */
    3f6e:	60 0f       	add	r22, r16
    3f70:	71 1f       	adc	r23, r17
    if ((Diff_2 >= U_1) && (Diff_2 <= U_2))   /* within +/- 2% */
    3f72:	6c 17       	cp	r22, r28
    3f74:	7d 07       	cpc	r23, r29
    3f76:	28 f0       	brcs	.+10     	; 0x3f82 <CheckDepletionModeFET+0x27e>
    {
      Check.Type |= TYPE_SYMMETRICAL;
    3f78:	80 91 02 01 	lds	r24, 0x0102	; 0x800102 <Check+0x1>
    3f7c:	80 64       	ori	r24, 0x40	; 64
    3f7e:	80 93 02 01 	sts	0x0102, r24	; 0x800102 <Check+0x1>
    /* 
     *  I_DSS (V_GS = 0V)
     */

    /* use: probe-1 = D / probe-2 = S / probe-3 = G */
    UpdateProbes(Semi.B, Semi.C, Semi.A);    /* drain, source, gate */
    3f82:	60 91 9c 01 	lds	r22, 0x019C	; 0x80019c <Semi+0x2>
    3f86:	80 91 9b 01 	lds	r24, 0x019B	; 0x80019b <Semi+0x1>
    3f8a:	0e 94 d3 0d 	call	0x1ba6	; 0x1ba6 <UpdateProbes>
    ADC_DDR = Probes.Pin_2 | Probes.Pin_3 ;  /* enable direct pull of source & gate */
    3f8e:	80 91 c2 01 	lds	r24, 0x01C2	; 0x8001c2 <Probes+0xd>
    3f92:	90 91 c3 01 	lds	r25, 0x01C3	; 0x8001c3 <Probes+0xe>
    3f96:	89 2b       	or	r24, r25
    3f98:	87 b9       	out	0x07, r24	; 7
    R_DDR = Probes.Rl_1;                     /* enable Rl for drain */
    3f9a:	90 91 bb 01 	lds	r25, 0x01BB	; 0x8001bb <Probes+0x6>
    3f9e:	9a b9       	out	0x0a, r25	; 10

    if (Check.Type & TYPE_N_CHANNEL)    /* n-channel */
    3fa0:	20 91 02 01 	lds	r18, 0x0102	; 0x800102 <Check+0x1>
    3fa4:	20 ff       	sbrs	r18, 0
    3fa6:	58 c0       	rjmp	.+176    	; 0x4058 <CheckDepletionModeFET+0x354>
    {
      /* low-side switching */
      /* set probes: Gnd -- probe-2 / probe-1 -- Rl -- Vcc / probe-3 -- Gnd */
      ADC_PORT = 0;                     /* pull down source and gate directly */
    3fa8:	18 b8       	out	0x08, r1	; 8
      R_PORT = Probes.Rl_1;             /* pull up drain via Rl */
    3faa:	9b b9       	out	0x0b, r25	; 11
      U_1 = Cfg.Vcc - ReadU_20ms(Probes.Ch_1);    /* voltage at drain */
    3fac:	c0 91 8e 01 	lds	r28, 0x018E	; 0x80018e <Cfg+0x8>
    3fb0:	d0 91 8f 01 	lds	r29, 0x018F	; 0x80018f <Cfg+0x9>
    3fb4:	80 91 c4 01 	lds	r24, 0x01C4	; 0x8001c4 <Probes+0xf>
    3fb8:	0e 94 ca 0d 	call	0x1b94	; 0x1b94 <ReadU_20ms>
    3fbc:	9e 01       	movw	r18, r28
    3fbe:	28 1b       	sub	r18, r24
    3fc0:	39 0b       	sbc	r19, r25
    3fc2:	c9 01       	movw	r24, r18
      U_2 = (R_LOW * 10) + NV.RiH;      /* current sense resistor (0.1 Ohms) */
    3fc4:	40 91 c9 01 	lds	r20, 0x01C9	; 0x8001c9 <NV+0x2>
    3fc8:	50 91 ca 01 	lds	r21, 0x01CA	; 0x8001ca <NV+0x3>
      /* high-side switching */
      /* set probes: Gnd -- Rl -- probe-1 / probe-2 -- Vcc / probe-3 -- Vcc */
      ADC_PORT = Probes.Pin_2 | Probes.Pin_3;   /* pull up source & gate directly */
      R_PORT = 0;                       /* pull down drain via Rl */
      U_1 = ReadU_20ms(Probes.Ch_1);    /* voltage at drain */
      U_2 = (R_LOW * 10) + NV.RiL;      /* current sense resistor (0.1 Ohms) */
    3fcc:	40 57       	subi	r20, 0x70	; 112
    3fce:	55 4e       	sbci	r21, 0xE5	; 229
    }

    /* I = U / R_sense */
    Semi.I_value = (uint32_t)U_1 * 10000;    /* U (0.1 ÁV) */
    3fd0:	9c 01       	movw	r18, r24
    3fd2:	a0 e1       	ldi	r26, 0x10	; 16
    3fd4:	b7 e2       	ldi	r27, 0x27	; 39
    3fd6:	0e 94 4b 2d 	call	0x5a96	; 0x5a96 <__umulhisi3>
    Semi.I_value /= U_2;                     /* I = U / R (ÁA) */
    3fda:	9a 01       	movw	r18, r20
    3fdc:	50 e0       	ldi	r21, 0x00	; 0
    3fde:	40 e0       	ldi	r20, 0x00	; 0
    3fe0:	0e 94 04 2d 	call	0x5a08	; 0x5a08 <__udivmodsi4>
    3fe4:	20 93 ab 01 	sts	0x01AB, r18	; 0x8001ab <Semi+0x11>
    3fe8:	30 93 ac 01 	sts	0x01AC, r19	; 0x8001ac <Semi+0x12>
    3fec:	40 93 ad 01 	sts	0x01AD, r20	; 0x8001ad <Semi+0x13>
    3ff0:	50 93 ae 01 	sts	0x01AE, r21	; 0x8001ae <Semi+0x14>
    Semi.I_scale = -6;                       /* ÁA */
    3ff4:	8a ef       	ldi	r24, 0xFA	; 250
    3ff6:	80 93 af 01 	sts	0x01AF, r24	; 0x8001af <Semi+0x15>
     *  V_GS(off)
     *  - based on idea from Pieter-Tjerk de Boer (PA3FWM)
     */

    /* keep probes as above: probe-1 drain / probe-2 source / probe-3 gate */
    R_DDR = Probes.Rh_2 | Probes.Rh_3;       /* enable Rh for source and gate */
    3ffa:	80 91 bf 01 	lds	r24, 0x01BF	; 0x8001bf <Probes+0xa>
    3ffe:	90 91 c0 01 	lds	r25, 0x01C0	; 0x8001c0 <Probes+0xb>
    4002:	89 2b       	or	r24, r25
    4004:	8a b9       	out	0x0a, r24	; 10
    ADC_DDR = Probes.Pin_1;                  /* pull drain directly */
    4006:	90 91 c1 01 	lds	r25, 0x01C1	; 0x8001c1 <Probes+0xc>
    400a:	97 b9       	out	0x07, r25	; 7

    if (Check.Type & TYPE_N_CHANNEL)    /* n-channel */
    400c:	20 91 02 01 	lds	r18, 0x0102	; 0x800102 <Check+0x1>
    4010:	20 ff       	sbrs	r18, 0
    4012:	2d c0       	rjmp	.+90     	; 0x406e <CheckDepletionModeFET+0x36a>
    {
      /* set probes: probe-1 -- Vcc / Gnd -- Rh -- probe-2 / Gnd -- Rh -- probe-3 */
      R_PORT = 0;                            /* pull down source and gate via Rh */
    4014:	1b b8       	out	0x0b, r1	; 11
      ADC_PORT = Probes.Pin_1;               /* pull up drain directly */
    4016:	98 b9       	out	0x08, r25	; 8
      R_PORT = Probes.Rh_2 | Probes.Rh_3;    /* pull up source and gate via Rh */
      ADC_PORT = 0;                          /* pull down drain directly */
    }

    /* get voltages at source and gate */
    wait10ms();                         /* setting time */
    4018:	0e 94 28 2b 	call	0x5650	; 0x5650 <wait10ms>
    U_1 = ReadU(Probes.Ch_2);           /* voltage at source */
    401c:	80 91 c5 01 	lds	r24, 0x01C5	; 0x8001c5 <Probes+0x10>
    4020:	0e 94 61 0d 	call	0x1ac2	; 0x1ac2 <ReadU>
    4024:	ec 01       	movw	r28, r24
    U_2 = ReadU(Probes.Ch_3);           /* voltage at gate */
    4026:	80 91 c6 01 	lds	r24, 0x01C6	; 0x8001c6 <Probes+0x11>
    402a:	0e 94 61 0d 	call	0x1ac2	; 0x1ac2 <ReadU>

    /* U_GS(off) = U_G - U_S */
    Semi.U_3 = U_2 - U_1;               /* U_G - U_S (mV) */
    402e:	8c 1b       	sub	r24, r28
    4030:	9d 0b       	sbc	r25, r29
    4032:	90 93 a6 01 	sts	0x01A6, r25	; 0x8001a6 <Semi+0xc>
    4036:	80 93 a5 01 	sts	0x01A5, r24	; 0x8001a5 <Semi+0xb>

    if (Check.Type & TYPE_N_CHANNEL)    /* n-channel */
    403a:	20 91 02 01 	lds	r18, 0x0102	; 0x800102 <Check+0x1>
    403e:	20 ff       	sbrs	r18, 0
    4040:	19 c0       	rjmp	.+50     	; 0x4074 <CheckDepletionModeFET+0x370>
    {
      /* U_GS(off) should be negative and not exceed -4.8V (too close to Vcc) */
      if ((Semi.U_3 > 0) || (Semi.U_3 < -4800))
    4042:	80 54       	subi	r24, 0x40	; 64
    4044:	9d 4e       	sbci	r25, 0xED	; 237
    4046:	81 3c       	cpi	r24, 0xC1	; 193
    4048:	92 41       	sbci	r25, 0x12	; 18
    404a:	08 f4       	brcc	.+2      	; 0x404e <CheckDepletionModeFET+0x34a>
    404c:	77 cf       	rjmp	.-274    	; 0x3f3c <CheckDepletionModeFET+0x238>
      {
        Semi.U_3 = 0;                   /* invalid */
    404e:	10 92 a6 01 	sts	0x01A6, r1	; 0x8001a6 <Semi+0xc>
    4052:	10 92 a5 01 	sts	0x01A5, r1	; 0x8001a5 <Semi+0xb>
    4056:	72 cf       	rjmp	.-284    	; 0x3f3c <CheckDepletionModeFET+0x238>
    }
    else                                /* p-channel */
    {
      /* high-side switching */
      /* set probes: Gnd -- Rl -- probe-1 / probe-2 -- Vcc / probe-3 -- Vcc */
      ADC_PORT = Probes.Pin_2 | Probes.Pin_3;   /* pull up source & gate directly */
    4058:	88 b9       	out	0x08, r24	; 8
      R_PORT = 0;                       /* pull down drain via Rl */
    405a:	1b b8       	out	0x0b, r1	; 11
      U_1 = ReadU_20ms(Probes.Ch_1);    /* voltage at drain */
    405c:	80 91 c4 01 	lds	r24, 0x01C4	; 0x8001c4 <Probes+0xf>
    4060:	0e 94 ca 0d 	call	0x1b94	; 0x1b94 <ReadU_20ms>
      U_2 = (R_LOW * 10) + NV.RiL;      /* current sense resistor (0.1 Ohms) */
    4064:	40 91 c7 01 	lds	r20, 0x01C7	; 0x8001c7 <NV>
    4068:	50 91 c8 01 	lds	r21, 0x01C8	; 0x8001c8 <NV+0x1>
    406c:	af cf       	rjmp	.-162    	; 0x3fcc <CheckDepletionModeFET+0x2c8>
      ADC_PORT = Probes.Pin_1;               /* pull up drain directly */
    }
    else                                /* p-channel */
    {
      /* set probes: Gnd -- probe-1 / probe-2 -- Rh -- Vcc / probe-3 -- Rh -- Vcc */
      R_PORT = Probes.Rh_2 | Probes.Rh_3;    /* pull up source and gate via Rh */
    406e:	8b b9       	out	0x0b, r24	; 11
      ADC_PORT = 0;                          /* pull down drain directly */
    4070:	18 b8       	out	0x08, r1	; 8
    4072:	d2 cf       	rjmp	.-92     	; 0x4018 <CheckDepletionModeFET+0x314>
      }
    }    
    else                                /* p-channel */
    {
      /* U_GS(off) should be positive and not exceed 4.8V (too close to Vcc) */
      if ((Semi.U_3 < 0) || (Semi.U_3 > 4800))
    4074:	81 3c       	cpi	r24, 0xC1	; 193
    4076:	92 41       	sbci	r25, 0x12	; 18
    4078:	50 f7       	brcc	.-44     	; 0x404e <CheckDepletionModeFET+0x34a>
    407a:	60 cf       	rjmp	.-320    	; 0x3f3c <CheckDepletionModeFET+0x238>

0000407c <CheckThyristorTriac>:
 *  - 1 if component was found
 *  - 0 if component wasn't found
 */

uint8_t CheckThyristorTriac(void)
{
    407c:	ef 92       	push	r14
    407e:	ff 92       	push	r15
    4080:	0f 93       	push	r16
    4082:	1f 93       	push	r17
    4084:	cf 93       	push	r28
    4086:	df 93       	push	r29
   *  - SCR: probe-1 = A / probe-2 = C / probe-3 = G
   *  - TRIAC: probe-1 = MT2 / probe-2 = MT1 / probe-3 = G
   */

  /* V_GT (gate trigger voltage) */
  U_1 = ReadU(Probes.Ch_3);             /* voltage at gate */
    4088:	80 91 c6 01 	lds	r24, 0x01C6	; 0x8001c6 <Probes+0x11>
    408c:	0e 94 61 0d 	call	0x1ac2	; 0x1ac2 <ReadU>
    4090:	8c 01       	movw	r16, r24
  U_2 = ReadU(Probes.Ch_2);             /* voltage at cathode */
    4092:	80 91 c5 01 	lds	r24, 0x01C5	; 0x8001c5 <Probes+0x10>
    4096:	0e 94 61 0d 	call	0x1ac2	; 0x1ac2 <ReadU>
    409a:	7c 01       	movw	r14, r24
  V_GT = U_1 - U_2;                     /* = Ug - Uc */

  /* discharge gate and check load current */
  PullProbe(Probes.Rl_3, PULL_10MS | PULL_DOWN);    /* discharge gate */
    409c:	60 e1       	ldi	r22, 0x10	; 16
    409e:	80 91 bd 01 	lds	r24, 0x01BD	; 0x8001bd <Probes+0x8>
    40a2:	0e 94 7f 0f 	call	0x1efe	; 0x1efe <PullProbe>
  U_1 = ReadU_5ms(Probes.Ch_1);         /* get voltage at anode */
    40a6:	80 91 c4 01 	lds	r24, 0x01C4	; 0x8001c4 <Probes+0xf>
    40aa:	0e 94 c1 0d 	call	0x1b82	; 0x1b82 <ReadU_5ms>
    40ae:	ec 01       	movw	r28, r24

  /* simulate short loss of current and check load current again */ 
  R_PORT = 0;                           /* pull down anode */
    40b0:	1b b8       	out	0x0b, r1	; 11
  wait5ms();
    40b2:	0e 94 29 2b 	call	0x5652	; 0x5652 <wait5ms>
  R_PORT = Probes.Rl_1;                 /* and pull up anode again */
    40b6:	80 91 bb 01 	lds	r24, 0x01BB	; 0x8001bb <Probes+0x6>
    40ba:	8b b9       	out	0x0b, r24	; 11
  U_2 = ReadU_5ms(Probes.Ch_1);         /* get voltage at anode (below Rl) */
    40bc:	80 91 c4 01 	lds	r24, 0x01C4	; 0x8001c4 <Probes+0xf>
    40c0:	0e 94 c1 0d 	call	0x1b82	; 0x1b82 <ReadU_5ms>

  /* voltages at anode match behaviour of Thyristor or TRIAC */
  if ((U_1 < 1600) && (U_2 > 4400))
    40c4:	c0 34       	cpi	r28, 0x40	; 64
    40c6:	d6 40       	sbci	r29, 0x06	; 6
    40c8:	30 f0       	brcs	.+12     	; 0x40d6 <CheckThyristorTriac+0x5a>
 *  - 0 if component wasn't found
 */

uint8_t CheckThyristorTriac(void)
{
  uint8_t           Flag = 0;      /* return value */
    40ca:	80 e0       	ldi	r24, 0x00	; 0

    Flag = 1;                 /* signal success */
  }

  return Flag;
}
    40cc:	cd b7       	in	r28, 0x3d	; 61
    40ce:	de b7       	in	r29, 0x3e	; 62
    40d0:	e6 e0       	ldi	r30, 0x06	; 6
    40d2:	0c 94 94 2d 	jmp	0x5b28	; 0x5b28 <__epilogue_restores__+0x18>
  wait5ms();
  R_PORT = Probes.Rl_1;                 /* and pull up anode again */
  U_2 = ReadU_5ms(Probes.Ch_1);         /* get voltage at anode (below Rl) */

  /* voltages at anode match behaviour of Thyristor or TRIAC */
  if ((U_1 < 1600) && (U_2 > 4400))
    40d6:	81 33       	cpi	r24, 0x31	; 49
    40d8:	91 41       	sbci	r25, 0x11	; 17
    40da:	b8 f3       	brcs	.-18     	; 0x40ca <CheckThyristorTriac+0x4e>
     *  A Thyrister shouldn't conduct but a TRIAC should (Q3 operation mode).
     */

    /* reverse Anode and Cathode (MT2 and MT1) */
    /* set probes: Gnd -- probe-1 / probe-2 -- Rl -- Vcc  */
    R_DDR = 0;                          /* disable all probe resistors */
    40dc:	1a b8       	out	0x0a, r1	; 10
    R_PORT = 0;
    40de:	1b b8       	out	0x0b, r1	; 11
    ADC_PORT = Probes.Pin_2;            /* pull up Cathode directly */
    40e0:	80 91 c2 01 	lds	r24, 0x01C2	; 0x8001c2 <Probes+0xd>
    40e4:	88 b9       	out	0x08, r24	; 8
    wait5ms();
    40e6:	0e 94 29 2b 	call	0x5652	; 0x5652 <wait5ms>
    R_DDR = Probes.Rl_1;                /* pull down Anode via Rl */ 
    40ea:	80 91 bb 01 	lds	r24, 0x01BB	; 0x8001bb <Probes+0x6>
    40ee:	8a b9       	out	0x0a, r24	; 10
    /* probe-3 = gate is in HiZ mode */

    /* check if DUT doesn't conduct */
    U_1 = ReadU_5ms(Probes.Ch_1);       /* get voltage at Anode */
    40f0:	80 91 c4 01 	lds	r24, 0x01C4	; 0x8001c4 <Probes+0xf>
    40f4:	0e 94 c1 0d 	call	0x1b82	; 0x1b82 <ReadU_5ms>

    if (U_1 <= 244)      /* voltage at Anode is low (no current) */
    40f8:	85 3f       	cpi	r24, 0xF5	; 245
    40fa:	91 05       	cpc	r25, r1
    40fc:	30 f7       	brcc	.-52     	; 0x40ca <CheckThyristorTriac+0x4e>
    {
      /* trigger the gate with a negative current (TRIAC: Q3) */
      PullProbe(Probes.Rl_3, PULL_10MS | PULL_DOWN);
    40fe:	60 e1       	ldi	r22, 0x10	; 16
    4100:	80 91 bd 01 	lds	r24, 0x01BD	; 0x8001bd <Probes+0x8>
    4104:	0e 94 7f 0f 	call	0x1efe	; 0x1efe <PullProbe>

      /* check for conduction */
      U_1 = ReadU_5ms(Probes.Ch_1);     /* get voltage at Anode */
    4108:	80 91 c4 01 	lds	r24, 0x01C4	; 0x8001c4 <Probes+0xf>
    410c:	0e 94 c1 0d 	call	0x1b82	; 0x1b82 <ReadU_5ms>
    4110:	ec 01       	movw	r28, r24

      if (U_1 < 733)         /* no current -> Thyristor */
    4112:	cd 3d       	cpi	r28, 0xDD	; 221
    4114:	82 e0       	ldi	r24, 0x02	; 2
    4116:	d8 07       	cpc	r29, r24
    4118:	e0 f4       	brcc	.+56     	; 0x4152 <CheckThyristorTriac+0xd6>
      {
        Check.Found = COMP_THYRISTOR;   /* we found a Thyristor */
    411a:	82 e2       	ldi	r24, 0x22	; 34
    411c:	80 93 01 01 	sts	0x0101, r24	; 0x800101 <Check>
        Check.Done |= DONE_SEMI;        /* detected component */
    4120:	80 91 03 01 	lds	r24, 0x0103	; 0x800103 <Check+0x2>
    4124:	81 60       	ori	r24, 0x01	; 1
    4126:	80 93 03 01 	sts	0x0103, r24	; 0x800103 <Check+0x2>
  }

  if (Flag == 2)         /* save data and signal success */
  {
    /* save data */
    Semi.A = Probes.ID_3;     /* probe ID for Gate */
    412a:	80 91 b7 01 	lds	r24, 0x01B7	; 0x8001b7 <Probes+0x2>
    412e:	80 93 9a 01 	sts	0x019A, r24	; 0x80019a <Semi>
    Semi.B = Probes.ID_1;     /* probe ID for Anode/MT2 */
    4132:	80 91 b5 01 	lds	r24, 0x01B5	; 0x8001b5 <Probes>
    4136:	80 93 9b 01 	sts	0x019B, r24	; 0x80019b <Semi+0x1>
    Semi.C = Probes.ID_2;     /* probe ID for Cathode/MT1 */
    413a:	80 91 b6 01 	lds	r24, 0x01B6	; 0x8001b6 <Probes+0x1>
    413e:	80 93 9c 01 	sts	0x019C, r24	; 0x80019c <Semi+0x2>
   */

  /* V_GT (gate trigger voltage) */
  U_1 = ReadU(Probes.Ch_3);             /* voltage at gate */
  U_2 = ReadU(Probes.Ch_2);             /* voltage at cathode */
  V_GT = U_1 - U_2;                     /* = Ug - Uc */
    4142:	0e 19       	sub	r16, r14
    4144:	1f 09       	sbc	r17, r15
  {
    /* save data */
    Semi.A = Probes.ID_3;     /* probe ID for Gate */
    Semi.B = Probes.ID_1;     /* probe ID for Anode/MT2 */
    Semi.C = Probes.ID_2;     /* probe ID for Cathode/MT1 */
    Semi.U_1 = V_GT;          /* gate trigger voltage (in mV) */
    4146:	10 93 a2 01 	sts	0x01A2, r17	; 0x8001a2 <Semi+0x8>
    414a:	00 93 a1 01 	sts	0x01A1, r16	; 0x8001a1 <Semi+0x7>
            Semi.F_1 = U_1;        /* update reference value */
            Flag = 2;              /* save data and signal success */
          }
          else                     /* wrong pinout */
          {
            Flag = 1;              /* signal success, but don't save data */
    414e:	81 e0       	ldi	r24, 0x01	; 1
    Semi.U_1 = V_GT;          /* gate trigger voltage (in mV) */

    Flag = 1;                 /* signal success */
  }

  return Flag;
    4150:	bd cf       	rjmp	.-134    	; 0x40cc <CheckThyristorTriac+0x50>
         *  To verify the TRIAC we stop the current flow for a moment and check
         *  the voltage at MT2 again. The TRIAC shouldn't conduct anymore.
         */

        /* drop load current for a moment */
        R_PORT = Probes.Rl_1;           /* pull up MT2 via Rl */
    4152:	80 91 bb 01 	lds	r24, 0x01BB	; 0x8001bb <Probes+0x6>
    4156:	8b b9       	out	0x0b, r24	; 11
        wait5ms();
    4158:	0e 94 29 2b 	call	0x5652	; 0x5652 <wait5ms>
        R_PORT = 0;                     /* and pull down MT2 via Rl */
    415c:	1b b8       	out	0x0b, r1	; 11

        /* and check load current again */
        U_2 = ReadU_5ms(Probes.Ch_1);   /* get voltage at MT2 */
    415e:	80 91 c4 01 	lds	r24, 0x01C4	; 0x8001c4 <Probes+0xf>
    4162:	0e 94 c1 0d 	call	0x1b82	; 0x1b82 <ReadU_5ms>

        if (U_2 <= 244)       /* no current */
    4166:	85 3f       	cpi	r24, 0xF5	; 245
    4168:	91 05       	cpc	r25, r1
    416a:	08 f0       	brcs	.+2      	; 0x416e <CheckThyristorTriac+0xf2>
    416c:	ae cf       	rjmp	.-164    	; 0x40ca <CheckThyristorTriac+0x4e>
        {
          if (Check.Found == COMP_TRIAC)     /* second test run */
    416e:	80 91 01 01 	lds	r24, 0x0101	; 0x800101 <Check>
    4172:	81 32       	cpi	r24, 0x21	; 33
    4174:	29 f4       	brne	.+10     	; 0x4180 <CheckThyristorTriac+0x104>
          {
            Check.Done |= DONE_SEMI;         /* no more tests needed */
    4176:	80 91 03 01 	lds	r24, 0x0103	; 0x800103 <Check+0x2>
    417a:	81 60       	ori	r24, 0x01	; 1
    417c:	80 93 03 01 	sts	0x0103, r24	; 0x800103 <Check+0x2>
          }

          Check.Found = COMP_TRIAC;     /* found TRIAC */
    4180:	81 e2       	ldi	r24, 0x21	; 33
    4182:	80 93 01 01 	sts	0x0101, r24	; 0x800101 <Check>
           *  usually have different trigger currents for different operation
           *  quadrants and that some don't support Q4. So we perform up to two test
           *  runs and prefer the one with the higher voltage at MT2.
           */

          if (U_1 > (uint16_t)Semi.F_1)      /* first run or higher current */
    4186:	80 91 a7 01 	lds	r24, 0x01A7	; 0x8001a7 <Semi+0xd>
    418a:	90 91 a8 01 	lds	r25, 0x01A8	; 0x8001a8 <Semi+0xe>
    418e:	8c 17       	cp	r24, r28
    4190:	9d 07       	cpc	r25, r29
    4192:	e8 f6       	brcc	.-70     	; 0x414e <CheckThyristorTriac+0xd2>
          {
            Semi.F_1 = U_1;        /* update reference value */
    4194:	ce 01       	movw	r24, r28
    4196:	b0 e0       	ldi	r27, 0x00	; 0
    4198:	a0 e0       	ldi	r26, 0x00	; 0
    419a:	80 93 a7 01 	sts	0x01A7, r24	; 0x8001a7 <Semi+0xd>
    419e:	90 93 a8 01 	sts	0x01A8, r25	; 0x8001a8 <Semi+0xe>
    41a2:	a0 93 a9 01 	sts	0x01A9, r26	; 0x8001a9 <Semi+0xf>
    41a6:	b0 93 aa 01 	sts	0x01AA, r27	; 0x8001aa <Semi+0x10>
    41aa:	bf cf       	rjmp	.-130    	; 0x412a <CheckThyristorTriac+0xae>

000041ac <CheckPUT>:
/*
 *  check for PUT (Programmable Unijunction Transistor)
 */

void CheckPUT(void)
{
    41ac:	ef 92       	push	r14
    41ae:	ff 92       	push	r15
    41b0:	0f 93       	push	r16
    41b2:	1f 93       	push	r17
    41b4:	cf 93       	push	r28
    41b6:	df 93       	push	r29
   *  TRIAC will pass this test too, but PUT won't pass TRIAC check
   *  todo: if Check.Found == TRIAC -> return?
   */

  /* get Uf */
  U_2 = ReadU(Probes.Ch_1);          /* voltage at Anode */
    41b8:	80 91 c4 01 	lds	r24, 0x01C4	; 0x8001c4 <Probes+0xf>
    41bc:	0e 94 61 0d 	call	0x1ac2	; 0x1ac2 <ReadU>
    41c0:	ec 01       	movw	r28, r24
  U_3 = U_2;
  U_1 = ReadU(Probes.Ch_2);          /* voltage at Cathode */
    41c2:	80 91 c5 01 	lds	r24, 0x01C5	; 0x8001c5 <Probes+0x10>
    41c6:	0e 94 61 0d 	call	0x1ac2	; 0x1ac2 <ReadU>
    41ca:	7c 01       	movw	r14, r24
  U_2 -= U_1;                        /* Uf = U_A - U_C */

  /* get offset voltage V_T */
  U_1 = ReadU(Probes.Ch_3);          /* voltage at Gate */  
    41cc:	80 91 c6 01 	lds	r24, 0x01C6	; 0x8001c6 <Probes+0x11>
    41d0:	0e 94 61 0d 	call	0x1ac2	; 0x1ac2 <ReadU>
    41d4:	8c 01       	movw	r16, r24
   *  If this is a PUT, it should stop conduction when we pull up
   *  the gate carefully.
   */

  /* set probes: Gnd -- Rl -- probe-2 / probe-1 -- Vcc / probe-3 -- Rh -- Vcc */
  ADC_DDR = 0;                          /* set HiZ */
    41d6:	17 b8       	out	0x07, r1	; 7
  ADC_PORT = Probes.Pin_1;              /* pull up Anode directly */
    41d8:	80 91 c1 01 	lds	r24, 0x01C1	; 0x8001c1 <Probes+0xc>
    41dc:	88 b9       	out	0x08, r24	; 8
  R_PORT = Probes.Rh_3;
    41de:	90 91 c0 01 	lds	r25, 0x01C0	; 0x8001c0 <Probes+0xb>
    41e2:	9b b9       	out	0x0b, r25	; 11
  R_DDR = Probes.Rl_2 | Probes.Rh_3;    /* pull up Gate, pull down Cathode */
    41e4:	80 91 bc 01 	lds	r24, 0x01BC	; 0x8001bc <Probes+0x7>
    41e8:	89 2b       	or	r24, r25
    41ea:	8a b9       	out	0x0a, r24	; 10
  MilliSleep(50);                       /* wait */
    41ec:	82 e3       	ldi	r24, 0x32	; 50
    41ee:	90 e0       	ldi	r25, 0x00	; 0
    41f0:	0e 94 0b 09 	call	0x1216	; 0x1216 <MilliSleep>
  ADC_DDR = Probes.Pin_1;               /* enable pull-up for Anode */
    41f4:	80 91 c1 01 	lds	r24, 0x01C1	; 0x8001c1 <Probes+0xc>
    41f8:	87 b9       	out	0x07, r24	; 7
  U_1 = ReadU(Probes.Ch_2);             /* get voltage at Rl */
    41fa:	80 91 c5 01 	lds	r24, 0x01C5	; 0x8001c5 <Probes+0x10>
    41fe:	0e 94 61 0d 	call	0x1ac2	; 0x1ac2 <ReadU>

  if (U_1 < 10)             /* no conduction */
    4202:	0a 97       	sbiw	r24, 0x0a	; 10
    4204:	e0 f4       	brcc	.+56     	; 0x423e <CheckPUT+0x92>
  {
    Check.AltFound = COMP_PUT;     /* found PUT */
    4206:	83 e2       	ldi	r24, 0x23	; 35
    4208:	80 93 04 01 	sts	0x0104, r24	; 0x800104 <Check+0x3>
    #ifdef SW_SYMBOLS
    Check.AltSymbol = SYMBOL_PUT;  /* set symbol ID */
    #endif
    
    /* save data */
    AltSemi.A = Probes.ID_3;       /* probe ID for Gate */
    420c:	80 91 b7 01 	lds	r24, 0x01B7	; 0x8001b7 <Probes+0x2>
    4210:	80 93 25 01 	sts	0x0125, r24	; 0x800125 <AltSemi>
    AltSemi.B = Probes.ID_1;       /* probe ID for Anode */
    4214:	80 91 b5 01 	lds	r24, 0x01B5	; 0x8001b5 <Probes>
    4218:	80 93 26 01 	sts	0x0126, r24	; 0x800126 <AltSemi+0x1>
    AltSemi.C = Probes.ID_2;       /* probe ID for Cathode */
    421c:	80 91 b6 01 	lds	r24, 0x01B6	; 0x8001b6 <Probes+0x1>
    4220:	80 93 27 01 	sts	0x0127, r24	; 0x800127 <AltSemi+0x2>

  /* get Uf */
  U_2 = ReadU(Probes.Ch_1);          /* voltage at Anode */
  U_3 = U_2;
  U_1 = ReadU(Probes.Ch_2);          /* voltage at Cathode */
  U_2 -= U_1;                        /* Uf = U_A - U_C */
    4224:	ce 01       	movw	r24, r28
    4226:	8e 19       	sub	r24, r14
    4228:	9f 09       	sbc	r25, r15
    
    /* save data */
    AltSemi.A = Probes.ID_3;       /* probe ID for Gate */
    AltSemi.B = Probes.ID_1;       /* probe ID for Anode */
    AltSemi.C = Probes.ID_2;       /* probe ID for Cathode */
    AltSemi.U_1 = U_2;             /* U_f */
    422a:	90 93 29 01 	sts	0x0129, r25	; 0x800129 <AltSemi+0x4>
    422e:	80 93 28 01 	sts	0x0128, r24	; 0x800128 <AltSemi+0x3>
  U_1 = ReadU(Probes.Ch_2);          /* voltage at Cathode */
  U_2 -= U_1;                        /* Uf = U_A - U_C */

  /* get offset voltage V_T */
  U_1 = ReadU(Probes.Ch_3);          /* voltage at Gate */  
  U_3 -= U_1;                        /* V_T = U_A - U_G */
    4232:	c0 1b       	sub	r28, r16
    4234:	d1 0b       	sbc	r29, r17
    /* save data */
    AltSemi.A = Probes.ID_3;       /* probe ID for Gate */
    AltSemi.B = Probes.ID_1;       /* probe ID for Anode */
    AltSemi.C = Probes.ID_2;       /* probe ID for Cathode */
    AltSemi.U_1 = U_2;             /* U_f */
    AltSemi.U_2 = U_3;             /* V_T */
    4236:	d0 93 2b 01 	sts	0x012B, r29	; 0x80012b <AltSemi+0x6>
    423a:	c0 93 2a 01 	sts	0x012A, r28	; 0x80012a <AltSemi+0x5>
  }
}
    423e:	cd b7       	in	r28, 0x3d	; 61
    4240:	de b7       	in	r29, 0x3e	; 62
    4242:	e6 e0       	ldi	r30, 0x06	; 6
    4244:	0c 94 94 2d 	jmp	0x5b28	; 0x5b28 <__epilogue_restores__+0x18>

00004248 <CheckUJT>:
/*
 *  check for UJT (Unijunction Transistor)
 */

void CheckUJT(void)
{
    4248:	ef 92       	push	r14
    424a:	0f 93       	push	r16
    424c:	1f 93       	push	r17
    424e:	cf 93       	push	r28
    4250:	df 93       	push	r29
  /*
   *  Measure R_BB
   *  - At this point we shouldn't have found any resistors.
   */

  if (Check.Resistors == 0)        /*áno resistors found yet */
    4252:	80 91 05 01 	lds	r24, 0x0105	; 0x800105 <Check+0x4>
    4256:	81 11       	cpse	r24, r1
    4258:	3b c0       	rjmp	.+118    	; 0x42d0 <CheckUJT+0x88>
  {
    CheckResistor();               /* measure R_BB (between probe-1 and probe-2) */
    425a:	0e 94 de 12 	call	0x25bc	; 0x25bc <CheckResistor>

    if (Check.Resistors == 1)      /* got resistance */
    425e:	80 91 05 01 	lds	r24, 0x0105	; 0x800105 <Check+0x4>
    4262:	81 30       	cpi	r24, 0x01	; 1
    4264:	a9 f5       	brne	.+106    	; 0x42d0 <CheckUJT+0x88>
    {
      /* check for 3 - 15 kOhms */
      if (CmpValue(Resistors[0].Value, Resistors[0].Scale, 3000, 0) == 1)
    4266:	60 91 0d 01 	lds	r22, 0x010D	; 0x80010d <Resistors+0x3>
    426a:	70 91 0e 01 	lds	r23, 0x010E	; 0x80010e <Resistors+0x4>
    426e:	80 91 0f 01 	lds	r24, 0x010F	; 0x80010f <Resistors+0x5>
    4272:	90 91 10 01 	lds	r25, 0x0110	; 0x800110 <Resistors+0x6>
    4276:	e1 2c       	mov	r14, r1
    4278:	08 eb       	ldi	r16, 0xB8	; 184
    427a:	1b e0       	ldi	r17, 0x0B	; 11
    427c:	20 e0       	ldi	r18, 0x00	; 0
    427e:	30 e0       	ldi	r19, 0x00	; 0
    4280:	40 91 0c 01 	lds	r20, 0x010C	; 0x80010c <Resistors+0x2>
    4284:	0e 94 a6 06 	call	0xd4c	; 0xd4c <CmpValue>
    4288:	81 30       	cpi	r24, 0x01	; 1
    428a:	41 f5       	brne	.+80     	; 0x42dc <CheckUJT+0x94>
      {
        if (CmpValue(Resistors[0].Value, Resistors[0].Scale, 15000, 0) == -1)
    428c:	60 91 0d 01 	lds	r22, 0x010D	; 0x80010d <Resistors+0x3>
    4290:	70 91 0e 01 	lds	r23, 0x010E	; 0x80010e <Resistors+0x4>
    4294:	80 91 0f 01 	lds	r24, 0x010F	; 0x80010f <Resistors+0x5>
    4298:	90 91 10 01 	lds	r25, 0x0110	; 0x800110 <Resistors+0x6>
    429c:	08 e9       	ldi	r16, 0x98	; 152
    429e:	1a e3       	ldi	r17, 0x3A	; 58
    42a0:	20 e0       	ldi	r18, 0x00	; 0
    42a2:	30 e0       	ldi	r19, 0x00	; 0
    42a4:	40 91 0c 01 	lds	r20, 0x010C	; 0x80010c <Resistors+0x2>
    42a8:	0e 94 a6 06 	call	0xd4c	; 0xd4c <CmpValue>
    42ac:	8f 3f       	cpi	r24, 0xFF	; 255
    42ae:	b1 f4       	brne	.+44     	; 0x42dc <CheckUJT+0x94>
        {
          Flag = 1;      /* more checks required */
        }
      }

      Check.Resistors = 0;         /* reset counter */
    42b0:	10 92 05 01 	sts	0x0105, r1	; 0x800105 <Check+0x4>

  if (Flag)                   /* next check */
  {
    /* measure Emitter reverse current (Rl + RiL as shunt) */
    /* set probes: probe-1 -- Vcc / probe-2 -- HiZ / Gnd -- Rl -- probe-3 */
    R_PORT = 0;
    42b4:	1b b8       	out	0x0b, r1	; 11
    R_DDR = Probes.Rl_3;                /* pull down E via Rl */
    42b6:	80 91 bd 01 	lds	r24, 0x01BD	; 0x8001bd <Probes+0x8>
    42ba:	8a b9       	out	0x0a, r24	; 10
    ADC_PORT = Probes.Pin_1;
    42bc:	80 91 c1 01 	lds	r24, 0x01C1	; 0x8001c1 <Probes+0xc>
    42c0:	88 b9       	out	0x08, r24	; 8
    ADC_DDR = Probes.Pin_1;             /* pull up B2 directly */
    42c2:	87 b9       	out	0x07, r24	; 7
    U_1 = ReadU_5ms(Probes.Ch_3);       /* voltage at E */
    42c4:	80 91 c6 01 	lds	r24, 0x01C6	; 0x8001c6 <Probes+0x11>
    42c8:	0e 94 c1 0d 	call	0x1b82	; 0x1b82 <ReadU_5ms>

    if (U_1 > 14)                       /* > 14mV (20ÁA) */
    42cc:	0f 97       	sbiw	r24, 0x0f	; 15
    42ce:	48 f0       	brcs	.+18     	; 0x42e2 <CheckUJT+0x9a>
          /* R_BB is stored in Resistors[0] */
        }
      }
    }
  }
}
    42d0:	df 91       	pop	r29
    42d2:	cf 91       	pop	r28
    42d4:	1f 91       	pop	r17
    42d6:	0f 91       	pop	r16
    42d8:	ef 90       	pop	r14
    42da:	08 95       	ret
        {
          Flag = 1;      /* more checks required */
        }
      }

      Check.Resistors = 0;         /* reset counter */
    42dc:	10 92 05 01 	sts	0x0105, r1	; 0x800105 <Check+0x4>
    42e0:	f7 cf       	rjmp	.-18     	; 0x42d0 <CheckUJT+0x88>
  if (Flag)                   /* next check */
  {
    /* switched off, only R_BB */
    /* set probes: Gnd -- Rl -- probe-2 / probe-1 -- Vcc / probe-3 -- HiZ */
                                        /* R_PORT is already 0 */
    R_DDR = Probes.Rl_2;                /* pull down B1 via Rl */
    42e2:	80 91 bc 01 	lds	r24, 0x01BC	; 0x8001bc <Probes+0x7>
    42e6:	8a b9       	out	0x0a, r24	; 10
                                        /* B2 is already pulled up directly */ 
    U_1 = ReadU_5ms(Probes.Ch_2);       /* voltage at B1 */
    42e8:	80 91 c5 01 	lds	r24, 0x01C5	; 0x8001c5 <Probes+0x10>
    42ec:	0e 94 c1 0d 	call	0x1b82	; 0x1b82 <ReadU_5ms>
    42f0:	ec 01       	movw	r28, r24

    /* switched on */
    /* set probes: Gnd -- Rl -- probe-2 / probe-1 -- Vcc / probe-3 -- Rl - Vcc */
    R_PORT = Probes.Rl_3;
    42f2:	90 91 bd 01 	lds	r25, 0x01BD	; 0x8001bd <Probes+0x8>
    42f6:	9b b9       	out	0x0b, r25	; 11
    R_DDR = Probes.Rl_2 | Probes.Rl_3;  /* and pull up E via Rl */
    42f8:	80 91 bc 01 	lds	r24, 0x01BC	; 0x8001bc <Probes+0x7>
    42fc:	89 2b       	or	r24, r25
    42fe:	8a b9       	out	0x0a, r24	; 10
    U_2 = ReadU_5ms(Probes.Ch_2);       /* voltage at B1 */
    4300:	80 91 c5 01 	lds	r24, 0x01C5	; 0x8001c5 <Probes+0x10>
    4304:	0e 94 c1 0d 	call	0x1b82	; 0x1b82 <ReadU_5ms>

    /* compare currents (voltage drop across Rl) */
    if (U_2 > U_1)            /* I_on > I_off */
    4308:	c8 17       	cp	r28, r24
    430a:	d9 07       	cpc	r29, r25
    430c:	08 f7       	brcc	.-62     	; 0x42d0 <CheckUJT+0x88>
    {
      U_3 = U_2 - U_1;        /* get difference */
    430e:	9c 01       	movw	r18, r24
    4310:	2c 1b       	sub	r18, r28
    4312:	3d 0b       	sbc	r19, r29
      if (U_3 > 1000)         /* more than 1V (1.4mA) */
    4314:	29 3e       	cpi	r18, 0xE9	; 233
    4316:	33 40       	sbci	r19, 0x03	; 3
    4318:	d8 f2       	brcs	.-74     	; 0x42d0 <CheckUJT+0x88>
        /*
         *  This seems to be an UJT, but we need a second test run with
         *  reversed B1-B2 to find the proper pinout.  
         */

        if (Check.AltFound == COMP_UJT) /* second test run */
    431a:	20 91 04 01 	lds	r18, 0x0104	; 0x800104 <Check+0x3>
    431e:	24 32       	cpi	r18, 0x24	; 36
    4320:	a1 f0       	breq	.+40     	; 0x434a <CheckUJT+0x102>
          }
        }

        if (Flag)             /* update data */
        {
          Check.AltFound = COMP_UJT;         /* it's an UJT */
    4322:	24 e2       	ldi	r18, 0x24	; 36
    4324:	20 93 04 01 	sts	0x0104, r18	; 0x800104 <Check+0x3>
          #ifdef SW_SYMBOLS
          Check.AltSymbol = SYMBOL_UJT;      /* set symbol ID */
          #endif

          /* save data */
          AltSemi.A = Probes.ID_3;      /* probe ID for Emitter */
    4328:	20 91 b7 01 	lds	r18, 0x01B7	; 0x8001b7 <Probes+0x2>
    432c:	20 93 25 01 	sts	0x0125, r18	; 0x800125 <AltSemi>
          AltSemi.B = Probes.ID_1;      /* probe ID for B2 */
    4330:	20 91 b5 01 	lds	r18, 0x01B5	; 0x8001b5 <Probes>
    4334:	20 93 26 01 	sts	0x0126, r18	; 0x800126 <AltSemi+0x1>
          AltSemi.C = Probes.ID_2;      /* probe ID for B1 */
    4338:	20 91 b6 01 	lds	r18, 0x01B6	; 0x8001b6 <Probes+0x1>
    433c:	20 93 27 01 	sts	0x0127, r18	; 0x800127 <AltSemi+0x2>
          AltSemi.U_1 = U_2;            /* voltage drop when switched on */
    4340:	90 93 29 01 	sts	0x0129, r25	; 0x800129 <AltSemi+0x4>
    4344:	80 93 28 01 	sts	0x0128, r24	; 0x800128 <AltSemi+0x3>
    4348:	c3 cf       	rjmp	.-122    	; 0x42d0 <CheckUJT+0x88>
         *  reversed B1-B2 to find the proper pinout.  
         */

        if (Check.AltFound == COMP_UJT) /* second test run */
        {
          Check.Done |= DONE_ALTSEMI;   /* no more tests needed */
    434a:	20 91 03 01 	lds	r18, 0x0103	; 0x800103 <Check+0x2>
    434e:	22 60       	ori	r18, 0x02	; 2
    4350:	20 93 03 01 	sts	0x0103, r18	; 0x800103 <Check+0x2>

          /* compare voltage drops for B1/B2 detection */
          if (AltSemi.U_1 > U_2)        /* larger voltage wins */
    4354:	20 91 28 01 	lds	r18, 0x0128	; 0x800128 <AltSemi+0x3>
    4358:	30 91 29 01 	lds	r19, 0x0129	; 0x800129 <AltSemi+0x4>
    435c:	82 17       	cp	r24, r18
    435e:	93 07       	cpc	r25, r19
    4360:	00 f7       	brcc	.-64     	; 0x4322 <CheckUJT+0xda>
    4362:	b6 cf       	rjmp	.-148    	; 0x42d0 <CheckUJT+0x88>

00004364 <MeasureInductance>:
 *  - 1 if inductance is too high (not implemented)
 *  - 0 on any problem
 */

uint8_t MeasureInductance(uint32_t *Time, uint8_t Mode)
{
    4364:	b0 e0       	ldi	r27, 0x00	; 0
    4366:	a0 e0       	ldi	r26, 0x00	; 0
    4368:	e8 eb       	ldi	r30, 0xB8	; 184
    436a:	f1 e2       	ldi	r31, 0x21	; 33
    436c:	0c 94 76 2d 	jmp	0x5aec	; 0x5aec <__prologue_saves__+0x14>
  uint16_t          Ticks_L;       /* timer counter */
  uint16_t          Ticks_H;       /* timer overflow counter */
  uint32_t          Counter;       /* counter */

  /* sanity check */
  if (Time == NULL) return 0;
    4370:	00 97       	sbiw	r24, 0x00	; 0
    4372:	39 f4       	brne	.+14     	; 0x4382 <MeasureInductance+0x1e>
    4374:	10 e0       	ldi	r17, 0x00	; 0

  /* update reference source for next ADC run */
  Cfg.Ref = ADC_REF_BANDGAP;       /* we've used the bandgap reference */

  return Flag;
}
    4376:	81 2f       	mov	r24, r17
    4378:	cd b7       	in	r28, 0x3d	; 61
    437a:	de b7       	in	r29, 0x3e	; 62
    437c:	e8 e0       	ldi	r30, 0x08	; 8
    437e:	0c 94 92 2d 	jmp	0x5b24	; 0x5b24 <__epilogue_restores__+0x14>
    4382:	16 2f       	mov	r17, r22
    4384:	ec 01       	movw	r28, r24
  uint32_t          Counter;       /* counter */

  /* sanity check */
  if (Time == NULL) return 0;

  DischargeProbes();                    /* try to discharge probes */
    4386:	0e 94 d4 0e 	call	0x1da8	; 0x1da8 <DischargeProbes>
  if (Check.Found == COMP_ERROR) return 0;
    438a:	80 91 01 01 	lds	r24, 0x0101	; 0x800101 <Check>
    438e:	81 30       	cpi	r24, 0x01	; 1
    4390:	89 f3       	breq	.-30     	; 0x4374 <MeasureInductance+0x10>
  /*
   *  init hardware
   */

  /* set probes: Gnd -- (Rl) -- probe-2 / Gnd -- probe-1 */
  R_PORT = 0;                           /* set resistor port to low */
    4392:	1b b8       	out	0x0b, r1	; 11
  ADC_PORT = 0;                         /* set ADC port to low */
    4394:	18 b8       	out	0x08, r1	; 8
    4396:	80 91 c1 01 	lds	r24, 0x01C1	; 0x8001c1 <Probes+0xc>

  if (Mode & MODE_LOW_CURRENT)     /* low current */
    439a:	01 2f       	mov	r16, r17
    439c:	01 70       	andi	r16, 0x01	; 1
    439e:	10 ff       	sbrs	r17, 0
    43a0:	aa c0       	rjmp	.+340    	; 0x44f6 <MeasureInductance+0x192>
  {
    /* set probes: Gnd -- Rl -- probe-2 / Gnd -- probe-1 */
    R_DDR = Probes.Rl_2;                /* pull down probe-2 via Rl */
    43a2:	90 91 bc 01 	lds	r25, 0x01BC	; 0x8001bc <Probes+0x7>
    43a6:	9a b9       	out	0x0a, r25	; 10
  else                             /* high current */
  {
    /* set probes: Gnd -- probe-2 / Gnd -- probe-1 */
    R_DDR = 0;                          /* disable probe resistors */
    /* pull down probe-1 and probe-2 directly */
    ADC_DDR = Probes.Pin_1 | Probes.Pin_2;
    43a8:	87 b9       	out	0x07, r24	; 7
  }

  /* set up analog comparator */
  ADCSRA = ADC_CLOCK_DIV;               /* disable ADC, but keep clock dividers */
    43aa:	86 e0       	ldi	r24, 0x06	; 6
    43ac:	80 93 7a 00 	sts	0x007A, r24	; 0x80007a <__TEXT_REGION_LENGTH__+0x7f807a>
  ADCSRB = (1 << ACME);                 /* use ADC multiplexer as negative input */
    43b0:	80 e4       	ldi	r24, 0x40	; 64
    43b2:	80 93 7b 00 	sts	0x007B, r24	; 0x80007b <__TEXT_REGION_LENGTH__+0x7f807b>
  ADMUX = ADC_REF_BANDGAP | Probes.Ch_2;     /* switch ADC multiplexer to probe-2 */
    43b6:	80 91 c5 01 	lds	r24, 0x01C5	; 0x8001c5 <Probes+0x10>
    43ba:	80 6c       	ori	r24, 0xC0	; 192
    43bc:	80 93 7c 00 	sts	0x007C, r24	; 0x80007c <__TEXT_REGION_LENGTH__+0x7f807c>
                                        /* and set AREF to bandgap reference */
  ACSR = (1 << ACBG) | (1 << ACIC);     /* use bandgap as positive input, trigger timer1 */
    43c0:	84 e4       	ldi	r24, 0x44	; 68
    43c2:	80 bf       	out	0x30, r24	; 48
  #ifndef ADC_LARGE_BUFFER_CAP
    /* buffer cap: 1nF or none at all */
    wait1ms();                          /* time for voltage stabilization */
    43c4:	0e 94 2d 2b 	call	0x565a	; 0x565a <wait1ms>
  #else
    /* buffer cap: 100nF */
    wait10ms();                         /* time for voltage stabilization */
  #endif
  wdt_reset();                          /* reset watchdog */
    43c8:	a8 95       	wdr
  /*
   *  set up timer
   */

  Ticks_H = 0;                          /* reset timer overflow counter */
  TCCR1A = 0;                           /* set default mode */
    43ca:	10 92 80 00 	sts	0x0080, r1	; 0x800080 <__TEXT_REGION_LENGTH__+0x7f8080>
  TCCR1B = 0;                           /* set more timer modes */
    43ce:	10 92 81 00 	sts	0x0081, r1	; 0x800081 <__TEXT_REGION_LENGTH__+0x7f8081>
  /* timer stopped, falling edge detection, noise canceler disabled */
  TCNT1 = 0;                            /* set Counter1 to 0 */
    43d2:	10 92 85 00 	sts	0x0085, r1	; 0x800085 <__TEXT_REGION_LENGTH__+0x7f8085>
    43d6:	10 92 84 00 	sts	0x0084, r1	; 0x800084 <__TEXT_REGION_LENGTH__+0x7f8084>
  /* clear all flags (input capture, compare A & B, overflow */
  TIFR1 = (1 << ICF1) | (1 << OCF1B) | (1 << OCF1A) | (1 << TOV1);
    43da:	87 e2       	ldi	r24, 0x27	; 39
    43dc:	86 bb       	out	0x16, r24	; 22
    43de:	90 91 c1 01 	lds	r25, 0x01C1	; 0x8001c1 <Probes+0xc>

  if (Mode & MODE_DELAYED_START)        /* delayed start */
    43e2:	61 2f       	mov	r22, r17
    43e4:	64 70       	andi	r22, 0x04	; 4
    43e6:	12 ff       	sbrs	r17, 2
    43e8:	8b c0       	rjmp	.+278    	; 0x4500 <MeasureInductance+0x19c>
  {
    Test = MCU_CYCLES_PER_US;           /* MCU cycles per Ás */

    /* change probes: Gnd -- (Rl) -- probe-2 / probe-1 -- Vcc */
    ADC_PORT = Probes.Pin_1;            /* pull up probe-1 directly */
    43ea:	98 b9       	out	0x08, r25	; 8
	...
    {
      Test--;
      asm volatile("nop");              /* 1 MCU cycle */
    }

    TCCR1B |= (1 << CS10);              /* start timer (1/1 clock divider) */
    43fc:	80 91 81 00 	lds	r24, 0x0081	; 0x800081 <__TEXT_REGION_LENGTH__+0x7f8081>
    4400:	81 60       	ori	r24, 0x01	; 1
    4402:	80 93 81 00 	sts	0x0081, r24	; 0x800081 <__TEXT_REGION_LENGTH__+0x7f8081>
 *  - 1 if inductance is too high (not implemented)
 *  - 0 on any problem
 */

uint8_t MeasureInductance(uint32_t *Time, uint8_t Mode)
{
    4406:	90 e0       	ldi	r25, 0x00	; 0
    4408:	80 e0       	ldi	r24, 0x00	; 0

    /* detect timer overflow by checking the overflow flag */
    if (Test & (1 << TOV1))
    {
      /* happens at 65.536ms for 1MHz or 8.192ms for 8MHz */
      TIFR1 = (1 << TOV1);              /* reset flag */
    440a:	21 e0       	ldi	r18, 0x01	; 1
   *  - detect timer overflows
   */

  while (1)
  {
    Test = TIFR1;                       /* get timer1 flags */
    440c:	46 b3       	in	r20, 0x16	; 22

    /* end loop if input capture flag is set (= same voltage) */
    if (Test & (1 << ICF1)) break;
    440e:	45 fd       	sbrc	r20, 5
    4410:	7e c0       	rjmp	.+252    	; 0x450e <MeasureInductance+0x1aa>

    /* detect timer overflow by checking the overflow flag */
    if (Test & (1 << TOV1))
    4412:	40 ff       	sbrs	r20, 0
    4414:	fb cf       	rjmp	.-10     	; 0x440c <MeasureInductance+0xa8>
    {
      /* happens at 65.536ms for 1MHz or 8.192ms for 8MHz */
      TIFR1 = (1 << TOV1);              /* reset flag */
    4416:	26 bb       	out	0x16, r18	; 22
      Ticks_H++;                        /* increase overflow counter */
    4418:	01 96       	adiw	r24, 0x01	; 1

      /* if it takes too long (0.26s) */
      if (Ticks_H == (CPU_FREQ / 250000))
    441a:	80 32       	cpi	r24, 0x20	; 32
    441c:	91 05       	cpc	r25, r1
    441e:	b1 f7       	brne	.-20     	; 0x440c <MeasureInductance+0xa8>
      {
        Flag = 0;             /* signal timeout */
    4420:	10 e0       	ldi	r17, 0x00	; 0
      }
    }
  }

  /* stop counter */
  TCCR1B = 0;                           /* stop timer */
    4422:	10 92 81 00 	sts	0x0081, r1	; 0x800081 <__TEXT_REGION_LENGTH__+0x7f8081>
  TIFR1 = (1 << ICF1);                  /* reset Input Capture flag */
    4426:	20 e2       	ldi	r18, 0x20	; 32
    4428:	26 bb       	out	0x16, r18	; 22

  Ticks_L = ICR1;                       /* get counter value */
    442a:	c0 90 86 00 	lds	r12, 0x0086	; 0x800086 <__TEXT_REGION_LENGTH__+0x7f8086>
    442e:	d0 90 87 00 	lds	r13, 0x0087	; 0x800087 <__TEXT_REGION_LENGTH__+0x7f8087>

  /* prepare cut off: Gnd -- Rl -- probe-2 / probe-1 -- Rl -- Gnd */
  R_DDR = Probes.Rl_2 | Probes.Rl_1;  
    4432:	50 91 bc 01 	lds	r21, 0x01BC	; 0x8001bc <Probes+0x7>
    4436:	70 91 bb 01 	lds	r23, 0x01BB	; 0x8001bb <Probes+0x6>
    443a:	57 2b       	or	r21, r23
    443c:	5a b9       	out	0x0a, r21	; 10

  /* stop current flow */
  ADC_DDR = 0;
    443e:	17 b8       	out	0x07, r1	; 7

  /* catch missed timer overflow */
  if ((TCNT1 > Ticks_L) && (Test & (1 << TOV1)))
    4440:	e0 91 84 00 	lds	r30, 0x0084	; 0x800084 <__TEXT_REGION_LENGTH__+0x7f8084>
    4444:	f0 91 85 00 	lds	r31, 0x0085	; 0x800085 <__TEXT_REGION_LENGTH__+0x7f8085>
    4448:	ce 16       	cp	r12, r30
    444a:	df 06       	cpc	r13, r31
    444c:	28 f4       	brcc	.+10     	; 0x4458 <MeasureInductance+0xf4>
    444e:	40 ff       	sbrs	r20, 0
    4450:	03 c0       	rjmp	.+6      	; 0x4458 <MeasureInductance+0xf4>
  {
    TIFR1 = (1 << TOV1);                /* reset overflow flag */
    4452:	41 e0       	ldi	r20, 0x01	; 1
    4454:	46 bb       	out	0x16, r20	; 22
    Ticks_H++;                          /* increase overflow counter */
    4456:	01 96       	adiw	r24, 0x01	; 1
  }

  /* enable ADC again */
  ADCSRA = (1 << ADEN) | (1 << ADIF) | ADC_CLOCK_DIV;
    4458:	46 e9       	ldi	r20, 0x96	; 150
    445a:	40 93 7a 00 	sts	0x007A, r20	; 0x80007a <__TEXT_REGION_LENGTH__+0x7f807a>
  ADCSRB &= ~(1 << ACME);     /* disable ADC multiplexer as negative input */
    445e:	40 91 7b 00 	lds	r20, 0x007B	; 0x80007b <__TEXT_REGION_LENGTH__+0x7f807b>
    4462:	4f 7b       	andi	r20, 0xBF	; 191
    4464:	40 93 7b 00 	sts	0x007B, r20	; 0x80007b <__TEXT_REGION_LENGTH__+0x7f807b>

  /*
   *  process counters
   */

  if (Flag)                   /* got valid measurement */
    4468:	11 23       	and	r17, r17
    446a:	09 f4       	brne	.+2      	; 0x446e <MeasureInductance+0x10a>
    446c:	40 c0       	rjmp	.+128    	; 0x44ee <MeasureInductance+0x18a>
  {
    /* combine both counter values */
    Counter = (uint32_t)Ticks_L;             /* lower 16 bits */
    446e:	f1 2c       	mov	r15, r1
    4470:	e1 2c       	mov	r14, r1
    Counter |= (uint32_t)Ticks_H << 16;      /* upper 16 bits */
    4472:	b0 e0       	ldi	r27, 0x00	; 0
    4474:	a0 e0       	ldi	r26, 0x00	; 0
    4476:	ac 01       	movw	r20, r24
    4478:	33 27       	eor	r19, r19
    447a:	22 27       	eor	r18, r18
    447c:	c2 2a       	or	r12, r18
    447e:	d3 2a       	or	r13, r19
    4480:	e4 2a       	or	r14, r20
    4482:	f5 2a       	or	r15, r21
      /* add MCU cycles for delayed start */
      Counter += (MCU_CYCLES_PER_US * 4) - 1;
    }
    else                                /* immediate start */
    {
      Offset++;               /* timer started one cycle too early */
    4484:	84 e0       	ldi	r24, 0x04	; 4
     */

    Offset = 3;               /* processing overhead */

    /* start offset */
    if (Mode & MODE_DELAYED_START)      /* delayed start */
    4486:	66 23       	and	r22, r22
    4488:	31 f0       	breq	.+12     	; 0x4496 <MeasureInductance+0x132>
    {
      /* add MCU cycles for delayed start */
      Counter += (MCU_CYCLES_PER_US * 4) - 1;
    448a:	8f e1       	ldi	r24, 0x1F	; 31
    448c:	c8 0e       	add	r12, r24
    448e:	d1 1c       	adc	r13, r1
    4490:	e1 1c       	adc	r14, r1
    4492:	f1 1c       	adc	r15, r1

    /*
     *  offset handling
     */

    Offset = 3;               /* processing overhead */
    4494:	83 e0       	ldi	r24, 0x03	; 3
    {
      Offset++;               /* timer started one cycle too early */
    }

    /* method and MCU clock specific offset */
    if (Mode & MODE_LOW_CURRENT)        /* low current check */
    4496:	01 11       	cpse	r16, r1
    {
      /* based on MCU clock */
      #if CPU_FREQ >= 16000000
        Offset += 3;
      #else
        Offset += 1;
    4498:	8f 5f       	subi	r24, 0xFF	; 255
    {
      Offset += 1;
    }
    #endif

    if (Counter > Offset) Counter -= Offset;    /* subtract offset */
    449a:	90 e0       	ldi	r25, 0x00	; 0
    449c:	b0 e0       	ldi	r27, 0x00	; 0
    449e:	a0 e0       	ldi	r26, 0x00	; 0
    else Counter = 0;                           /* prevent underflow */
    44a0:	20 e0       	ldi	r18, 0x00	; 0
    44a2:	30 e0       	ldi	r19, 0x00	; 0
    44a4:	a9 01       	movw	r20, r18
    {
      Offset += 1;
    }
    #endif

    if (Counter > Offset) Counter -= Offset;    /* subtract offset */
    44a6:	8c 15       	cp	r24, r12
    44a8:	9d 05       	cpc	r25, r13
    44aa:	ae 05       	cpc	r26, r14
    44ac:	bf 05       	cpc	r27, r15
    44ae:	30 f4       	brcc	.+12     	; 0x44bc <MeasureInductance+0x158>
    44b0:	a7 01       	movw	r20, r14
    44b2:	96 01       	movw	r18, r12
    44b4:	28 1b       	sub	r18, r24
    44b6:	39 0b       	sbc	r19, r25
    44b8:	4a 0b       	sbc	r20, r26
    44ba:	5b 0b       	sbc	r21, r27
    /*
     *  time handling
     */

    /* convert counter (MCU cycles) to time (in ns) */
    Counter *= (10000 / MCU_CYCLES_PER_US);     /* convert to 0.1 ns */
    44bc:	a2 ee       	ldi	r26, 0xE2	; 226
    44be:	b4 e0       	ldi	r27, 0x04	; 4
    44c0:	0e 94 61 2d 	call	0x5ac2	; 0x5ac2 <__muluhisi3>
    Counter += 5;                               /* for rounding */
    44c4:	6b 5f       	subi	r22, 0xFB	; 251
    44c6:	7f 4f       	sbci	r23, 0xFF	; 255
    44c8:	8f 4f       	sbci	r24, 0xFF	; 255
    44ca:	9f 4f       	sbci	r25, 0xFF	; 255
    Counter /= 10;                              /* scale to ns */
    44cc:	2a e0       	ldi	r18, 0x0A	; 10
    44ce:	30 e0       	ldi	r19, 0x00	; 0
    44d0:	40 e0       	ldi	r20, 0x00	; 0
    44d2:	50 e0       	ldi	r21, 0x00	; 0
    44d4:	0e 94 04 2d 	call	0x5a08	; 0x5a08 <__udivmodsi4>
    *Time = Counter;               /* save time */
    44d8:	28 83       	st	Y, r18
    44da:	39 83       	std	Y+1, r19	; 0x01
    44dc:	4a 83       	std	Y+2, r20	; 0x02
    44de:	5b 83       	std	Y+3, r21	; 0x03

    /* check for lower limit */
    if (Mode & MODE_LOW_CURRENT)   /* low current mode */
    44e0:	00 23       	and	r16, r16
    44e2:	b9 f0       	breq	.+46     	; 0x4512 <MeasureInductance+0x1ae>
    {
      if (Counter < 1250)          /* time < 1.25Ás */
    44e4:	22 3e       	cpi	r18, 0xE2	; 226
    44e6:	34 40       	sbci	r19, 0x04	; 4
    44e8:	41 05       	cpc	r20, r1
    44ea:	51 05       	cpc	r21, r1
    44ec:	b8 f0       	brcs	.+46     	; 0x451c <MeasureInductance+0x1b8>
      }
    }
  }

  /* update reference source for next ADC run */
  Cfg.Ref = ADC_REF_BANDGAP;       /* we've used the bandgap reference */
    44ee:	80 ec       	ldi	r24, 0xC0	; 192
    44f0:	80 93 8b 01 	sts	0x018B, r24	; 0x80018b <Cfg+0x5>
    44f4:	40 cf       	rjmp	.-384    	; 0x4376 <MeasureInductance+0x12>
    ADC_DDR = Probes.Pin_1;             /* pull down probe-1 directly */
  }
  else                             /* high current */
  {
    /* set probes: Gnd -- probe-2 / Gnd -- probe-1 */
    R_DDR = 0;                          /* disable probe resistors */
    44f6:	1a b8       	out	0x0a, r1	; 10
    /* pull down probe-1 and probe-2 directly */
    ADC_DDR = Probes.Pin_1 | Probes.Pin_2;
    44f8:	90 91 c2 01 	lds	r25, 0x01C2	; 0x8001c2 <Probes+0xd>
    44fc:	89 2b       	or	r24, r25
    44fe:	54 cf       	rjmp	.-344    	; 0x43a8 <MeasureInductance+0x44>

    TCCR1B |= (1 << CS10);              /* start timer (1/1 clock divider) */
  }
  else                                  /* immediate start */
  {
    TCCR1B |= (1 << CS10);              /* start timer (1/1 clock divider) */
    4500:	80 91 81 00 	lds	r24, 0x0081	; 0x800081 <__TEXT_REGION_LENGTH__+0x7f8081>
    4504:	81 60       	ori	r24, 0x01	; 1
    4506:	80 93 81 00 	sts	0x0081, r24	; 0x800081 <__TEXT_REGION_LENGTH__+0x7f8081>
    /* change probes: Gnd -- Rl -- probe-2 / probe-1 -- Vcc */
    ADC_PORT = Probes.Pin_1;            /* pull up probe-1 directly */
    450a:	98 b9       	out	0x08, r25	; 8
    450c:	7c cf       	rjmp	.-264    	; 0x4406 <MeasureInductance+0xa2>
 *  - 0 on any problem
 */

uint8_t MeasureInductance(uint32_t *Time, uint8_t Mode)
{
  uint8_t           Flag = 3;      /* return value */
    450e:	13 e0       	ldi	r17, 0x03	; 3
    4510:	88 cf       	rjmp	.-240    	; 0x4422 <MeasureInductance+0xbe>
        Flag = 2;                  /* signal "inductance too low" */
      }
    }
    else                           /* high current mode */
    {
      if (Counter <= 100)          /* time <= 100ns */
    4512:	25 36       	cpi	r18, 0x65	; 101
    4514:	31 05       	cpc	r19, r1
    4516:	41 05       	cpc	r20, r1
    4518:	51 05       	cpc	r21, r1
    451a:	48 f7       	brcc	.-46     	; 0x44ee <MeasureInductance+0x18a>
    /* check for lower limit */
    if (Mode & MODE_LOW_CURRENT)   /* low current mode */
    {
      if (Counter < 1250)          /* time < 1.25Ás */
      {
        Flag = 2;                  /* signal "inductance too low" */
    451c:	12 e0       	ldi	r17, 0x02	; 2
    451e:	e7 cf       	rjmp	.-50     	; 0x44ee <MeasureInductance+0x18a>

00004520 <MeasureInductor>:
 *  - 1 on success
 *  - 0 on any error
 */

uint8_t MeasureInductor(Resistor_Type *Resistor)
{
    4520:	a4 e0       	ldi	r26, 0x04	; 4
    4522:	b0 e0       	ldi	r27, 0x00	; 0
    4524:	e6 e9       	ldi	r30, 0x96	; 150
    4526:	f2 e2       	ldi	r31, 0x22	; 34
    4528:	0c 94 6e 2d 	jmp	0x5adc	; 0x5adc <__prologue_saves__+0x4>
  int16_t           Offset = 0;    /* offset for U_ref */
  uint32_t          Value;         /* value */
  uint32_t          Time1;         /* time #1 */

  /* reset data */
  Inductor.Scale = 0;
    452c:	10 92 d2 01 	sts	0x01D2, r1	; 0x8001d2 <Inductor>
  Inductor.Value = 0;
    4530:	10 92 d3 01 	sts	0x01D3, r1	; 0x8001d3 <Inductor+0x1>
    4534:	10 92 d4 01 	sts	0x01D4, r1	; 0x8001d4 <Inductor+0x2>
    4538:	10 92 d5 01 	sts	0x01D5, r1	; 0x8001d5 <Inductor+0x3>
    453c:	10 92 d6 01 	sts	0x01D6, r1	; 0x8001d6 <Inductor+0x4>

  /* sanity check */
  if (Resistor == NULL) return Test;
    4540:	00 97       	sbiw	r24, 0x00	; 0
    4542:	29 f4       	brne	.+10     	; 0x454e <MeasureInductor+0x2e>
    4544:	80 e0       	ldi	r24, 0x00	; 0
    Inductor.Value = Value;
    Test = 1;                 /* signal success */
  }

  return Test;
}
    4546:	24 96       	adiw	r28, 0x04	; 4
    4548:	e0 e1       	ldi	r30, 0x10	; 16
    454a:	0c 94 8a 2d 	jmp	0x5b14	; 0x5b14 <__epilogue_restores__+0x4>
    454e:	6c 01       	movw	r12, r24

  /* sanity check */
  if (Resistor == NULL) return Test;

  /* limit resistance to 2k (feasibilty & prevent variable overflow) */ 
  if (CmpValue(Resistor->Value, Resistor->Scale, 2000, 0) >= 0) return Test;
    4550:	fc 01       	movw	r30, r24
    4552:	63 81       	ldd	r22, Z+3	; 0x03
    4554:	74 81       	ldd	r23, Z+4	; 0x04
    4556:	85 81       	ldd	r24, Z+5	; 0x05
    4558:	96 81       	ldd	r25, Z+6	; 0x06
    455a:	e1 2c       	mov	r14, r1
    455c:	00 ed       	ldi	r16, 0xD0	; 208
    455e:	17 e0       	ldi	r17, 0x07	; 7
    4560:	20 e0       	ldi	r18, 0x00	; 0
    4562:	30 e0       	ldi	r19, 0x00	; 0
    4564:	42 81       	ldd	r20, Z+2	; 0x02
    4566:	0e 94 a6 06 	call	0xd4c	; 0xd4c <CmpValue>
    456a:	87 ff       	sbrs	r24, 7
    456c:	eb cf       	rjmp	.-42     	; 0x4544 <MeasureInductor+0x24>
   *  - run in low current mode to check for high inductance
   *  - run in high current mode to check for low inductance, when high
   *    current mode failed and DUT's resistance is low
   */

  UpdateProbes2(Resistor->A, Resistor->B);   /* update probes */
    456e:	f6 01       	movw	r30, r12
    4570:	61 81       	ldd	r22, Z+1	; 0x01
    4572:	80 81       	ld	r24, Z
    4574:	0e 94 31 0e 	call	0x1c62	; 0x1c62 <UpdateProbes2>
   *  low current & delayed start
   *  - to catch large inductance with capacitive effect
   */

  Mode = MODE_LOW_CURRENT | MODE_DELAYED_START;
  Test = MeasureInductance(&Time1, Mode);
    4578:	65 e0       	ldi	r22, 0x05	; 5
    457a:	ce 01       	movw	r24, r28
    457c:	01 96       	adiw	r24, 0x01	; 1
    457e:	0e 94 b2 21 	call	0x4364	; 0x4364 <MeasureInductance>
  if (Test == 3)              /* valid measurement */
    4582:	83 30       	cpi	r24, 0x03	; 3
    4584:	09 f0       	breq	.+2      	; 0x4588 <MeasureInductor+0x68>
    4586:	c9 c0       	rjmp	.+402    	; 0x471a <MeasureInductor+0x1fa>
  {
    /* a valid time should be larger than the delay (4Ás) */
    if (Time1 <= 5000)         /* <= 5Ás */
    4588:	89 81       	ldd	r24, Y+1	; 0x01
    458a:	9a 81       	ldd	r25, Y+2	; 0x02
    458c:	ab 81       	ldd	r26, Y+3	; 0x03
    458e:	bc 81       	ldd	r27, Y+4	; 0x04
  /*
   *  low current & delayed start
   *  - to catch large inductance with capacitive effect
   */

  Mode = MODE_LOW_CURRENT | MODE_DELAYED_START;
    4590:	15 e0       	ldi	r17, 0x05	; 5
  Test = MeasureInductance(&Time1, Mode);
  if (Test == 3)              /* valid measurement */
  {
    /* a valid time should be larger than the delay (4Ás) */
    if (Time1 <= 5000)         /* <= 5Ás */
    4592:	89 38       	cpi	r24, 0x89	; 137
    4594:	93 41       	sbci	r25, 0x13	; 19
    4596:	a1 05       	cpc	r26, r1
    4598:	b1 05       	cpc	r27, r1
    459a:	00 f5       	brcc	.+64     	; 0x45dc <MeasureInductor+0xbc>
   */

  if (Test == 0)               /* no valid measurement yet */
  {
    Mode = MODE_LOW_CURRENT;
    Test = MeasureInductance(&Time1, Mode);
    459c:	61 e0       	ldi	r22, 0x01	; 1
    459e:	ce 01       	movw	r24, r28
    45a0:	01 96       	adiw	r24, 0x01	; 1
    45a2:	0e 94 b2 21 	call	0x4364	; 0x4364 <MeasureInductance>
   *  - to check for high inductance
   */

  if (Test == 0)               /* no valid measurement yet */
  {
    Mode = MODE_LOW_CURRENT;
    45a6:	11 e0       	ldi	r17, 0x01	; 1
    Test = MeasureInductance(&Time1, Mode);

    if (Test == 2)             /* inductance too low */
    45a8:	82 30       	cpi	r24, 0x02	; 2
    45aa:	a9 f4       	brne	.+42     	; 0x45d6 <MeasureInductor+0xb6>
       *  high current & immediate start
       *  - to check for low inductance
       */

      /* if resistance < 40 Ohms we may run the high current test */
      if (CmpValue(Resistor->Value, Resistor->Scale, 40, 0) < 0)
    45ac:	f6 01       	movw	r30, r12
    45ae:	63 81       	ldd	r22, Z+3	; 0x03
    45b0:	74 81       	ldd	r23, Z+4	; 0x04
    45b2:	85 81       	ldd	r24, Z+5	; 0x05
    45b4:	96 81       	ldd	r25, Z+6	; 0x06
    45b6:	e1 2c       	mov	r14, r1
    45b8:	08 e2       	ldi	r16, 0x28	; 40
    45ba:	10 e0       	ldi	r17, 0x00	; 0
    45bc:	20 e0       	ldi	r18, 0x00	; 0
    45be:	30 e0       	ldi	r19, 0x00	; 0
    45c0:	42 81       	ldd	r20, Z+2	; 0x02
    45c2:	0e 94 a6 06 	call	0xd4c	; 0xd4c <CmpValue>
    45c6:	87 ff       	sbrs	r24, 7
    45c8:	bd cf       	rjmp	.-134    	; 0x4544 <MeasureInductor+0x24>
      {
        Mode = MODE_HIGH_CURRENT;
        Test = MeasureInductance(&Time1, Mode);
    45ca:	62 e0       	ldi	r22, 0x02	; 2
    45cc:	ce 01       	movw	r24, r28
    45ce:	01 96       	adiw	r24, 0x01	; 1
    45d0:	0e 94 b2 21 	call	0x4364	; 0x4364 <MeasureInductance>
       */

      /* if resistance < 40 Ohms we may run the high current test */
      if (CmpValue(Resistor->Value, Resistor->Scale, 40, 0) < 0)
      {
        Mode = MODE_HIGH_CURRENT;
    45d4:	12 e0       	ldi	r17, 0x02	; 2
        Test = MeasureInductance(&Time1, Mode);
      }
    }
  }

  if (Test != 3) Test = 0;         /* all measurements failed */
    45d6:	83 30       	cpi	r24, 0x03	; 3
    45d8:	09 f0       	breq	.+2      	; 0x45dc <MeasureInductor+0xbc>
    45da:	b4 cf       	rjmp	.-152    	; 0x4544 <MeasureInductor+0x24>
    /*
     *  resistance
     */

    /* total resistance (in 0.1 Ohms) */
    R_total = RescaleValue(Resistor->Value, Resistor->Scale, -1);  /* R_L */
    45dc:	f6 01       	movw	r30, r12
    45de:	63 81       	ldd	r22, Z+3	; 0x03
    45e0:	74 81       	ldd	r23, Z+4	; 0x04
    45e2:	85 81       	ldd	r24, Z+5	; 0x05
    45e4:	96 81       	ldd	r25, Z+6	; 0x06
    45e6:	2f ef       	ldi	r18, 0xFF	; 255
    45e8:	42 81       	ldd	r20, Z+2	; 0x02
    45ea:	0e 94 1c 07 	call	0xe38	; 0xe38 <RescaleValue>
    45ee:	4b 01       	movw	r8, r22
    uint8_t            n;
    /* get index number for probe pair */
    n = GetOffsetIndex(Probes.ID_1, Probes.ID_2);
    Factor = NV.RZero[n];          /* probe leads (0.01 Ohms) */
    #else
    Factor = NV.RZero;             /* probe leads (0.01 Ohms) */
    45f0:	80 91 cb 01 	lds	r24, 0x01CB	; 0x8001cb <NV+0x4>
    45f4:	90 91 cc 01 	lds	r25, 0x01CC	; 0x8001cc <NV+0x5>
    #endif

    Factor += 5;                   /* for rounding */
    45f8:	05 96       	adiw	r24, 0x05	; 5
    Factor /= 10;                  /* scale to 0.1 Ohms */
    R_total += NV.RiH + NV.RiL + Factor;
    45fa:	e0 91 c7 01 	lds	r30, 0x01C7	; 0x8001c7 <NV>
    45fe:	f0 91 c8 01 	lds	r31, 0x01C8	; 0x8001c8 <NV+0x1>
    4602:	20 91 c9 01 	lds	r18, 0x01C9	; 0x8001c9 <NV+0x2>
    4606:	30 91 ca 01 	lds	r19, 0x01CA	; 0x8001ca <NV+0x3>
    460a:	2e 0f       	add	r18, r30
    460c:	3f 1f       	adc	r19, r31
    #else
    Factor = NV.RZero;             /* probe leads (0.01 Ohms) */
    #endif

    Factor += 5;                   /* for rounding */
    Factor /= 10;                  /* scale to 0.1 Ohms */
    460e:	6a e0       	ldi	r22, 0x0A	; 10
    4610:	70 e0       	ldi	r23, 0x00	; 0
    4612:	0e 94 dc 2c 	call	0x59b8	; 0x59b8 <__udivmodhi4>
    R_total += NV.RiH + NV.RiL + Factor;
    4616:	69 01       	movw	r12, r18
    4618:	c6 0e       	add	r12, r22
    461a:	d7 1e       	adc	r13, r23
    461c:	c8 0c       	add	r12, r8
    461e:	d9 1c       	adc	r13, r9

    Factor = NV.RiL;          /* shunt resistance (in 0.1 Ohms) */

    if (Mode & MODE_LOW_CURRENT)   /* low current measurement mode */
    4620:	10 ff       	sbrs	r17, 0
    4622:	7f c0       	rjmp	.+254    	; 0x4722 <MeasureInductor+0x202>
    {
      /* add R_l */
      R_total += (R_LOW * 10);
    4624:	20 e7       	ldi	r18, 0x70	; 112
    4626:	c2 1a       	sub	r12, r18
    4628:	25 ee       	ldi	r18, 0xE5	; 229
    462a:	d2 0a       	sbc	r13, r18
      Factor += (R_LOW * 10);
    462c:	e0 57       	subi	r30, 0x70	; 112
    462e:	f5 4e       	sbci	r31, 0xE5	; 229
       *  - negative/lower offset -> higher L
       */

      #if CPU_FREQ == 8000000
      /* 8 MHz */
      if (Time1 < 6000)       /* < 6Ás / < 18mH */
    4630:	89 81       	ldd	r24, Y+1	; 0x01
    4632:	9a 81       	ldd	r25, Y+2	; 0x02
    4634:	ab 81       	ldd	r26, Y+3	; 0x03
    4636:	bc 81       	ldd	r27, Y+4	; 0x04
    4638:	80 37       	cpi	r24, 0x70	; 112
    463a:	27 e1       	ldi	r18, 0x17	; 23
    463c:	92 07       	cpc	r25, r18
    463e:	a1 05       	cpc	r26, r1
    4640:	b1 05       	cpc	r27, r1
    4642:	08 f4       	brcc	.+2      	; 0x4646 <MeasureInductor+0x126>
    4644:	7a c0       	rjmp	.+244    	; 0x473a <MeasureInductor+0x21a>
      {
        Offset = 38;
      }
      else if (Time1 < 9500) /* 6-9.5Ás / 18-27mH */
    4646:	8c 31       	cpi	r24, 0x1C	; 28
    4648:	95 42       	sbci	r25, 0x25	; 37
    464a:	a1 05       	cpc	r26, r1
    464c:	b1 05       	cpc	r27, r1
    464e:	08 f4       	brcc	.+2      	; 0x4652 <MeasureInductor+0x132>
    4650:	77 c0       	rjmp	.+238    	; 0x4740 <MeasureInductor+0x220>
      {
        Offset = -10;
      }
      else                    /* > 9.5Ás / > 27mH */
      {
        Offset = 20;
    4652:	84 e1       	ldi	r24, 0x14	; 20
    4654:	90 e0       	ldi	r25, 0x00	; 0
     *  ratio and factor
     *  - ratio = ((U_ref * R_total) / (5V * R_shunt)) * 10^3
     */

    /* calculate ratio */
    Value = Cfg.Bandgap + NV.CompOffset;          /* = U_ref (in mV) */
    4656:	40 91 cf 01 	lds	r20, 0x01CF	; 0x8001cf <NV+0x8>
    465a:	20 91 8c 01 	lds	r18, 0x018C	; 0x80018c <Cfg+0x6>
    465e:	30 91 8d 01 	lds	r19, 0x018D	; 0x80018d <Cfg+0x7>
    4662:	24 0f       	add	r18, r20
    4664:	31 1d       	adc	r19, r1
    4666:	47 fd       	sbrc	r20, 7
    4668:	3a 95       	dec	r19
    Value += Offset;                              /* +/- offset */
    466a:	09 2e       	mov	r0, r25
    466c:	00 0c       	add	r0, r0
    466e:	aa 0b       	sbc	r26, r26
    4670:	bb 0b       	sbc	r27, r27
    4672:	bc 01       	movw	r22, r24
    4674:	cd 01       	movw	r24, r26
    4676:	62 0f       	add	r22, r18
    4678:	73 1f       	adc	r23, r19
    467a:	81 1d       	adc	r24, r1
    467c:	91 1d       	adc	r25, r1
    Value *= R_total;                             /* * R_total (in 0.1 Ohms) */
    467e:	f1 2c       	mov	r15, r1
    4680:	e1 2c       	mov	r14, r1
    4682:	a7 01       	movw	r20, r14
    4684:	96 01       	movw	r18, r12
    4686:	0e 94 be 2c 	call	0x597c	; 0x597c <__mulsi3>
    Value /= Factor;                              /* / R_shunt (in 0.1 Ohms) */
    468a:	9f 01       	movw	r18, r30
    468c:	50 e0       	ldi	r21, 0x00	; 0
    468e:	40 e0       	ldi	r20, 0x00	; 0
    4690:	0e 94 04 2d 	call	0x5a08	; 0x5a08 <__udivmodsi4>
    Value /= 5;                                   /* / 5000mV, * 10^3 */
    4694:	ca 01       	movw	r24, r20
    4696:	b9 01       	movw	r22, r18
    4698:	25 e0       	ldi	r18, 0x05	; 5
    469a:	30 e0       	ldi	r19, 0x00	; 0
    469c:	40 e0       	ldi	r20, 0x00	; 0
    469e:	50 e0       	ldi	r21, 0x00	; 0
    46a0:	0e 94 04 2d 	call	0x5a08	; 0x5a08 <__udivmodsi4>

    /* get ratio based factor */
    Factor = GetFactor((uint16_t)Value, TABLE_INDUCTOR);
    46a4:	63 e0       	ldi	r22, 0x03	; 3
    46a6:	c9 01       	movw	r24, r18
    46a8:	0e 94 9b 0f 	call	0x1f36	; 0x1f36 <GetFactor>
    46ac:	5c 01       	movw	r10, r24
    *  calculate inductance
    *  L = t_stop * R_total * factor
    */

    Scale = -9;               /* nH by default */
    Value = Time1;            /* t_stop (in ns) */
    46ae:	29 81       	ldd	r18, Y+1	; 0x01
    46b0:	3a 81       	ldd	r19, Y+2	; 0x02
    46b2:	4b 81       	ldd	r20, Y+3	; 0x03
    46b4:	5c 81       	ldd	r21, Y+4	; 0x04
   /*
    *  calculate inductance
    *  L = t_stop * R_total * factor
    */

    Scale = -9;               /* nH by default */
    46b6:	17 ef       	ldi	r17, 0xF7	; 247
    Value = Time1;            /* t_stop (in ns) */

    while (Value > 100000)    /* re-scale to prevent overflow */
    {
      Value += 5;             /* for automagic rounding */
      Value /= 10;            /* scale down by 10^1 */
    46b8:	6a e0       	ldi	r22, 0x0A	; 10
    46ba:	46 2e       	mov	r4, r22
    46bc:	51 2c       	mov	r5, r1
    46be:	61 2c       	mov	r6, r1
    46c0:	71 2c       	mov	r7, r1
    */

    Scale = -9;               /* nH by default */
    Value = Time1;            /* t_stop (in ns) */

    while (Value > 100000)    /* re-scale to prevent overflow */
    46c2:	21 3a       	cpi	r18, 0xA1	; 161
    46c4:	86 e8       	ldi	r24, 0x86	; 134
    46c6:	38 07       	cpc	r19, r24
    46c8:	81 e0       	ldi	r24, 0x01	; 1
    46ca:	48 07       	cpc	r20, r24
    46cc:	51 05       	cpc	r21, r1
    46ce:	f0 f5       	brcc	.+124    	; 0x474c <MeasureInductor+0x22c>
      Value += 5;             /* for automagic rounding */
      Value /= 10;            /* scale down by 10^1 */
      Scale++;                /* increase exponent by 1 */
    }

    Value *= Factor;          /* * factor (in 10^-3) */
    46d0:	d5 01       	movw	r26, r10
    46d2:	0e 94 61 2d 	call	0x5ac2	; 0x5ac2 <__muluhisi3>

    while (Value > 100000)    /* re-scale to prevent overflow */
    {
      Value += 5;             /* for automagic rounding */
      Value /= 10;            /* scale down by 10^1 */
    46d6:	2a e0       	ldi	r18, 0x0A	; 10
    46d8:	82 2e       	mov	r8, r18
    46da:	91 2c       	mov	r9, r1
    46dc:	a1 2c       	mov	r10, r1
    46de:	b1 2c       	mov	r11, r1
      Scale++;                /* increase exponent by 1 */
    }

    Value *= Factor;          /* * factor (in 10^-3) */

    while (Value > 100000)    /* re-scale to prevent overflow */
    46e0:	61 3a       	cpi	r22, 0xA1	; 161
    46e2:	e6 e8       	ldi	r30, 0x86	; 134
    46e4:	7e 07       	cpc	r23, r30
    46e6:	e1 e0       	ldi	r30, 0x01	; 1
    46e8:	8e 07       	cpc	r24, r30
    46ea:	91 05       	cpc	r25, r1
    46ec:	d8 f5       	brcc	.+118    	; 0x4764 <MeasureInductor+0x244>
      Value += 5;             /* for automagic rounding */
      Value /= 10;            /* scale down by 10^1 */
      Scale++;                /* increase exponent by 1 */
    }

    Value *= R_total;         /* * R_total (in 0.1 Ohms) */
    46ee:	a7 01       	movw	r20, r14
    46f0:	96 01       	movw	r18, r12
    46f2:	0e 94 be 2c 	call	0x597c	; 0x597c <__mulsi3>
    Value /= 10000;           /* /10 for 1 Ohms, /1000 for factor */

    /* update data */
    Inductor.Scale = Scale;
    46f6:	10 93 d2 01 	sts	0x01D2, r17	; 0x8001d2 <Inductor>
      Value /= 10;            /* scale down by 10^1 */
      Scale++;                /* increase exponent by 1 */
    }

    Value *= R_total;         /* * R_total (in 0.1 Ohms) */
    Value /= 10000;           /* /10 for 1 Ohms, /1000 for factor */
    46fa:	20 e1       	ldi	r18, 0x10	; 16
    46fc:	37 e2       	ldi	r19, 0x27	; 39
    46fe:	40 e0       	ldi	r20, 0x00	; 0
    4700:	50 e0       	ldi	r21, 0x00	; 0
    4702:	0e 94 04 2d 	call	0x5a08	; 0x5a08 <__udivmodsi4>

    /* update data */
    Inductor.Scale = Scale;
    Inductor.Value = Value;
    4706:	20 93 d3 01 	sts	0x01D3, r18	; 0x8001d3 <Inductor+0x1>
    470a:	30 93 d4 01 	sts	0x01D4, r19	; 0x8001d4 <Inductor+0x2>
    470e:	40 93 d5 01 	sts	0x01D5, r20	; 0x8001d5 <Inductor+0x3>
    4712:	50 93 d6 01 	sts	0x01D6, r21	; 0x8001d6 <Inductor+0x4>
    Test = 1;                 /* signal success */
    4716:	81 e0       	ldi	r24, 0x01	; 1
    4718:	16 cf       	rjmp	.-468    	; 0x4546 <MeasureInductor+0x26>
  /*
   *  low current & immediate start
   *  - to check for high inductance
   */

  if (Test == 0)               /* no valid measurement yet */
    471a:	88 23       	and	r24, r24
    471c:	09 f4       	brne	.+2      	; 0x4720 <MeasureInductor+0x200>
    471e:	3e cf       	rjmp	.-388    	; 0x459c <MeasureInductor+0x7c>
    4720:	11 cf       	rjmp	.-478    	; 0x4544 <MeasureInductor+0x24>
       *  compensation offset for U_ref
       *  - positive/larger offset -> lower L
       *  - negative/lower offset -> higher L
       */

      Temp = (uint16_t)Time1;      /* time < 50Ás expected */
    4722:	89 81       	ldd	r24, Y+1	; 0x01
    4724:	9a 81       	ldd	r25, Y+2	; 0x02

      #if CPU_FREQ == 8000000
      /* 8 MHz */
      if (Temp < 1500)        /* < 1.5Ás / < 100ÁH */
    4726:	8c 3d       	cpi	r24, 0xDC	; 220
    4728:	25 e0       	ldi	r18, 0x05	; 5
    472a:	92 07       	cpc	r25, r18
    472c:	48 f0       	brcs	.+18     	; 0x4740 <MeasureInductor+0x220>
      {
        Offset = -10;
      }
      else if (Temp < 5000)   /* 1.5-5Ás / 100-330ÁH */
    472e:	88 38       	cpi	r24, 0x88	; 136
    4730:	93 41       	sbci	r25, 0x13	; 19
    4732:	48 f0       	brcs	.+18     	; 0x4746 <MeasureInductor+0x226>
      {
        Offset = -5; 
      }
      else                    /* > 5Ás / > 330ÁH */
      {
        Offset = -50;
    4734:	8e ec       	ldi	r24, 0xCE	; 206
    4736:	9f ef       	ldi	r25, 0xFF	; 255
    4738:	8e cf       	rjmp	.-228    	; 0x4656 <MeasureInductor+0x136>

      #if CPU_FREQ == 8000000
      /* 8 MHz */
      if (Time1 < 6000)       /* < 6Ás / < 18mH */
      {
        Offset = 38;
    473a:	86 e2       	ldi	r24, 0x26	; 38
    473c:	90 e0       	ldi	r25, 0x00	; 0
    473e:	8b cf       	rjmp	.-234    	; 0x4656 <MeasureInductor+0x136>

      #if CPU_FREQ == 8000000
      /* 8 MHz */
      if (Temp < 1500)        /* < 1.5Ás / < 100ÁH */
      {
        Offset = -10;
    4740:	86 ef       	ldi	r24, 0xF6	; 246
    4742:	9f ef       	ldi	r25, 0xFF	; 255
    4744:	88 cf       	rjmp	.-240    	; 0x4656 <MeasureInductor+0x136>
      }
      else if (Temp < 5000)   /* 1.5-5Ás / 100-330ÁH */
      {
        Offset = -5; 
    4746:	8b ef       	ldi	r24, 0xFB	; 251
    4748:	9f ef       	ldi	r25, 0xFF	; 255
    474a:	85 cf       	rjmp	.-246    	; 0x4656 <MeasureInductor+0x136>
    Scale = -9;               /* nH by default */
    Value = Time1;            /* t_stop (in ns) */

    while (Value > 100000)    /* re-scale to prevent overflow */
    {
      Value += 5;             /* for automagic rounding */
    474c:	ca 01       	movw	r24, r20
    474e:	b9 01       	movw	r22, r18
    4750:	6b 5f       	subi	r22, 0xFB	; 251
    4752:	7f 4f       	sbci	r23, 0xFF	; 255
    4754:	8f 4f       	sbci	r24, 0xFF	; 255
    4756:	9f 4f       	sbci	r25, 0xFF	; 255
      Value /= 10;            /* scale down by 10^1 */
    4758:	a3 01       	movw	r20, r6
    475a:	92 01       	movw	r18, r4
    475c:	0e 94 04 2d 	call	0x5a08	; 0x5a08 <__udivmodsi4>
      Scale++;                /* increase exponent by 1 */
    4760:	1f 5f       	subi	r17, 0xFF	; 255
    4762:	af cf       	rjmp	.-162    	; 0x46c2 <MeasureInductor+0x1a2>

    Value *= Factor;          /* * factor (in 10^-3) */

    while (Value > 100000)    /* re-scale to prevent overflow */
    {
      Value += 5;             /* for automagic rounding */
    4764:	6b 5f       	subi	r22, 0xFB	; 251
    4766:	7f 4f       	sbci	r23, 0xFF	; 255
    4768:	8f 4f       	sbci	r24, 0xFF	; 255
    476a:	9f 4f       	sbci	r25, 0xFF	; 255
      Value /= 10;            /* scale down by 10^1 */
    476c:	a5 01       	movw	r20, r10
    476e:	94 01       	movw	r18, r8
    4770:	0e 94 04 2d 	call	0x5a08	; 0x5a08 <__udivmodsi4>
    4774:	ca 01       	movw	r24, r20
    4776:	b9 01       	movw	r22, r18
      Scale++;                /* increase exponent by 1 */
    4778:	1f 5f       	subi	r17, 0xFF	; 255
    477a:	b2 cf       	rjmp	.-156    	; 0x46e0 <MeasureInductor+0x1c0>

0000477c <ProbePinout>:
 *    PROBES_RINGTESTER  ring tester
 *    PROBES_DIODE       diode
 */

void ProbePinout(uint8_t Mode)
{
    477c:	cf 93       	push	r28
    477e:	c8 2f       	mov	r28, r24
  uint8_t           Char1 = 0;     /* designator for probe #1 */
  uint8_t           Char2 = 0;     /* designator for probe #2 */
  uint8_t           Char3 = 0;     /* designator for probe #3 */

  LCD_ClearLine2();                /* info goes to line #2 */
    4780:	0e 94 50 11 	call	0x22a0	; 0x22a0 <LCD_ClearLine2>
  {
    #ifdef SW_PROBEPINOUT_PWM
    case PROBES_PWM:
      /* probe #1: Gnd / probe #2: signal / probe #3: Gnd */
      Char1 = '-';
      Char2 = 's';
    4784:	63 e7       	ldi	r22, 0x73	; 115
  switch (Mode)
  {
    #ifdef SW_PROBEPINOUT_PWM
    case PROBES_PWM:
      /* probe #1: Gnd / probe #2: signal / probe #3: Gnd */
      Char1 = '-';
    4786:	8d e2       	ldi	r24, 0x2D	; 45

  /*
   *  set probe pinout based on mode
   */

  switch (Mode)
    4788:	cc 23       	and	r28, r28
    478a:	11 f0       	breq	.+4      	; 0x4790 <ProbePinout+0x14>
 */

void ProbePinout(uint8_t Mode)
{
  uint8_t           Char1 = 0;     /* designator for probe #1 */
  uint8_t           Char2 = 0;     /* designator for probe #2 */
    478c:	60 e0       	ldi	r22, 0x00	; 0
 *    PROBES_DIODE       diode
 */

void ProbePinout(uint8_t Mode)
{
  uint8_t           Char1 = 0;     /* designator for probe #1 */
    478e:	80 e0       	ldi	r24, 0x00	; 0
      Char3 = 'C';
      break;
    #endif
  }

  Show_SimplePinout(Char1, Char2, Char3);    /* display pinout */
    4790:	48 2f       	mov	r20, r24
    4792:	0e 94 95 00 	call	0x12a	; 0x12a <Show_SimplePinout>

  /* wait for any key press or 5s */
  TestKey(5000, CHECK_BAT);
    4796:	60 e1       	ldi	r22, 0x10	; 16
    4798:	88 e8       	ldi	r24, 0x88	; 136
    479a:	93 e1       	ldi	r25, 0x13	; 19
    479c:	0e 94 0f 2b 	call	0x561e	; 0x561e <brutzelboy_get_key>
  LCD_ClearLine2();                /* clear line #2 */
    47a0:	0e 94 50 11 	call	0x22a0	; 0x22a0 <LCD_ClearLine2>
}
    47a4:	cf 91       	pop	r28
    47a6:	08 95       	ret

000047a8 <Check_LED>:

void Check_LED(uint8_t Probe1, uint8_t Probe2)
{
  uint16_t          U1;                 /* voltage */

  UpdateProbes2(Probe1, Probe2);        /* update probes */
    47a8:	0e 94 31 0e 	call	0x1c62	; 0x1c62 <UpdateProbes2>

  /* we assume: probe-1 = A / probe2 = C */
  /* set probes: Gnd -- Rl -- probe-2 / probe-1 -- Vcc */
  R_PORT = 0;                      /* set resistor port to Gnd */
    47ac:	1b b8       	out	0x0b, r1	; 11
  R_DDR = Probes.Rl_2;             /* pull down probe-2 via Rl */
    47ae:	80 91 bc 01 	lds	r24, 0x01BC	; 0x8001bc <Probes+0x7>
    47b2:	8a b9       	out	0x0a, r24	; 10
  ADC_DDR = Probes.Pin_1;          /* set probe-1 to output */
    47b4:	80 91 c1 01 	lds	r24, 0x01C1	; 0x8001c1 <Probes+0xc>
    47b8:	87 b9       	out	0x07, r24	; 7
  ADC_PORT = Probes.Pin_1;         /* pull-up probe-1 directly */
    47ba:	88 b9       	out	0x08, r24	; 8

  U1 = ReadU_5ms(Probes.Ch_2);     /* voltage at Rl (cathode) */
    47bc:	80 91 c5 01 	lds	r24, 0x01C5	; 0x8001c5 <Probes+0x10>
    47c0:	0e 94 c1 0d 	call	0x1b82	; 0x1b82 <ReadU_5ms>

  if (U1 >= 977)         /*  not just a leakage current (> 1.4mA) */
    47c4:	81 3d       	cpi	r24, 0xD1	; 209
    47c6:	93 40       	sbci	r25, 0x03	; 3
    47c8:	10 f0       	brcs	.+4      	; 0x47ce <Check_LED+0x26>
  {
    CheckDiode();        /* run standard diode check */
    47ca:	0e 94 ad 1a 	call	0x355a	; 0x355a <CheckDiode>
  }
}
    47ce:	08 95       	ret

000047d0 <OptoCoupler_Tool>:
 *    - BJT
 *    - TRIAC (with and without zero crossing circuit)
 */

void OptoCoupler_Tool(void)
{
    47d0:	b0 e0       	ldi	r27, 0x00	; 0
    47d2:	a0 e0       	ldi	r26, 0x00	; 0
    47d4:	ee ee       	ldi	r30, 0xEE	; 238
    47d6:	f3 e2       	ldi	r31, 0x23	; 35
    47d8:	0c 94 6f 2d 	jmp	0x5ade	; 0x5ade <__prologue_saves__+0x6>
  #define DETECTED_BJT       100
  #define DETECTED_TRIAC     101

  /* init */
  /* next-line mode: keep first line and wait for key/timeout */
  UI.LineMode = LINE_KEEP | LINE_KEY;
    47dc:	83 e0       	ldi	r24, 0x03	; 3
    47de:	80 93 1f 01 	sts	0x011F, r24	; 0x80011f <UI>

  /* display info */
  LCD_Clear();
    47e2:	0e 94 16 2b 	call	0x562c	; 0x562c <LCD_Clear>
  #ifdef UI_COLORED_TITLES
    /* display: Opto Coupler */
    Display_ColoredEEString(OptoCoupler_str, COLOR_TITLE);
  #else
    Display_EEString(OptoCoupler_str);  /* display: Opto Coupler */
    47e6:	81 ee       	ldi	r24, 0xE1	; 225
    47e8:	91 e0       	ldi	r25, 0x01	; 1
    47ea:	0e 94 0f 11 	call	0x221e	; 0x221e <Display_EEString>
  #endif
  Display_NL_EEString(Start_str);       /* display: Start */
    47ee:	82 ed       	ldi	r24, 0xD2	; 210
    47f0:	91 e0       	ldi	r25, 0x01	; 1
    47f2:	0e 94 38 11 	call	0x2270	; 0x2270 <Display_NL_EEString>
        /* change probes: probe-3 -- Vcc */
        ADC_DDR = Probes.Pin_2 | Probes.Pin_3;    /* set probe-3 to output */
        ADC_PORT = Probes.Pin_3;                  /* pull up probe-3 directly */

        /* get voltages at current shunts */
        Cfg.Samples = 10;               /* just a few samples for 1ms runtime */
    47f6:	5a e0       	ldi	r21, 0x0A	; 10
    47f8:	65 2e       	mov	r6, r21
        R_PORT = Probes.Rl_1;           /* turn LED on */
        wait1ms();                      /* time for propagation delay */
        U1 = ReadU(Probes.Ch_1);        /* voltage at LED's anode (Rl) */
        U2 = ReadU(Probes.Ch_2);        /* voltage at emitter (RiL) */
        R_PORT = 0;                     /* turn LED off */
        Cfg.Samples = ADC_SAMPLES;      /* reset samples to default */
    47fa:	69 e1       	ldi	r22, 0x19	; 25
    47fc:	56 2e       	mov	r5, r22
            if (Run > 250) break;       /* check for overflow */
          }

          if (Run <= 250)          /* no overrun */
          {
            U1 = Run * 70;                   /* delay (0.1 MCU cycles) */
    47fe:	76 e4       	ldi	r23, 0x46	; 70
    4800:	77 2e       	mov	r7, r23
  while (Run)
  {
    /* user input */

    /* wait for user feedback */
    Test = TestKey(0, CURSOR_BLINK | CHECK_KEY_TWICE | CHECK_BAT);
    4802:	6a e1       	ldi	r22, 0x1A	; 26
    4804:	90 e0       	ldi	r25, 0x00	; 0
    4806:	80 e0       	ldi	r24, 0x00	; 0
    4808:	0e 94 0f 2b 	call	0x561e	; 0x561e <brutzelboy_get_key>

    if (Test == KEY_TWICE)         /* two short key presses */
    480c:	83 30       	cpi	r24, 0x03	; 3
    480e:	29 f4       	brne	.+10     	; 0x481a <OptoCoupler_Tool+0x4a>

  /* clean up local constants for status */
  #undef DETECTED_LED
  #undef DETECTED_BJT
  #undef DETECTED_TRIAC
}
    4810:	cd b7       	in	r28, 0x3d	; 61
    4812:	de b7       	in	r29, 0x3e	; 62
    4814:	ef e0       	ldi	r30, 0x0F	; 15
    4816:	0c 94 8b 2d 	jmp	0x5b16	; 0x5b16 <__epilogue_restores__+0x6>
    }

    if (Run)                       /* check opto coupler */
    {
      /* update display */
      LCD_Clear();
    481a:	0e 94 16 2b 	call	0x562c	; 0x562c <LCD_Clear>
      #endif
      #ifdef UI_COLORED_TITLES
        /* display: Opto Coupler */
        Display_ColoredEEString(OptoCoupler_str, COLOR_TITLE);
      #else
        Display_EEString(OptoCoupler_str);   /* display: Opto Coupler */
    481e:	81 ee       	ldi	r24, 0xE1	; 225
    4820:	91 e0       	ldi	r25, 0x01	; 1
    4822:	0e 94 0f 11 	call	0x221e	; 0x221e <Display_EEString>
      #endif
      Display_NextLine();
    4826:	0e 94 ed 10 	call	0x21da	; 0x21da <Display_NextLine>

      /*
       *  scan for LED
       */

      Check.Found = COMP_NONE;          /* reset component search */
    482a:	10 92 01 01 	sts	0x0101, r1	; 0x800101 <Check>
      Check.Diodes = 0;                 /* reset number of diodes */
    482e:	10 92 06 01 	sts	0x0106, r1	; 0x800106 <Check+0x5>

      /* check all possible probe combinations */
      Check_LED(PROBE_1, PROBE_2);
    4832:	61 e0       	ldi	r22, 0x01	; 1
    4834:	80 e0       	ldi	r24, 0x00	; 0
    4836:	0e 94 d4 23 	call	0x47a8	; 0x47a8 <Check_LED>
      Check_LED(PROBE_2, PROBE_1);
    483a:	60 e0       	ldi	r22, 0x00	; 0
    483c:	81 e0       	ldi	r24, 0x01	; 1
    483e:	0e 94 d4 23 	call	0x47a8	; 0x47a8 <Check_LED>
      Check_LED(PROBE_1, PROBE_3);
    4842:	62 e0       	ldi	r22, 0x02	; 2
    4844:	80 e0       	ldi	r24, 0x00	; 0
    4846:	0e 94 d4 23 	call	0x47a8	; 0x47a8 <Check_LED>
      Check_LED(PROBE_3, PROBE_1);
    484a:	60 e0       	ldi	r22, 0x00	; 0
    484c:	82 e0       	ldi	r24, 0x02	; 2
    484e:	0e 94 d4 23 	call	0x47a8	; 0x47a8 <Check_LED>
      Check_LED(PROBE_2, PROBE_3);
    4852:	62 e0       	ldi	r22, 0x02	; 2
    4854:	81 e0       	ldi	r24, 0x01	; 1
    4856:	0e 94 d4 23 	call	0x47a8	; 0x47a8 <Check_LED>
      Check_LED(PROBE_3, PROBE_2);
    485a:	61 e0       	ldi	r22, 0x01	; 1
    485c:	82 e0       	ldi	r24, 0x02	; 2
    485e:	0e 94 d4 23 	call	0x47a8	; 0x47a8 <Check_LED>

      if (Check.Diodes == 1)       /* got one */
    4862:	80 91 06 01 	lds	r24, 0x0106	; 0x800106 <Check+0x5>
    4866:	81 30       	cpi	r24, 0x01	; 1
    4868:	09 f0       	breq	.+2      	; 0x486c <OptoCoupler_Tool+0x9c>
    486a:	40 c1       	rjmp	.+640    	; 0x4aec <OptoCoupler_Tool+0x31c>
      {
        /* update probes for remaining checks (3rd probe is done automatically) */
        UpdateProbes2(Diodes[0].A, Diodes[0].C);
    486c:	60 91 63 01 	lds	r22, 0x0163	; 0x800163 <Diodes+0x1>
    4870:	80 91 62 01 	lds	r24, 0x0162	; 0x800162 <Diodes>
    4874:	0e 94 31 0e 	call	0x1c62	; 0x1c62 <UpdateProbes2>
       */

      if (Test == DETECTED_LED)         /* LED detected */
      {
        /* set probes: probe-2 -- Gnd / probe-3 -- Rl -- Vcc */
        ADC_DDR = Probes.Pin_2;              /* set probe-2 to output */
    4878:	80 91 c2 01 	lds	r24, 0x01C2	; 0x8001c2 <Probes+0xd>
    487c:	87 b9       	out	0x07, r24	; 7
        ADC_PORT = 0;                        /* pull down probe-2 directly */
    487e:	18 b8       	out	0x08, r1	; 8
        R_DDR = Probes.Rl_1 | Probes.Rl_3;   /* select Rl for probe-1 & Rl for probe-3 */
    4880:	80 91 bb 01 	lds	r24, 0x01BB	; 0x8001bb <Probes+0x6>
    4884:	90 91 bd 01 	lds	r25, 0x01BD	; 0x8001bd <Probes+0x8>
    4888:	89 2b       	or	r24, r25
    488a:	8a b9       	out	0x0a, r24	; 10
        R_PORT = Probes.Rl_3;                /* pull up collector via Rl */
    488c:	9b b9       	out	0x0b, r25	; 11
        U1 = ReadU_5ms(Probes.Ch_3);         /* voltage at collector when LED is off */
    488e:	80 91 c6 01 	lds	r24, 0x01C6	; 0x8001c6 <Probes+0x11>
    4892:	0e 94 c1 0d 	call	0x1b82	; 0x1b82 <ReadU_5ms>

        /* make sure we have no conduction without the LED lit */
        if (U1 > 4000)        /* allow a leakage current of 1.5mA */
    4896:	81 3a       	cpi	r24, 0xA1	; 161
    4898:	9f 40       	sbci	r25, 0x0F	; 15
    489a:	90 f1       	brcs	.+100    	; 0x4900 <OptoCoupler_Tool+0x130>
        {
          /* simulate zero crossing in case of a TRIAC with zero crossing circuit */
          R_PORT = Probes.Rl_1;                /* turn on LED */
    489c:	80 91 bb 01 	lds	r24, 0x01BB	; 0x8001bb <Probes+0x6>
    48a0:	8b b9       	out	0x0b, r24	; 11
          wait1ms();                           /* wait a tad */
    48a2:	0e 94 2d 2b 	call	0x565a	; 0x565a <wait1ms>
          R_PORT = Probes.Rl_1 | Probes.Rl_3;  /* also pull up collector via Rl */
    48a6:	80 91 bb 01 	lds	r24, 0x01BB	; 0x8001bb <Probes+0x6>
    48aa:	90 91 bd 01 	lds	r25, 0x01BD	; 0x8001bd <Probes+0x8>
    48ae:	89 2b       	or	r24, r25
    48b0:	8b b9       	out	0x0b, r24	; 11
          U1 = ReadU_5ms(Probes.Ch_3);         /* voltage at collector when LED is on */
    48b2:	80 91 c6 01 	lds	r24, 0x01C6	; 0x8001c6 <Probes+0x11>
    48b6:	0e 94 c1 0d 	call	0x1b82	; 0x1b82 <ReadU_5ms>
    48ba:	ec 01       	movw	r28, r24

          R_PORT = Probes.Rl_3;                /* turn off LED */
    48bc:	80 91 bd 01 	lds	r24, 0x01BD	; 0x8001bd <Probes+0x8>
    48c0:	8b b9       	out	0x0b, r24	; 11
          U2 = ReadU_5ms(Probes.Ch_3);         /* voltage at collector when LED is off */
    48c2:	80 91 c6 01 	lds	r24, 0x01C6	; 0x8001c6 <Probes+0x11>
    48c6:	0e 94 c1 0d 	call	0x1b82	; 0x1b82 <ReadU_5ms>

          /* we should have conduction when the LED is lit */
          if (U1 <= 4000)          /* more than 1.5mA */
    48ca:	c1 3a       	cpi	r28, 0xA1	; 161
    48cc:	2f e0       	ldi	r18, 0x0F	; 15
    48ce:	d2 07       	cpc	r29, r18
    48d0:	b8 f4       	brcc	.+46     	; 0x4900 <OptoCoupler_Tool+0x130>
          {
            if (U2 >= 4000)        /* no conduction, allow some leakage current */
    48d2:	80 3a       	cpi	r24, 0xA0	; 160
    48d4:	2f e0       	ldi	r18, 0x0F	; 15
    48d6:	92 07       	cpc	r25, r18
    48d8:	08 f0       	brcs	.+2      	; 0x48dc <OptoCoupler_Tool+0x10c>
    48da:	94 c0       	rjmp	.+296    	; 0x4a04 <OptoCoupler_Tool+0x234>
            }
            else                   /* conduction */
            {
              /* check if both voltages are about the same */
              U3 = U1;
              U3 /= 8;             /* 12.5% */
    48dc:	9e 01       	movw	r18, r28
    48de:	43 e0       	ldi	r20, 0x03	; 3
    48e0:	36 95       	lsr	r19
    48e2:	27 95       	ror	r18
    48e4:	4a 95       	dec	r20
    48e6:	e1 f7       	brne	.-8      	; 0x48e0 <OptoCoupler_Tool+0x110>
              U4 = U1 - U3;        /* lower threshold */
    48e8:	ae 01       	movw	r20, r28
    48ea:	42 1b       	sub	r20, r18
    48ec:	53 0b       	sbc	r21, r19
              U3 += U1;            /* upper threshold */
              if ((U2 > U4) && (U2 < U3))
    48ee:	48 17       	cp	r20, r24
    48f0:	59 07       	cpc	r21, r25
    48f2:	30 f4       	brcc	.+12     	; 0x4900 <OptoCoupler_Tool+0x130>
            {
              /* check if both voltages are about the same */
              U3 = U1;
              U3 /= 8;             /* 12.5% */
              U4 = U1 - U3;        /* lower threshold */
              U3 += U1;            /* upper threshold */
    48f4:	c2 0f       	add	r28, r18
    48f6:	d3 1f       	adc	r29, r19
              if ((U2 > U4) && (U2 < U3))
    48f8:	8c 17       	cp	r24, r28
    48fa:	9d 07       	cpc	r25, r29
    48fc:	08 f4       	brcc	.+2      	; 0x4900 <OptoCoupler_Tool+0x130>
    48fe:	84 c0       	rjmp	.+264    	; 0x4a08 <OptoCoupler_Tool+0x238>
      if (Check.Diodes == 1)       /* got one */
      {
        /* update probes for remaining checks (3rd probe is done automatically) */
        UpdateProbes2(Diodes[0].A, Diodes[0].C);

        Test = DETECTED_LED;            /* proceed with other checks */
    4900:	82 e3       	ldi	r24, 0x32	; 50
              }
            }
          }
        }

        R_DDR = Probes.Rl_1;                 /* set probe-3 to HiZ */
    4902:	90 91 bb 01 	lds	r25, 0x01BB	; 0x8001bb <Probes+0x6>
    4906:	9a b9       	out	0x0a, r25	; 10

      /*
       *  measure CRT for BJT type
       */

      if (Test == DETECTED_BJT)         /* BJT type */
    4908:	84 36       	cpi	r24, 0x64	; 100
    490a:	09 f0       	breq	.+2      	; 0x490e <OptoCoupler_Tool+0x13e>
    490c:	ed c0       	rjmp	.+474    	; 0x4ae8 <OptoCoupler_Tool+0x318>
      {
        /* change probes: probe-3 -- Vcc */
        ADC_DDR = Probes.Pin_2 | Probes.Pin_3;    /* set probe-3 to output */
    490e:	80 91 c2 01 	lds	r24, 0x01C2	; 0x8001c2 <Probes+0xd>
    4912:	20 91 c3 01 	lds	r18, 0x01C3	; 0x8001c3 <Probes+0xe>
    4916:	82 2b       	or	r24, r18
    4918:	87 b9       	out	0x07, r24	; 7
        ADC_PORT = Probes.Pin_3;                  /* pull up probe-3 directly */
    491a:	28 b9       	out	0x08, r18	; 8

        /* get voltages at current shunts */
        Cfg.Samples = 10;               /* just a few samples for 1ms runtime */
    491c:	60 92 89 01 	sts	0x0189, r6	; 0x800189 <Cfg+0x3>
        R_PORT = Probes.Rl_1;           /* turn LED on */
    4920:	9b b9       	out	0x0b, r25	; 11
        wait1ms();                      /* time for propagation delay */
    4922:	0e 94 2d 2b 	call	0x565a	; 0x565a <wait1ms>
        U1 = ReadU(Probes.Ch_1);        /* voltage at LED's anode (Rl) */
    4926:	80 91 c4 01 	lds	r24, 0x01C4	; 0x8001c4 <Probes+0xf>
    492a:	0e 94 61 0d 	call	0x1ac2	; 0x1ac2 <ReadU>
    492e:	ec 01       	movw	r28, r24
        U2 = ReadU(Probes.Ch_2);        /* voltage at emitter (RiL) */
    4930:	80 91 c5 01 	lds	r24, 0x01C5	; 0x8001c5 <Probes+0x10>
    4934:	0e 94 61 0d 	call	0x1ac2	; 0x1ac2 <ReadU>
    4938:	ac 01       	movw	r20, r24
        R_PORT = 0;                     /* turn LED off */
    493a:	1b b8       	out	0x0b, r1	; 11
        Cfg.Samples = ADC_SAMPLES;      /* reset samples to default */
    493c:	50 92 89 01 	sts	0x0189, r5	; 0x800189 <Cfg+0x3>

        /* calculate LED's If */
        /* If = (Vcc - U1) / (RiH + Rl) */
        U3 = Cfg.Vcc - U1;              /* Vcc - U1 (mV) */
    4940:	20 91 8e 01 	lds	r18, 0x018E	; 0x80018e <Cfg+0x8>
    4944:	30 91 8f 01 	lds	r19, 0x018F	; 0x80018f <Cfg+0x9>
    4948:	2c 1b       	sub	r18, r28
    494a:	3d 0b       	sbc	r19, r29
        CTR = (uint32_t)U3;
        CTR *= 10000;                   /* scale to 0.0001 mV */
    494c:	a0 e1       	ldi	r26, 0x10	; 16
    494e:	b7 e2       	ldi	r27, 0x27	; 39
    4950:	0e 94 4b 2d 	call	0x5a96	; 0x5a96 <__umulhisi3>
    4954:	6b 01       	movw	r12, r22
    4956:	7c 01       	movw	r14, r24
        U3 = (uint16_t)CTR;             /* If in ÁA */

        /* calculate BJT's Ie */
        /* Ie = I_total - If = (U2 / RiL) - If */
        CTR = (uint32_t)U2;             /* U2 (mV) */
        CTR *= 10000;                   /* scale to 0.0001 mV */
    4958:	9a 01       	movw	r18, r20
    495a:	0e 94 4b 2d 	call	0x5a96	; 0x5a96 <__umulhisi3>
        CTR /= NV.RiL;                  /* /RiL in 0.1 Ohms -> I_total (ÁA) */ 
    495e:	20 91 c7 01 	lds	r18, 0x01C7	; 0x8001c7 <NV>
    4962:	30 91 c8 01 	lds	r19, 0x01C8	; 0x8001c8 <NV+0x1>
    4966:	50 e0       	ldi	r21, 0x00	; 0
    4968:	40 e0       	ldi	r20, 0x00	; 0
    496a:	0e 94 04 2d 	call	0x5a08	; 0x5a08 <__udivmodsi4>
    496e:	49 01       	movw	r8, r18
    4970:	5a 01       	movw	r10, r20
        /* calculate LED's If */
        /* If = (Vcc - U1) / (RiH + Rl) */
        U3 = Cfg.Vcc - U1;              /* Vcc - U1 (mV) */
        CTR = (uint32_t)U3;
        CTR *= 10000;                   /* scale to 0.0001 mV */
        U4 = NV.RiH + (R_LOW * 10);     /* RiH + Rl (0.1 Ohms) */
    4972:	20 91 c9 01 	lds	r18, 0x01C9	; 0x8001c9 <NV+0x2>
    4976:	30 91 ca 01 	lds	r19, 0x01CA	; 0x8001ca <NV+0x3>
    497a:	20 57       	subi	r18, 0x70	; 112
    497c:	35 4e       	sbci	r19, 0xE5	; 229
        CTR /= U4;                      /* If = U/R in ÁA */
    497e:	50 e0       	ldi	r21, 0x00	; 0
    4980:	40 e0       	ldi	r20, 0x00	; 0
    4982:	c7 01       	movw	r24, r14
    4984:	b6 01       	movw	r22, r12
    4986:	0e 94 04 2d 	call	0x5a08	; 0x5a08 <__udivmodsi4>
    498a:	69 01       	movw	r12, r18
    498c:	7a 01       	movw	r14, r20
    498e:	ee 24       	eor	r14, r14
    4990:	ff 24       	eor	r15, r15
        /* calculate BJT's Ie */
        /* Ie = I_total - If = (U2 / RiL) - If */
        CTR = (uint32_t)U2;             /* U2 (mV) */
        CTR *= 10000;                   /* scale to 0.0001 mV */
        CTR /= NV.RiL;                  /* /RiL in 0.1 Ohms -> I_total (ÁA) */ 
        CTR -= U3;                      /* Ie = I_total - If (ÁA) */
    4992:	a5 01       	movw	r20, r10
    4994:	94 01       	movw	r18, r8
    4996:	2c 19       	sub	r18, r12
    4998:	3d 09       	sbc	r19, r13
    499a:	4e 09       	sbc	r20, r14
    499c:	5f 09       	sbc	r21, r15

        /* calculate CTR */
        /* CTR = Ie / If */
        CTR *= 100;                     /* scale up to % */
    499e:	a4 e6       	ldi	r26, 0x64	; 100
    49a0:	b0 e0       	ldi	r27, 0x00	; 0
    49a2:	0e 94 61 2d 	call	0x5ac2	; 0x5ac2 <__muluhisi3>
        CTR /= U3;                      /* Ie / If (%) */
    49a6:	a7 01       	movw	r20, r14
    49a8:	96 01       	movw	r18, r12
    49aa:	0e 94 04 2d 	call	0x5a08	; 0x5a08 <__udivmodsi4>
    49ae:	49 01       	movw	r8, r18
    49b0:	5a 01       	movw	r10, r20
      if (Test == DETECTED_BJT)    /* BJT type */
      {
        U1 = UINT16_MAX;           /* reset value */
        U2 = UINT16_MAX;

        ADC_DDR = Probes.Pin_2;              /* set probe-2 to output */
    49b2:	80 91 c2 01 	lds	r24, 0x01C2	; 0x8001c2 <Probes+0xd>
    49b6:	87 b9       	out	0x07, r24	; 7
        ADC_PORT = 0;                        /* pull down probe-2 directly */
    49b8:	18 b8       	out	0x08, r1	; 8
        R_DDR = Probes.Rl_1 | Probes.Rl_3;   /* select Rl for probe-1 & Rl for probe-3 */
    49ba:	80 91 bb 01 	lds	r24, 0x01BB	; 0x8001bb <Probes+0x6>
    49be:	90 91 bd 01 	lds	r25, 0x01BD	; 0x8001bd <Probes+0x8>
    49c2:	89 2b       	or	r24, r25
    49c4:	8a b9       	out	0x0a, r24	; 10
        R_PORT = Probes.Rl_3;                /* pull up collector via Rl */
    49c6:	9b b9       	out	0x0b, r25	; 11

        U1 = ReadU_5ms(Probes.Ch_3);         /* voltage at collector when LED is off */
    49c8:	80 91 c6 01 	lds	r24, 0x01C6	; 0x8001c6 <Probes+0x11>
    49cc:	0e 94 c1 0d 	call	0x1b82	; 0x1b82 <ReadU_5ms>
    49d0:	8c 01       	movw	r16, r24

        /* make sure we have no conduction without the LED lit */
        if (U1 > 4000)        /* allow a leakage current of 1.5mA */
    49d2:	01 3a       	cpi	r16, 0xA1	; 161
    49d4:	8f e0       	ldi	r24, 0x0F	; 15
    49d6:	18 07       	cpc	r17, r24
    49d8:	68 f1       	brcs	.+90     	; 0x4a34 <OptoCoupler_Tool+0x264>
        {
          Test = Probes.Pin_3;     /* port pin mask for probe-3 */
    49da:	90 91 c3 01 	lds	r25, 0x01C3	; 0x8001c3 <Probes+0xe>
          /*
           *  turn-on delay
           */

          Run = 0;                                /* zero counter */
          R_PORT = Probes.Rl_1 | Probes.Rl_3;     /* turn on LED */
    49de:	80 91 bb 01 	lds	r24, 0x01BB	; 0x8001bb <Probes+0x6>
    49e2:	20 91 bd 01 	lds	r18, 0x01BD	; 0x8001bd <Probes+0x8>
    49e6:	82 2b       	or	r24, r18
    49e8:	8b b9       	out	0x0b, r24	; 11

          /*
           *  turn-on delay
           */

          Run = 0;                                /* zero counter */
    49ea:	60 e0       	ldi	r22, 0x00	; 0
          /*
           *  wait for logic low level (<2.0V)
           *  - MCU cycles for full loop run: 7
           */

          while (ADC_PIN & Test)
    49ec:	86 b1       	in	r24, 0x06	; 6
    49ee:	89 23       	and	r24, r25
    49f0:	69 f4       	brne	.+26     	; 0x4a0c <OptoCoupler_Tool+0x23c>
            if (Run > 250) break;       /* check for overflow */
          }

          if (Run <= 250)          /* no overrun */
          {
            U1 = Run * 70;                   /* delay (0.1 MCU cycles) */
    49f2:	67 9d       	mul	r22, r7
    49f4:	80 01       	movw	r16, r0
    49f6:	11 24       	eor	r1, r1
            U1 /= MCU_CYCLES_PER_US;         /* delay (0.1 Ás) */
    49f8:	33 e0       	ldi	r19, 0x03	; 3
    49fa:	16 95       	lsr	r17
    49fc:	07 95       	ror	r16
    49fe:	3a 95       	dec	r19
    4a00:	e1 f7       	brne	.-8      	; 0x49fa <OptoCoupler_Tool+0x22a>
    4a02:	07 c0       	rjmp	.+14     	; 0x4a12 <OptoCoupler_Tool+0x242>
          /* we should have conduction when the LED is lit */
          if (U1 <= 4000)          /* more than 1.5mA */
          {
            if (U2 >= 4000)        /* no conduction, allow some leakage current */
            {
              Test = DETECTED_BJT;      /* BJT type */
    4a04:	84 e6       	ldi	r24, 0x64	; 100
    4a06:	7d cf       	rjmp	.-262    	; 0x4902 <OptoCoupler_Tool+0x132>
              U3 /= 8;             /* 12.5% */
              U4 = U1 - U3;        /* lower threshold */
              U3 += U1;            /* upper threshold */
              if ((U2 > U4) && (U2 < U3))
              {
                Test = DETECTED_TRIAC;  /* TRIAC type */
    4a08:	85 e6       	ldi	r24, 0x65	; 101
    4a0a:	7b cf       	rjmp	.-266    	; 0x4902 <OptoCoupler_Tool+0x132>
           *  - MCU cycles for full loop run: 7
           */

          while (ADC_PIN & Test)
          {
            Run++;                      /* increase counter */
    4a0c:	6f 5f       	subi	r22, 0xFF	; 255
            if (Run > 250) break;       /* check for overflow */
    4a0e:	6b 3f       	cpi	r22, 0xFB	; 251
    4a10:	69 f7       	brne	.-38     	; 0x49ec <OptoCoupler_Tool+0x21c>
          /*
           *  turn-off delay
           */

          Run = 0;                                /* zero counter */
          R_PORT = Probes.Rl_3;                   /* turn off LED */
    4a12:	2b b9       	out	0x0b, r18	; 11

          /*
           *  turn-off delay
           */

          Run = 0;                                /* zero counter */
    4a14:	c0 e0       	ldi	r28, 0x00	; 0
          /*
           *  wait for logic high level (>2.5V)
           *  - MCU cycles for full loop run: 7
           */

          while (!(ADC_PIN & Test))
    4a16:	86 b1       	in	r24, 0x06	; 6
    4a18:	89 23       	and	r24, r25
    4a1a:	49 f0       	breq	.+18     	; 0x4a2e <OptoCoupler_Tool+0x25e>
            if (Run > 250) break;       /* check for overflow */
          }

          if (Run <= 250)          /* no overrun */
          {
            U2 = Run * 70;                   /* delay (0.1 MCU cycles) */
    4a1c:	c7 9d       	mul	r28, r7
    4a1e:	e0 01       	movw	r28, r0
    4a20:	11 24       	eor	r1, r1
            U2 /= MCU_CYCLES_PER_US;         /* delay (0.1 Ás) */
    4a22:	83 e0       	ldi	r24, 0x03	; 3
    4a24:	d6 95       	lsr	r29
    4a26:	c7 95       	ror	r28
    4a28:	8a 95       	dec	r24
    4a2a:	e1 f7       	brne	.-8      	; 0x4a24 <OptoCoupler_Tool+0x254>
    4a2c:	05 c0       	rjmp	.+10     	; 0x4a38 <OptoCoupler_Tool+0x268>
           *  - MCU cycles for full loop run: 7
           */

          while (!(ADC_PIN & Test))
          {
            Run++;                      /* increase counter */
    4a2e:	cf 5f       	subi	r28, 0xFF	; 255
            if (Run > 250) break;       /* check for overflow */
    4a30:	cb 3f       	cpi	r28, 0xFB	; 251
    4a32:	89 f7       	brne	.-30     	; 0x4a16 <OptoCoupler_Tool+0x246>
       */

      if (Test == DETECTED_BJT)    /* BJT type */
      {
        U1 = UINT16_MAX;           /* reset value */
        U2 = UINT16_MAX;
    4a34:	cf ef       	ldi	r28, 0xFF	; 255
    4a36:	df ef       	ldi	r29, 0xFF	; 255
       *  display result
       */

      if (Test == DETECTED_BJT)         /* BJT type */
      {
        Display_EEString(BJT_str);      /* display: BJT */
    4a38:	89 e2       	ldi	r24, 0x29	; 41
    4a3a:	92 e0       	ldi	r25, 0x02	; 2
    4a3c:	0e 94 0f 11 	call	0x221e	; 0x221e <Display_EEString>

        Display_NL_EEString_Space(CTR_str);       /* display: CTR */
    4a40:	88 ed       	ldi	r24, 0xD8	; 216
    4a42:	91 e0       	ldi	r25, 0x01	; 1
    4a44:	0e 94 43 11 	call	0x2286	; 0x2286 <Display_NL_EEString_Space>
        Display_Value(CTR, 0, '%');               /* display CTR */
    4a48:	25 e2       	ldi	r18, 0x25	; 37
    4a4a:	40 e0       	ldi	r20, 0x00	; 0
    4a4c:	c5 01       	movw	r24, r10
    4a4e:	b4 01       	movw	r22, r8
    4a50:	0e 94 74 11 	call	0x22e8	; 0x22e8 <Display_Value>

        Display_NL_EEString_Space(If_str);        /* display: If */
    4a54:	83 ef       	ldi	r24, 0xF3	; 243
    4a56:	90 e0       	ldi	r25, 0x00	; 0
    4a58:	0e 94 43 11 	call	0x2286	; 0x2286 <Display_NL_EEString_Space>
        Display_Value(U3, -6, 'A');               /* display If */
    4a5c:	21 e4       	ldi	r18, 0x41	; 65
    4a5e:	4a ef       	ldi	r20, 0xFA	; 250
    4a60:	c7 01       	movw	r24, r14
    4a62:	b6 01       	movw	r22, r12
    4a64:	0e 94 74 11 	call	0x22e8	; 0x22e8 <Display_Value>

        if (U1 < UINT16_MAX)       /* valid t_on */
    4a68:	0f 3f       	cpi	r16, 0xFF	; 255
    4a6a:	10 07       	cpc	r17, r16
    4a6c:	99 f0       	breq	.+38     	; 0x4a94 <OptoCoupler_Tool+0x2c4>
        {
          Display_NL_EEString_Space(t_on_str);    /* display: t_on */
    4a6e:	8e ee       	ldi	r24, 0xEE	; 238
    4a70:	90 e0       	ldi	r25, 0x00	; 0
    4a72:	0e 94 43 11 	call	0x2286	; 0x2286 <Display_NL_EEString_Space>
          if (U1 < 10)        /* < 1Ás */
    4a76:	0a 30       	cpi	r16, 0x0A	; 10
    4a78:	11 05       	cpc	r17, r1
    4a7a:	28 f4       	brcc	.+10     	; 0x4a86 <OptoCoupler_Tool+0x2b6>
          {
            Display_Char('<');
    4a7c:	8c e3       	ldi	r24, 0x3C	; 60
    4a7e:	0e 94 fe 2a 	call	0x55fc	; 0x55fc <LCD_Char>
            U1 = 10;          /* 1Ás */
    4a82:	0a e0       	ldi	r16, 0x0A	; 10
    4a84:	10 e0       	ldi	r17, 0x00	; 0
          }
          Display_Value(U1, -7, 's');
    4a86:	b8 01       	movw	r22, r16
    4a88:	90 e0       	ldi	r25, 0x00	; 0
    4a8a:	80 e0       	ldi	r24, 0x00	; 0
    4a8c:	23 e7       	ldi	r18, 0x73	; 115
    4a8e:	49 ef       	ldi	r20, 0xF9	; 249
    4a90:	0e 94 74 11 	call	0x22e8	; 0x22e8 <Display_Value>
        }

        if (U2 < UINT16_MAX)       /* valid t_off */
    4a94:	cf 3f       	cpi	r28, 0xFF	; 255
    4a96:	dc 07       	cpc	r29, r28
    4a98:	99 f0       	breq	.+38     	; 0x4ac0 <OptoCoupler_Tool+0x2f0>
        {
          Display_NL_EEString_Space(t_off_str);   /* display: t_off */
    4a9a:	88 ee       	ldi	r24, 0xE8	; 232
    4a9c:	90 e0       	ldi	r25, 0x00	; 0
    4a9e:	0e 94 43 11 	call	0x2286	; 0x2286 <Display_NL_EEString_Space>
          if (U2 < 10)        /* < 1Ás */
    4aa2:	ca 30       	cpi	r28, 0x0A	; 10
    4aa4:	d1 05       	cpc	r29, r1
    4aa6:	28 f4       	brcc	.+10     	; 0x4ab2 <OptoCoupler_Tool+0x2e2>
          {
            Display_Char('<');
    4aa8:	8c e3       	ldi	r24, 0x3C	; 60
    4aaa:	0e 94 fe 2a 	call	0x55fc	; 0x55fc <LCD_Char>
            U2 = 10;          /* 1Ás */
    4aae:	ca e0       	ldi	r28, 0x0A	; 10
    4ab0:	d0 e0       	ldi	r29, 0x00	; 0
          }
          Display_Value(U2, -7, 's');
    4ab2:	be 01       	movw	r22, r28
    4ab4:	90 e0       	ldi	r25, 0x00	; 0
    4ab6:	80 e0       	ldi	r24, 0x00	; 0
    4ab8:	23 e7       	ldi	r18, 0x73	; 115
    4aba:	49 ef       	ldi	r20, 0xF9	; 249
    4abc:	0e 94 74 11 	call	0x22e8	; 0x22e8 <Display_Value>
      }
      else if (Test == DETECTED_TRIAC)  /* TRIAC type */
      {
        Display_EEString(Triac_str);    /* display: TRIAC */

        Display_NL_EEString_Space(Vf_str);        /* display: Vf */
    4ac0:	8b e8       	ldi	r24, 0x8B	; 139
    4ac2:	91 e0       	ldi	r25, 0x01	; 1
    4ac4:	0e 94 43 11 	call	0x2286	; 0x2286 <Display_NL_EEString_Space>
        Display_Value(Diodes[0].V_f, -3, 'V');    /* display Vf */
    4ac8:	60 91 64 01 	lds	r22, 0x0164	; 0x800164 <Diodes+0x2>
    4acc:	70 91 65 01 	lds	r23, 0x0165	; 0x800165 <Diodes+0x3>
    4ad0:	90 e0       	ldi	r25, 0x00	; 0
    4ad2:	80 e0       	ldi	r24, 0x00	; 0
    4ad4:	26 e5       	ldi	r18, 0x56	; 86
    4ad6:	4d ef       	ldi	r20, 0xFD	; 253
    4ad8:	0e 94 74 11 	call	0x22e8	; 0x22e8 <Display_Value>
    4adc:	92 ce       	rjmp	.-732    	; 0x4802 <OptoCoupler_Tool+0x32>
        Display_NL_EEString_Space(Vf_str);        /* display: Vf */
        Display_Value(Diodes[0].V_f, -3, 'V');    /* display Vf */
      }
      else if (Test == DETECTED_TRIAC)  /* TRIAC type */
      {
        Display_EEString(Triac_str);    /* display: TRIAC */
    4ade:	8f e1       	ldi	r24, 0x1F	; 31
    4ae0:	92 e0       	ldi	r25, 0x02	; 2
    4ae2:	0e 94 0f 11 	call	0x221e	; 0x221e <Display_EEString>
    4ae6:	ec cf       	rjmp	.-40     	; 0x4ac0 <OptoCoupler_Tool+0x2f0>
        }

        Display_NL_EEString_Space(Vf_str);        /* display: Vf */
        Display_Value(Diodes[0].V_f, -3, 'V');    /* display Vf */
      }
      else if (Test == DETECTED_TRIAC)  /* TRIAC type */
    4ae8:	85 36       	cpi	r24, 0x65	; 101
    4aea:	c9 f3       	breq	.-14     	; 0x4ade <OptoCoupler_Tool+0x30e>
        Display_NL_EEString_Space(Vf_str);        /* display: Vf */
        Display_Value(Diodes[0].V_f, -3, 'V');    /* display Vf */
      }
      else                              /* none found */
      {
        Display_EEString(None_str);     /* display: None */
    4aec:	8c ed       	ldi	r24, 0xDC	; 220
    4aee:	91 e0       	ldi	r25, 0x01	; 1
    4af0:	0e 94 0f 11 	call	0x221e	; 0x221e <Display_EEString>
    4af4:	86 ce       	rjmp	.-756    	; 0x4802 <OptoCoupler_Tool+0x32>

00004af6 <PWM_Tool>:
 *  requires:
 *  - Freqency in Hz
 */

void PWM_Tool(uint16_t Frequency)
{
    4af6:	8f 92       	push	r8
    4af8:	9f 92       	push	r9
    4afa:	af 92       	push	r10
    4afc:	bf 92       	push	r11
    4afe:	cf 92       	push	r12
    4b00:	df 92       	push	r13
    4b02:	ef 92       	push	r14
    4b04:	ff 92       	push	r15
    4b06:	cf 93       	push	r28
    4b08:	df 93       	push	r29
    4b0a:	6c 01       	movw	r12, r24
   *    64         62.5 kHz   0.95 Hz    15.625 kHz   625 Hz
   *    256        15625 Hz   0.24 Hz    3906.25 Hz   156.25 Hz
   *  - to support a PWM ratio of 1% top should be at least 100
   */

  ShortCircuit(0);                      /* make sure probes are not shorted */
    4b0c:	80 e0       	ldi	r24, 0x00	; 0
    4b0e:	0e 94 4b 07 	call	0xe96	; 0xe96 <ShortCircuit>

  /* display info */
  LCD_Clear();
    4b12:	0e 94 16 2b 	call	0x562c	; 0x562c <LCD_Clear>
  #ifdef UI_COLORED_TITLES
    /* display: PWM */
    Display_ColoredEEString_Space(PWM_str, COLOR_TITLE);
  #else
    Display_EEString_Space(PWM_str);    /* display: PWM */
    4b16:	8a ef       	ldi	r24, 0xFA	; 250
    4b18:	91 e0       	ldi	r25, 0x01	; 1
    4b1a:	0e 94 33 11 	call	0x2266	; 0x2266 <Display_EEString_Space>
  #endif
  Display_Value2(Frequency);            /* display frequency */
    4b1e:	f1 2c       	mov	r15, r1
    4b20:	e1 2c       	mov	r14, r1
    4b22:	c7 01       	movw	r24, r14
    4b24:	b6 01       	movw	r22, r12
    4b26:	0e 94 00 12 	call	0x2400	; 0x2400 <Display_Value2>
  Display_EEString(Hertz_str);          /* display: Hz */
    4b2a:	83 e1       	ldi	r24, 0x13	; 19
    4b2c:	92 e0       	ldi	r25, 0x02	; 2
    4b2e:	0e 94 0f 11 	call	0x221e	; 0x221e <Display_EEString>
  #ifndef HW_FIXED_SIGNAL_OUTPUT
  ProbePinout(PROBES_PWM);              /* show probes used */
    4b32:	80 e0       	ldi	r24, 0x00	; 0
    4b34:	0e 94 be 23 	call	0x477c	; 0x477c <ProbePinout>
  #endif

  #ifndef HW_FIXED_SIGNAL_OUTPUT
  /* set up probes: #1 and #3 are signal ground, #2 is signal output */
  ADC_PORT = 0;                         /* pull down directly: */
    4b38:	18 b8       	out	0x08, r1	; 8
  ADC_DDR = (1 << TP1) | (1 << TP3);    /* probe 1 & 3 */
    4b3a:	85 e0       	ldi	r24, 0x05	; 5
    4b3c:	87 b9       	out	0x07, r24	; 7
  R_DDR = (1 << R_RL_2);                /* enable Rl for probe 2 */
    4b3e:	80 e1       	ldi	r24, 0x10	; 16
    4b40:	8a b9       	out	0x0a, r24	; 10
  R_PORT = 0;                           /* pull down probe 2 initially */
    4b42:	1b b8       	out	0x0b, r1	; 11
   *  calculate required prescaler and top value based on MCU clock
   *  - top = f_MCU / (2 * prescaler * f_PWM)
   */

  Value = CPU_FREQ / 2;                 /* /2 */
  Value /= Frequency;                   /* /f_PWM */
    4b44:	60 e0       	ldi	r22, 0x00	; 0
    4b46:	79 e0       	ldi	r23, 0x09	; 9
    4b48:	8d e3       	ldi	r24, 0x3D	; 61
    4b4a:	90 e0       	ldi	r25, 0x00	; 0
    4b4c:	a7 01       	movw	r20, r14
    4b4e:	96 01       	movw	r18, r12
    4b50:	0e 94 04 2d 	call	0x5a08	; 0x5a08 <__udivmodsi4>
    4b54:	69 01       	movw	r12, r18
    4b56:	7a 01       	movw	r14, r20

  if (Value > 2000000)        /* low frequency (<20Hz @8MHz) */
    4b58:	81 e8       	ldi	r24, 0x81	; 129
    4b5a:	c8 16       	cp	r12, r24
    4b5c:	84 e8       	ldi	r24, 0x84	; 132
    4b5e:	d8 06       	cpc	r13, r24
    4b60:	8e e1       	ldi	r24, 0x1E	; 30
    4b62:	e8 06       	cpc	r14, r24
    4b64:	f1 04       	cpc	r15, r1
    4b66:	08 f4       	brcc	.+2      	; 0x4b6a <PWM_Tool+0x74>
    4b68:	5e c0       	rjmp	.+188    	; 0x4c26 <PWM_Tool+0x130>
  {
    #ifdef PWM_SHOW_DURATION
      Toggle = 256;                     /* prescaler 256 */
    #else
      Value /= 256;                     /* /prescaler */
    4b6a:	cd 2c       	mov	r12, r13
    4b6c:	de 2c       	mov	r13, r14
    4b6e:	ef 2c       	mov	r14, r15
    4b70:	ff 24       	eor	r15, r15
    #endif
    Bits = (1 << CS12);                 /* prescaler bits for 256:1 */
    4b72:	84 e0       	ldi	r24, 0x04	; 4
   *  - phase correct PWM
   *  - top value by OCR1A
   *  - OC1B non-inverted output
   */

  TCCR1B = 0;                                /* stop timer */
    4b74:	10 92 81 00 	sts	0x0081, r1	; 0x800081 <__TEXT_REGION_LENGTH__+0x7f8081>
  /* enable OC1B pin and set timer mode */
  TCCR1A = (1 << WGM11) | (1 << WGM10) | (1 << COM1B1);
    4b78:	93 e2       	ldi	r25, 0x23	; 35
    4b7a:	90 93 80 00 	sts	0x0080, r25	; 0x800080 <__TEXT_REGION_LENGTH__+0x7f8080>
  TCCR1B = (1 << WGM13);
    4b7e:	90 e1       	ldi	r25, 0x10	; 16
    4b80:	90 93 81 00 	sts	0x0081, r25	; 0x800081 <__TEXT_REGION_LENGTH__+0x7f8081>
  TCNT1 = 0;                                 /* set counter to 0 */
    4b84:	10 92 85 00 	sts	0x0085, r1	; 0x800085 <__TEXT_REGION_LENGTH__+0x7f8085>
    4b88:	10 92 84 00 	sts	0x0084, r1	; 0x800084 <__TEXT_REGION_LENGTH__+0x7f8084>
  OCR1A = Top;                               /* set top value (-1) */
    4b8c:	d0 92 89 00 	sts	0x0089, r13	; 0x800089 <__TEXT_REGION_LENGTH__+0x7f8089>
    4b90:	c0 92 88 00 	sts	0x0088, r12	; 0x800088 <__TEXT_REGION_LENGTH__+0x7f8088>
  OCR1B = Toggle;                            /* set value to compare with */
    4b94:	96 01       	movw	r18, r12
    4b96:	36 95       	lsr	r19
    4b98:	27 95       	ror	r18
    4b9a:	30 93 8b 00 	sts	0x008B, r19	; 0x80008b <__TEXT_REGION_LENGTH__+0x7f808b>
    4b9e:	20 93 8a 00 	sts	0x008A, r18	; 0x80008a <__TEXT_REGION_LENGTH__+0x7f808a>

  /* start counter by setting clock prescaler */
  TCCR1B = (1 << WGM13) | Bits;
    4ba2:	80 61       	ori	r24, 0x10	; 16
    4ba4:	80 93 81 00 	sts	0x0081, r24	; 0x800081 <__TEXT_REGION_LENGTH__+0x7f8081>
  Value *= Toggle;                      /* * prescaler */
  Time = (uint16_t)Value;               /* keep lower 16 bits */
  #endif

  /* set start values */
  Ratio = 50;                 /* default ratio is 50% */
    4ba8:	c2 e3       	ldi	r28, 0x32	; 50
      if (Ratio >= 5) Ratio -= 5;       /* -5% and limit to 0% */
    }

    /* calculate toggle value: top * (ratio / 100) */
    Value = (uint32_t)Top * Ratio;
    Value /= 100;
    4baa:	24 e6       	ldi	r18, 0x64	; 100
    4bac:	82 2e       	mov	r8, r18
    4bae:	91 2c       	mov	r9, r1
    4bb0:	a1 2c       	mov	r10, r1
    4bb2:	b1 2c       	mov	r11, r1
   */

  while (Test > 0)
  {
    /* show PWM ratio in line #2 */
    LCD_ClearLine2();
    4bb4:	0e 94 50 11 	call	0x22a0	; 0x22a0 <LCD_ClearLine2>
    Display_Value(Ratio, 0, '%');       /* show ratio in % */
    4bb8:	6c 2f       	mov	r22, r28
    4bba:	70 e0       	ldi	r23, 0x00	; 0
    4bbc:	90 e0       	ldi	r25, 0x00	; 0
    4bbe:	80 e0       	ldi	r24, 0x00	; 0
    4bc0:	25 e2       	ldi	r18, 0x25	; 37
    4bc2:	40 e0       	ldi	r20, 0x00	; 0
    4bc4:	0e 94 74 11 	call	0x22e8	; 0x22e8 <Display_Value>
    #endif

    #ifdef HW_KEYS
    if (Test <= KEY_LONG)               /* just for test button usage */
    #endif
    MilliSleep(500);                    /* smooth UI */
    4bc8:	84 ef       	ldi	r24, 0xF4	; 244
    4bca:	91 e0       	ldi	r25, 0x01	; 1
    4bcc:	0e 94 0b 09 	call	0x1216	; 0x1216 <MilliSleep>
     *    long key press -> decrease ratio
     *    two short key presses -> exit tool
     */

    /* wait for user feedback */
    Test = TestKey(0, CHECK_KEY_TWICE | CHECK_BAT);
    4bd0:	68 e1       	ldi	r22, 0x18	; 24
    4bd2:	90 e0       	ldi	r25, 0x00	; 0
    4bd4:	80 e0       	ldi	r24, 0x00	; 0
    4bd6:	0e 94 0f 2b 	call	0x561e	; 0x561e <brutzelboy_get_key>
    4bda:	d8 2f       	mov	r29, r24

    if (Test == KEY_SHORT)              /* short key press */
    4bdc:	81 30       	cpi	r24, 0x01	; 1
    4bde:	a9 f5       	brne	.+106    	; 0x4c4a <PWM_Tool+0x154>
    {
      if (Ratio <= 95) Ratio += 5;      /* +5% and limit to 100% */
    4be0:	c0 36       	cpi	r28, 0x60	; 96
    4be2:	08 f4       	brcc	.+2      	; 0x4be6 <PWM_Tool+0xf0>
    4be4:	cb 5f       	subi	r28, 0xFB	; 251
    {
      if (Ratio >= 5) Ratio -= 5;       /* -5% and limit to 0% */
    }

    /* calculate toggle value: top * (ratio / 100) */
    Value = (uint32_t)Top * Ratio;
    4be6:	ac 2f       	mov	r26, r28
    4be8:	b0 e0       	ldi	r27, 0x00	; 0
    4bea:	a7 01       	movw	r20, r14
    4bec:	96 01       	movw	r18, r12
    4bee:	0e 94 61 2d 	call	0x5ac2	; 0x5ac2 <__muluhisi3>
    Value /= 100;
    4bf2:	a5 01       	movw	r20, r10
    4bf4:	94 01       	movw	r18, r8
    4bf6:	0e 94 04 2d 	call	0x5a08	; 0x5a08 <__udivmodsi4>
    OCR1B = (uint16_t)Value;            /* update compare value */
    4bfa:	30 93 8b 00 	sts	0x008B, r19	; 0x80008b <__TEXT_REGION_LENGTH__+0x7f808b>
    4bfe:	20 93 8a 00 	sts	0x008A, r18	; 0x80008a <__TEXT_REGION_LENGTH__+0x7f808a>

  /*
   *  ratio control
   */

  while (Test > 0)
    4c02:	d1 11       	cpse	r29, r1
    4c04:	d7 cf       	rjmp	.-82     	; 0x4bb4 <PWM_Tool+0xbe>

  /*
   *  clean up
   */

  TCCR1B = 0;                 /* disable timer */
    4c06:	10 92 81 00 	sts	0x0081, r1	; 0x800081 <__TEXT_REGION_LENGTH__+0x7f8081>
  TCCR1A = 0;                 /* reset flags (also frees PB2) */
    4c0a:	10 92 80 00 	sts	0x0080, r1	; 0x800080 <__TEXT_REGION_LENGTH__+0x7f8080>

  #ifndef HW_FIXED_SIGNAL_OUTPUT
  R_DDR = 0;                            /* set HiZ mode */
    4c0e:	1a b8       	out	0x0a, r1	; 10
  #endif

  #ifdef HW_FIXED_SIGNAL_OUTPUT
  SIGNAL_DDR &= ~(1 << SIGNAL_OUT);     /* set HiZ mode */
  #endif
}
    4c10:	df 91       	pop	r29
    4c12:	cf 91       	pop	r28
    4c14:	ff 90       	pop	r15
    4c16:	ef 90       	pop	r14
    4c18:	df 90       	pop	r13
    4c1a:	cf 90       	pop	r12
    4c1c:	bf 90       	pop	r11
    4c1e:	af 90       	pop	r10
    4c20:	9f 90       	pop	r9
    4c22:	8f 90       	pop	r8
    4c24:	08 95       	ret
    #else
      Value /= 256;                     /* /prescaler */
    #endif
    Bits = (1 << CS12);                 /* prescaler bits for 256:1 */
  }
  else if (Value > 16000)     /* mid-range frequency (<250Hz @8MHz) */
    4c26:	81 e8       	ldi	r24, 0x81	; 129
    4c28:	c8 16       	cp	r12, r24
    4c2a:	8e e3       	ldi	r24, 0x3E	; 62
    4c2c:	d8 06       	cpc	r13, r24
    4c2e:	e1 04       	cpc	r14, r1
    4c30:	f1 04       	cpc	r15, r1
    4c32:	48 f0       	brcs	.+18     	; 0x4c46 <PWM_Tool+0x150>
  {
    #ifdef PWM_SHOW_DURATION
      Toggle = 64;                      /* prescaler 64 */
    #else
      Value /= 64;                      /* /prescaler */
    4c34:	36 e0       	ldi	r19, 0x06	; 6
    4c36:	f6 94       	lsr	r15
    4c38:	e7 94       	ror	r14
    4c3a:	d7 94       	ror	r13
    4c3c:	c7 94       	ror	r12
    4c3e:	3a 95       	dec	r19
    4c40:	d1 f7       	brne	.-12     	; 0x4c36 <PWM_Tool+0x140>
    #endif
    Bits = (1 << CS11) | (1 << CS10);   /* prescaler bits for 64:1 */
    4c42:	83 e0       	ldi	r24, 0x03	; 3
    4c44:	97 cf       	rjmp	.-210    	; 0x4b74 <PWM_Tool+0x7e>
  else                        /* high frequency */
  {
    #ifdef PWM_SHOW_DURATION
      Toggle = 1;                       /* prescaler 1 */
    #endif
    Bits = (1 << CS10);                 /* prescaler bits for 1:1 */
    4c46:	81 e0       	ldi	r24, 0x01	; 1
    4c48:	95 cf       	rjmp	.-214    	; 0x4b74 <PWM_Tool+0x7e>

    if (Test == KEY_SHORT)              /* short key press */
    {
      if (Ratio <= 95) Ratio += 5;      /* +5% and limit to 100% */
    }
    else if (Test == KEY_TWICE)         /* two short key presses */
    4c4a:	83 30       	cpi	r24, 0x03	; 3
    4c4c:	21 f0       	breq	.+8      	; 0x4c56 <PWM_Tool+0x160>
      if (Ratio >= 1) Ratio -= 1;       /* -1% and limit to 0% */
    }
    #endif
    else                                /* long key press */
    {
      if (Ratio >= 5) Ratio -= 5;       /* -5% and limit to 0% */
    4c4e:	c5 30       	cpi	r28, 0x05	; 5
    4c50:	50 f2       	brcs	.-108    	; 0x4be6 <PWM_Tool+0xf0>
    4c52:	c5 50       	subi	r28, 0x05	; 5
    4c54:	c8 cf       	rjmp	.-112    	; 0x4be6 <PWM_Tool+0xf0>
    {
      if (Ratio <= 95) Ratio += 5;      /* +5% and limit to 100% */
    }
    else if (Test == KEY_TWICE)         /* two short key presses */
    {
      Test = 0;                         /* end loop */
    4c56:	d0 e0       	ldi	r29, 0x00	; 0
    4c58:	c6 cf       	rjmp	.-116    	; 0x4be6 <PWM_Tool+0xf0>

00004c5a <PulseCheck>:
 *  - 0 for no match
 *  - 1 for match
 */

uint8_t PulseCheck(uint8_t PulseWidth, uint8_t Ref, uint8_t Control)
{
    4c5a:	28 2f       	mov	r18, r24
  uint8_t           Flag;          /* return value */

  /* define tolerance based on value */
  if (Ref > 10)               /* long pulse */
    4c5c:	6b 30       	cpi	r22, 0x0B	; 11
    4c5e:	28 f0       	brcs	.+10     	; 0x4c6a <PulseCheck+0x10>
    Flag = 3;                 /* default: 3 units */

    /* be tolerent with long pulses/pauses */
    if (Control & IR_RELAX_LONG)   /* relax timing */
    {
      Flag = 5;               /* increase to 5 units */
    4c60:	95 e0       	ldi	r25, 0x05	; 5
  if (Ref > 10)               /* long pulse */
  {
    Flag = 3;                 /* default: 3 units */

    /* be tolerent with long pulses/pauses */
    if (Control & IR_RELAX_LONG)   /* relax timing */
    4c62:	41 fd       	sbrc	r20, 1
    4c64:	08 c0       	rjmp	.+16     	; 0x4c76 <PulseCheck+0x1c>
  uint8_t           Flag;          /* return value */

  /* define tolerance based on value */
  if (Ref > 10)               /* long pulse */
  {
    Flag = 3;                 /* default: 3 units */
    4c66:	93 e0       	ldi	r25, 0x03	; 3
    4c68:	06 c0       	rjmp	.+12     	; 0x4c76 <PulseCheck+0x1c>
    Flag = 1;                 /* default: 1 unit */

    /* be tolerent with short pulses/pauses */
    if (Control & IR_RELAX_SHORT)  /* relax timing */
    {
      Flag = 3;               /* increase to 3 units */
    4c6a:	93 e0       	ldi	r25, 0x03	; 3
  else                        /* short pulse */
  {
    Flag = 1;                 /* default: 1 unit */

    /* be tolerent with short pulses/pauses */
    if (Control & IR_RELAX_SHORT)  /* relax timing */
    4c6c:	40 ff       	sbrs	r20, 0
      Flag = 5;               /* increase to 5 units */
    }
  }
  else                        /* short pulse */
  {
    Flag = 1;                 /* default: 1 unit */
    4c6e:	91 e0       	ldi	r25, 0x01	; 1
    4c70:	69 17       	cp	r22, r25
    4c72:	08 f4       	brcc	.+2      	; 0x4c76 <PulseCheck+0x1c>
    4c74:	96 2f       	mov	r25, r22
  }

  /* calculate min and max values */
  Control = Ref;
  Control += Flag;            /* upper limit */
  Ref -= Flag;                /* lower limit */
    4c76:	86 2f       	mov	r24, r22
    4c78:	89 1b       	sub	r24, r25

  Flag = 0;                   /* reset flag */

  /* check if pulse duration is within allowed time window */
  if ((PulseWidth >= Ref) && (PulseWidth <= Control))
    4c7a:	28 17       	cp	r18, r24
    4c7c:	20 f0       	brcs	.+8      	; 0x4c86 <PulseCheck+0x2c>
    Flag = Ref;               /* set to reference value */
  }

  /* calculate min and max values */
  Control = Ref;
  Control += Flag;            /* upper limit */
    4c7e:	96 0f       	add	r25, r22
  Ref -= Flag;                /* lower limit */

  Flag = 0;                   /* reset flag */

  /* check if pulse duration is within allowed time window */
  if ((PulseWidth >= Ref) && (PulseWidth <= Control))
    4c80:	81 e0       	ldi	r24, 0x01	; 1
    4c82:	92 17       	cp	r25, r18
    4c84:	08 f4       	brcc	.+2      	; 0x4c88 <PulseCheck+0x2e>
  /* calculate min and max values */
  Control = Ref;
  Control += Flag;            /* upper limit */
  Ref -= Flag;                /* lower limit */

  Flag = 0;                   /* reset flag */
    4c86:	80 e0       	ldi	r24, 0x00	; 0
  {
    Flag = 1;
  }

  return Flag;
}
    4c88:	08 95       	ret

00004c8a <BiPhase_Demod>:
 *  - 0 for any error
 *  - number of bits
 */

uint8_t BiPhase_Demod(uint8_t *PulseData, uint8_t Pulses, uint8_t Mode, uint8_t tH, uint8_t Control)
{
    4c8a:	b0 e0       	ldi	r27, 0x00	; 0
    4c8c:	a0 e0       	ldi	r26, 0x00	; 0
    4c8e:	eb e4       	ldi	r30, 0x4B	; 75
    4c90:	f6 e2       	ldi	r31, 0x26	; 38
    4c92:	0c 94 6e 2d 	jmp	0x5adc	; 0x5adc <__prologue_saves__+0x4>
    4c96:	6c 01       	movw	r12, r24
    4c98:	e6 2e       	mov	r14, r22
    4c9a:	72 2e       	mov	r7, r18
    4c9c:	60 2e       	mov	r6, r16
   *      pulse - pause -> 0
   *      pause - pulse -> 1
   */

  /* take care about heading pause */
  if (Mode & IR_PRE_PAUSE) PrePulse = 1;
    4c9e:	42 fb       	bst	r20, 2
    4ca0:	00 27       	eor	r16, r16
    4ca2:	00 f9       	bld	r16, 0
    /* check for pulse duration */
    if (PulseCheck(Time, tH, Control))            /* half clock cycle */
    {
      /* do nothing */
    }
    else if (PulseCheck(Time, tH * 2, Control))   /* full clock cycle */
    4ca4:	52 2e       	mov	r5, r18
    4ca6:	55 0c       	add	r5, r5
    4ca8:	81 2c       	mov	r8, r1
    4caa:	d0 e0       	ldi	r29, 0x00	; 0
    4cac:	84 e9       	ldi	r24, 0x94	; 148
    4cae:	a8 2e       	mov	r10, r24
    4cb0:	81 e0       	ldi	r24, 0x01	; 1
    4cb2:	b8 2e       	mov	r11, r24
    4cb4:	c0 e0       	ldi	r28, 0x00	; 0
    4cb6:	ff 24       	eor	r15, r15
    4cb8:	f3 94       	inc	r15
    4cba:	10 e0       	ldi	r17, 0x00	; 0
    {
      Bits++;                      /* got another bit */
      Counter++;                   /* increase counter */
      Data <<= 1;                  /* shift left for new bit */

      if (Mode & IR_THOMAS)        /* Thomas */
    4cbc:	42 70       	andi	r20, 0x02	; 2
    4cbe:	94 2e       	mov	r9, r20
   */

  /* take care about heading pause */
  if (Mode & IR_PRE_PAUSE) PrePulse = 1;

  while (Pulse <= Pulses)     /* process all data items */
    4cc0:	ef 14       	cp	r14, r15
    4cc2:	40 f4       	brcc	.+16     	; 0x4cd4 <BiPhase_Demod+0x4a>
    PulseData++;              /* next one */
    Pulse++;                  /* next one */
  }

  /* shift remaining bits to left end of current byte */
  if (Bits > 0)                 /* some bits left */
    4cc4:	d1 11       	cpse	r29, r1
    4cc6:	60 c0       	rjmp	.+192    	; 0x4d88 <BiPhase_Demod+0xfe>

    *Code = Data;               /* save code byte */
  }

  return Counter;
}
    4cc8:	81 2f       	mov	r24, r17
    4cca:	cd b7       	in	r28, 0x3d	; 61
    4ccc:	de b7       	in	r29, 0x3e	; 62
    4cce:	e0 e1       	ldi	r30, 0x10	; 16
    4cd0:	0c 94 8a 2d 	jmp	0x5b14	; 0x5b14 <__epilogue_restores__+0x4>
  /* take care about heading pause */
  if (Mode & IR_PRE_PAUSE) PrePulse = 1;

  while (Pulse <= Pulses)     /* process all data items */
  {
    Time = *PulseData;        /* get duration */
    4cd4:	f6 01       	movw	r30, r12
    4cd6:	40 80       	ld	r4, Z
    Dir = 0;                  /* reset pulse change direction */
    Width = 1;                /* reset pulse width */

    /* check for pulse duration */
    if (PulseCheck(Time, tH, Control))            /* half clock cycle */
    4cd8:	46 2d       	mov	r20, r6
    4cda:	67 2d       	mov	r22, r7
    4cdc:	84 2d       	mov	r24, r4
    4cde:	0e 94 2d 26 	call	0x4c5a	; 0x4c5a <PulseCheck>
    4ce2:	81 11       	cpse	r24, r1
    4ce4:	1b c0       	rjmp	.+54     	; 0x4d1c <BiPhase_Demod+0x92>
    {
      /* do nothing */
    }
    else if (PulseCheck(Time, tH * 2, Control))   /* full clock cycle */
    4ce6:	46 2d       	mov	r20, r6
    4ce8:	65 2d       	mov	r22, r5
    4cea:	84 2d       	mov	r24, r4
    4cec:	0e 94 2d 26 	call	0x4c5a	; 0x4c5a <PulseCheck>
    4cf0:	88 23       	and	r24, r24
    4cf2:	c1 f0       	breq	.+48     	; 0x4d24 <BiPhase_Demod+0x9a>
    {
      Width++;                /* double pulse */
    4cf4:	82 e0       	ldi	r24, 0x02	; 2
    {
      Counter = 0;            /* signal error */
      break;                  /* exit loop */
    }

    if (Pulse % 2 == 0)       /* pause */
    4cf6:	f0 fc       	sbrc	r15, 0
    4cf8:	17 c0       	rjmp	.+46     	; 0x4d28 <BiPhase_Demod+0x9e>
    {
      if (PrePulse == 2)      /* prior pulse */
    4cfa:	02 30       	cpi	r16, 0x02	; 2
    4cfc:	89 f4       	brne	.+34     	; 0x4d20 <BiPhase_Demod+0x96>
      {
        Dir = 1;              /* H-L change */

        if (Width == 1)       /* second half of clock cycle */
    4cfe:	91 e0       	ldi	r25, 0x01	; 1
    4d00:	81 30       	cpi	r24, 0x01	; 1
    4d02:	09 f4       	brne	.+2      	; 0x4d06 <BiPhase_Demod+0x7c>
    4d04:	90 e0       	ldi	r25, 0x00	; 0
        {
          PrePulse = 0;       /* clock cycle done */
        }
        else                  /* full clock cycle */
        {
          PrePulse = 2;       /* first half of the next clock cycle */
    4d06:	89 2f       	mov	r24, r25

    if (Pulse % 2 == 0)       /* pause */
    {
      if (PrePulse == 2)      /* prior pulse */
      {
        Dir = 1;              /* H-L change */
    4d08:	91 e0       	ldi	r25, 0x01	; 1
    }

    /* process pulse change */
    if (Dir)                  /* got a pulse change */
    {
      Bits++;                      /* got another bit */
    4d0a:	df 5f       	subi	r29, 0xFF	; 255
      Counter++;                   /* increase counter */
    4d0c:	1f 5f       	subi	r17, 0xFF	; 255
      Data <<= 1;                  /* shift left for new bit */
    4d0e:	cc 0f       	add	r28, r28

      if (Mode & IR_THOMAS)        /* Thomas */
    4d10:	99 20       	and	r9, r9
    4d12:	c1 f0       	breq	.+48     	; 0x4d44 <BiPhase_Demod+0xba>
      {
        if (Dir == 1)              /* H-L is 1 */
    4d14:	91 30       	cpi	r25, 0x01	; 1
    4d16:	c1 f4       	brne	.+48     	; 0x4d48 <BiPhase_Demod+0xbe>
      }
      else                         /* IEEE */
      {
        if (Dir == 2)              /* L-H is 1 */
        {
          Data |= 0b00000001;      /* set bit */
    4d18:	c1 60       	ori	r28, 0x01	; 1
    4d1a:	16 c0       	rjmp	.+44     	; 0x4d48 <BiPhase_Demod+0xbe>

  while (Pulse <= Pulses)     /* process all data items */
  {
    Time = *PulseData;        /* get duration */
    Dir = 0;                  /* reset pulse change direction */
    Width = 1;                /* reset pulse width */
    4d1c:	81 e0       	ldi	r24, 0x01	; 1
    4d1e:	eb cf       	rjmp	.-42     	; 0x4cf6 <BiPhase_Demod+0x6c>
          PrePulse = 1;       /* first half of the next clock cycle */
        }
      }
      else                    /* new clock cycle */
      {
        if (Width == 1)       /* first half of clock cycle */
    4d20:	81 30       	cpi	r24, 0x01	; 1
    4d22:	51 f1       	breq	.+84     	; 0x4d78 <BiPhase_Demod+0xee>
    {
      Width++;                /* double pulse */
    }
    else                                          /* wrong duration */
    {
      Counter = 0;            /* signal error */
    4d24:	10 e0       	ldi	r17, 0x00	; 0
    4d26:	ce cf       	rjmp	.-100    	; 0x4cc4 <BiPhase_Demod+0x3a>
        }
      }
    }
    else                      /* pulse */
    {
      if (PrePulse == 1)      /* prior pause */
    4d28:	01 30       	cpi	r16, 0x01	; 1
    4d2a:	21 f4       	brne	.+8      	; 0x4d34 <BiPhase_Demod+0xaa>
      {
        Dir = 2;              /* L-H change */

        if (Width == 1)       /* second half of clock cycle */
    4d2c:	81 30       	cpi	r24, 0x01	; 1
    4d2e:	39 f4       	brne	.+14     	; 0x4d3e <BiPhase_Demod+0xb4>
        {
          PrePulse = 0;       /* clock cycle done */
    4d30:	80 e0       	ldi	r24, 0x00	; 0
    4d32:	06 c0       	rjmp	.+12     	; 0x4d40 <BiPhase_Demod+0xb6>
          PrePulse = 2;       /* first half of the next clock cycle */
        }
      }
      else                    /* new clock cycle */
      {
        if (Width == 1)       /* first half of clock cycle */
    4d34:	81 30       	cpi	r24, 0x01	; 1
    4d36:	b1 f7       	brne	.-20     	; 0x4d24 <BiPhase_Demod+0x9a>
        }
      }
    }

    /* special case: missing pause at end */
    if (Pulse == Pulses)         /* last pause/pulse */
    4d38:	ef 10       	cpse	r14, r15
    4d3a:	1d c0       	rjmp	.+58     	; 0x4d76 <BiPhase_Demod+0xec>
    4d3c:	16 c0       	rjmp	.+44     	; 0x4d6a <BiPhase_Demod+0xe0>
        {
          PrePulse = 0;       /* clock cycle done */
        }
        else                  /* full clock cycle */
        {
          PrePulse = 2;       /* first half of the next clock cycle */
    4d3e:	82 e0       	ldi	r24, 0x02	; 2
    }
    else                      /* pulse */
    {
      if (PrePulse == 1)      /* prior pause */
      {
        Dir = 2;              /* L-H change */
    4d40:	92 e0       	ldi	r25, 0x02	; 2
    4d42:	e3 cf       	rjmp	.-58     	; 0x4d0a <BiPhase_Demod+0x80>
          Data |= 0b00000001;      /* set bit */
        }
      }
      else                         /* IEEE */
      {
        if (Dir == 2)              /* L-H is 1 */
    4d44:	92 30       	cpi	r25, 0x02	; 2
    4d46:	41 f3       	breq	.-48     	; 0x4d18 <BiPhase_Demod+0x8e>
        {
          Data |= 0b00000001;      /* set bit */
        }
      }

      if (Bits == 8)          /* completed byte */
    4d48:	d8 30       	cpi	r29, 0x08	; 8
    4d4a:	59 f4       	brne	.+22     	; 0x4d62 <BiPhase_Demod+0xd8>
      {
        *Code = Data;         /* save code byte */
    4d4c:	f5 01       	movw	r30, r10
    4d4e:	c0 83       	st	Z, r28
        Bytes++;              /* got another byte */
    4d50:	83 94       	inc	r8
        Data = 0;             /* reset code byte */
        Bits = 0;             /* reset bit counter */

        if (Bytes < IR_CODE_BYTES)      /* prevent overflow */
    4d52:	f5 e0       	ldi	r31, 0x05	; 5
    4d54:	f8 15       	cp	r31, r8
    4d56:	18 f0       	brcs	.+6      	; 0x4d5e <BiPhase_Demod+0xd4>
        {
          Code++;             /* next code byte */
    4d58:	9f ef       	ldi	r25, 0xFF	; 255
    4d5a:	a9 1a       	sub	r10, r25
    4d5c:	b9 0a       	sbc	r11, r25
      if (Bits == 8)          /* completed byte */
      {
        *Code = Data;         /* save code byte */
        Bytes++;              /* got another byte */
        Data = 0;             /* reset code byte */
        Bits = 0;             /* reset bit counter */
    4d5e:	d0 e0       	ldi	r29, 0x00	; 0

      if (Bits == 8)          /* completed byte */
      {
        *Code = Data;         /* save code byte */
        Bytes++;              /* got another byte */
        Data = 0;             /* reset code byte */
    4d60:	c0 e0       	ldi	r28, 0x00	; 0
        }
      }
    }

    /* special case: missing pause at end */
    if (Pulse == Pulses)         /* last pause/pulse */
    4d62:	ef 10       	cpse	r14, r15
    4d64:	09 c0       	rjmp	.+18     	; 0x4d78 <BiPhase_Demod+0xee>
    {
      /* only for pulse */
      if (PrePulse == 2)         /* first half of cycle */
    4d66:	82 30       	cpi	r24, 0x02	; 2
    4d68:	39 f4       	brne	.+14     	; 0x4d78 <BiPhase_Demod+0xee>
      {
        /* assume that pause follows and simulate it */
        *PulseData = tH;         /* half cycle */
    4d6a:	f6 01       	movw	r30, r12
    4d6c:	70 82       	st	Z, r7
        PulseData--;             /* stay here */
    4d6e:	f1 e0       	ldi	r31, 0x01	; 1
    4d70:	cf 1a       	sub	r12, r31
    4d72:	d1 08       	sbc	r13, r1
        Pulses++;                /* add trailing pause */
    4d74:	e3 94       	inc	r14
    4d76:	82 e0       	ldi	r24, 0x02	; 2
      }
    }

    PulseData++;              /* next one */
    4d78:	9f ef       	ldi	r25, 0xFF	; 255
    4d7a:	c9 1a       	sub	r12, r25
    4d7c:	d9 0a       	sbc	r13, r25
    Pulse++;                  /* next one */
    4d7e:	f3 94       	inc	r15
    4d80:	08 2f       	mov	r16, r24
    4d82:	9e cf       	rjmp	.-196    	; 0x4cc0 <BiPhase_Demod+0x36>
  /* shift remaining bits to left end of current byte */
  if (Bits > 0)                 /* some bits left */
  {
    while (Bits < 8)
    {
      Data <<= 1;               /* shift left */
    4d84:	cc 0f       	add	r28, r28
      Bits++;                   /* next bit */
    4d86:	df 5f       	subi	r29, 0xFF	; 255
  }

  /* shift remaining bits to left end of current byte */
  if (Bits > 0)                 /* some bits left */
  {
    while (Bits < 8)
    4d88:	d8 30       	cpi	r29, 0x08	; 8
    4d8a:	e0 f3       	brcs	.-8      	; 0x4d84 <BiPhase_Demod+0xfa>
    {
      Data <<= 1;               /* shift left */
      Bits++;                   /* next bit */
    }

    *Code = Data;               /* save code byte */
    4d8c:	f5 01       	movw	r30, r10
    4d8e:	c0 83       	st	Z, r28
  }

  return Counter;
    4d90:	9b cf       	rjmp	.-202    	; 0x4cc8 <BiPhase_Demod+0x3e>

00004d92 <PxM_Demod>:
 *  - 0 for any error
 *  - number of bits
 */

uint8_t PxM_Demod(uint8_t *PulseData, uint8_t Pulses, uint8_t tS, uint8_t t0, uint8_t t1, uint8_t Control)
{
    4d92:	b0 e0       	ldi	r27, 0x00	; 0
    4d94:	a0 e0       	ldi	r26, 0x00	; 0
    4d96:	ef ec       	ldi	r30, 0xCF	; 207
    4d98:	f6 e2       	ldi	r31, 0x26	; 38
    4d9a:	0c 94 6f 2d 	jmp	0x5ade	; 0x5ade <__prologue_saves__+0x6>
    4d9e:	76 2e       	mov	r7, r22
    4da0:	64 2e       	mov	r6, r20
    4da2:	52 2e       	mov	r5, r18
    4da4:	5c 01       	movw	r10, r24
  uint8_t           Pulse = 1;     /* pulse counter */
  uint8_t           Time;          /* pulse duration (in 50Ás) */
  uint8_t           Data = 0;      /* code byte */
  uint8_t           *Code;         /* pointer to code data */
  uint8_t           Bits = 0;      /* counter for bits */
  uint8_t           Bytes = 0;     /* counter for bytes */
    4da6:	91 2c       	mov	r9, r1
  uint8_t           Counter = 0;   /* return value: number of bits */
  uint8_t           Pulse = 1;     /* pulse counter */
  uint8_t           Time;          /* pulse duration (in 50Ás) */
  uint8_t           Data = 0;      /* code byte */
  uint8_t           *Code;         /* pointer to code data */
  uint8_t           Bits = 0;      /* counter for bits */
    4da8:	d0 e0       	ldi	r29, 0x00	; 0
  uint8_t           Bytes = 0;     /* counter for bytes */

  Code = &IR_Code[0];              /* set start address */
    4daa:	84 e9       	ldi	r24, 0x94	; 148
    4dac:	c8 2e       	mov	r12, r24
    4dae:	81 e0       	ldi	r24, 0x01	; 1
    4db0:	d8 2e       	mov	r13, r24
uint8_t PxM_Demod(uint8_t *PulseData, uint8_t Pulses, uint8_t tS, uint8_t t0, uint8_t t1, uint8_t Control)
{
  uint8_t           Counter = 0;   /* return value: number of bits */
  uint8_t           Pulse = 1;     /* pulse counter */
  uint8_t           Time;          /* pulse duration (in 50Ás) */
  uint8_t           Data = 0;      /* code byte */
    4db2:	c0 e0       	ldi	r28, 0x00	; 0
 */

uint8_t PxM_Demod(uint8_t *PulseData, uint8_t Pulses, uint8_t tS, uint8_t t0, uint8_t t1, uint8_t Control)
{
  uint8_t           Counter = 0;   /* return value: number of bits */
  uint8_t           Pulse = 1;     /* pulse counter */
    4db4:	11 e0       	ldi	r17, 0x01	; 1
 *  - number of bits
 */

uint8_t PxM_Demod(uint8_t *PulseData, uint8_t Pulses, uint8_t tS, uint8_t t0, uint8_t t1, uint8_t Control)
{
  uint8_t           Counter = 0;   /* return value: number of bits */
    4db6:	f1 2c       	mov	r15, r1
   *  - last item is pulse (stop bit)
   *    required to indicate end of pause of last data bit
   *  - odd number of data items
   */

  while (Pulse <= Pulses)     /* process all data items */
    4db8:	71 16       	cp	r7, r17
    4dba:	10 f4       	brcc	.+4      	; 0x4dc0 <PxM_Demod+0x2e>
    4dbc:	8f 2d       	mov	r24, r15
    4dbe:	2d c0       	rjmp	.+90     	; 0x4e1a <PxM_Demod+0x88>
  {
    Time = *PulseData;        /* get duration */
    4dc0:	f5 01       	movw	r30, r10
    4dc2:	81 90       	ld	r8, Z+
    4dc4:	5f 01       	movw	r10, r30

    if (Pulse % 2 == 0)       /* pulse/pause with variable time */
    4dc6:	10 fd       	sbrc	r17, 0
    4dc8:	21 c0       	rjmp	.+66     	; 0x4e0c <PxM_Demod+0x7a>
    {
      Bits++;                           /* got another bit */
    4dca:	df 5f       	subi	r29, 0xFF	; 255
      Counter++;                        /* increase counter for total bits */
    4dcc:	f3 94       	inc	r15
      Data <<= 1;                       /* shift left for new bit */
    4dce:	cc 0f       	add	r28, r28

      if (PulseCheck(Time, t0, Control))          /* 0 */
    4dd0:	4e 2d       	mov	r20, r14
    4dd2:	65 2d       	mov	r22, r5
    4dd4:	88 2d       	mov	r24, r8
    4dd6:	0e 94 2d 26 	call	0x4c5a	; 0x4c5a <PulseCheck>
    4dda:	81 11       	cpse	r24, r1
    4ddc:	08 c0       	rjmp	.+16     	; 0x4dee <PxM_Demod+0x5c>
      {
        /* set 0 ;) */
      }
      else if (PulseCheck(Time, t1, Control))     /* 1 */
    4dde:	4e 2d       	mov	r20, r14
    4de0:	60 2f       	mov	r22, r16
    4de2:	88 2d       	mov	r24, r8
    4de4:	0e 94 2d 26 	call	0x4c5a	; 0x4c5a <PulseCheck>
    4de8:	88 23       	and	r24, r24
    4dea:	b9 f0       	breq	.+46     	; 0x4e1a <PxM_Demod+0x88>
      {
        Data |= 0b00000001;             /* set bit */
    4dec:	c1 60       	ori	r28, 0x01	; 1
      {
        Counter = 0;                    /* signal error */
        break;                          /* exit loop */
      }

      if (Bits == 8)          /* completed byte */
    4dee:	d8 30       	cpi	r29, 0x08	; 8
    4df0:	59 f4       	brne	.+22     	; 0x4e08 <PxM_Demod+0x76>
      {
        *Code = Data;         /* save code byte */
    4df2:	f6 01       	movw	r30, r12
    4df4:	c0 83       	st	Z, r28
        Bytes++;              /* got another byte */
    4df6:	93 94       	inc	r9
        Data = 0;             /* reset code byte */
        Bits = 0;             /* reset bit counter */

        if (Bytes < IR_CODE_BYTES)      /* prevent overflow */
    4df8:	f5 e0       	ldi	r31, 0x05	; 5
    4dfa:	f9 15       	cp	r31, r9
    4dfc:	18 f0       	brcs	.+6      	; 0x4e04 <PxM_Demod+0x72>
        {
          Code++;             /* next code byte */
    4dfe:	8f ef       	ldi	r24, 0xFF	; 255
    4e00:	c8 1a       	sub	r12, r24
    4e02:	d8 0a       	sbc	r13, r24
      if (Bits == 8)          /* completed byte */
      {
        *Code = Data;         /* save code byte */
        Bytes++;              /* got another byte */
        Data = 0;             /* reset code byte */
        Bits = 0;             /* reset bit counter */
    4e04:	d0 e0       	ldi	r29, 0x00	; 0

      if (Bits == 8)          /* completed byte */
      {
        *Code = Data;         /* save code byte */
        Bytes++;              /* got another byte */
        Data = 0;             /* reset code byte */
    4e06:	c0 e0       	ldi	r28, 0x00	; 0
        break;                     /* exit loop */
      }
    }

    PulseData++;              /* next one */
    Pulse++;                  /* next one */
    4e08:	1f 5f       	subi	r17, 0xFF	; 255
    4e0a:	d6 cf       	rjmp	.-84     	; 0x4db8 <PxM_Demod+0x26>
        }
      }
    }
    else                      /* pulse/pause with fixed time */
    {
      if (! PulseCheck(Time, tS, Control))   /* time doesn't match */
    4e0c:	4e 2d       	mov	r20, r14
    4e0e:	66 2d       	mov	r22, r6
    4e10:	88 2d       	mov	r24, r8
    4e12:	0e 94 2d 26 	call	0x4c5a	; 0x4c5a <PulseCheck>
    4e16:	81 11       	cpse	r24, r1
    4e18:	f7 cf       	rjmp	.-18     	; 0x4e08 <PxM_Demod+0x76>
  }
  #endif


  /* shift remaining bits to left end of current byte */
  if (Bits > 0)                 /* some bits left */
    4e1a:	d1 11       	cpse	r29, r1
    4e1c:	07 c0       	rjmp	.+14     	; 0x4e2c <PxM_Demod+0x9a>

    *Code = Data;               /* save code byte */
  }

  return Counter;
}
    4e1e:	cd b7       	in	r28, 0x3d	; 61
    4e20:	de b7       	in	r29, 0x3e	; 62
    4e22:	ef e0       	ldi	r30, 0x0F	; 15
    4e24:	0c 94 8b 2d 	jmp	0x5b16	; 0x5b16 <__epilogue_restores__+0x6>
  /* shift remaining bits to left end of current byte */
  if (Bits > 0)                 /* some bits left */
  {
    while (Bits < 8)
    {
      Data <<= 1;               /* shift left */
    4e28:	cc 0f       	add	r28, r28
      Bits++;                   /* next bit */
    4e2a:	df 5f       	subi	r29, 0xFF	; 255


  /* shift remaining bits to left end of current byte */
  if (Bits > 0)                 /* some bits left */
  {
    while (Bits < 8)
    4e2c:	d8 30       	cpi	r29, 0x08	; 8
    4e2e:	e0 f3       	brcs	.-8      	; 0x4e28 <PxM_Demod+0x96>
    {
      Data <<= 1;               /* shift left */
      Bits++;                   /* next bit */
    }

    *Code = Data;               /* save code byte */
    4e30:	f6 01       	movw	r30, r12
    4e32:	c0 83       	st	Z, r28
  }

  return Counter;
    4e34:	f4 cf       	rjmp	.-24     	; 0x4e1e <PxM_Demod+0x8c>

00004e36 <SpecialBiPhasePulse>:
 *  returns:
 *  - number of special pulses
 */

uint8_t SpecialBiPhasePulse(uint8_t *PulseData, uint8_t Pulses, uint8_t Offset, uint8_t Normal, uint8_t Special)
{
    4e36:	b0 e0       	ldi	r27, 0x00	; 0
    4e38:	a0 e0       	ldi	r26, 0x00	; 0
    4e3a:	e1 e2       	ldi	r30, 0x21	; 33
    4e3c:	f7 e2       	ldi	r31, 0x27	; 39
    4e3e:	0c 94 72 2d 	jmp	0x5ae4	; 0x5ae4 <__prologue_saves__+0xc>
    4e42:	7c 01       	movw	r14, r24
    4e44:	d6 2e       	mov	r13, r22
    4e46:	b4 2e       	mov	r11, r20
    4e48:	12 2f       	mov	r17, r18
    4e4a:	a0 2e       	mov	r10, r16
  uint8_t           Mixed;         /* duration of mixed pulse */
  uint8_t           Time;          /* pulse duration (in 50Ás) */
  uint8_t           Cycles = 0;    /* half cycles */
  uint8_t           n = 0;         /* counter */

  Mixed = Normal + Special;        /* mixed pulse */
    4e4c:	82 2e       	mov	r8, r18
    4e4e:	80 0e       	add	r8, r16
        Counter++;                      /* increase counter */

      }
      else if (PulseCheck(Time, Mixed, IR_STD_TOLER))  /* mixed pulse */
      {
        *PulseData = 2 * Normal;        /* adjust to normal double pulse */
    4e50:	92 2e       	mov	r9, r18
    4e52:	99 0c       	add	r9, r9
{
  uint8_t           Counter = 0;   /* return value: number of pulses */
  uint8_t           Mixed;         /* duration of mixed pulse */
  uint8_t           Time;          /* pulse duration (in 50Ás) */
  uint8_t           Cycles = 0;    /* half cycles */
  uint8_t           n = 0;         /* counter */
    4e54:	00 e0       	ldi	r16, 0x00	; 0
uint8_t SpecialBiPhasePulse(uint8_t *PulseData, uint8_t Pulses, uint8_t Offset, uint8_t Normal, uint8_t Special)
{
  uint8_t           Counter = 0;   /* return value: number of pulses */
  uint8_t           Mixed;         /* duration of mixed pulse */
  uint8_t           Time;          /* pulse duration (in 50Ás) */
  uint8_t           Cycles = 0;    /* half cycles */
    4e56:	c0 e0       	ldi	r28, 0x00	; 0
 *  - number of special pulses
 */

uint8_t SpecialBiPhasePulse(uint8_t *PulseData, uint8_t Pulses, uint8_t Offset, uint8_t Normal, uint8_t Special)
{
  uint8_t           Counter = 0;   /* return value: number of pulses */
    4e58:	d0 e0       	ldi	r29, 0x00	; 0
  uint8_t           Cycles = 0;    /* half cycles */
  uint8_t           n = 0;         /* counter */

  Mixed = Normal + Special;        /* mixed pulse */

  while (Pulses > 0)
    4e5a:	d1 10       	cpse	r13, r1
    4e5c:	06 c0       	rjmp	.+12     	; 0x4e6a <SpecialBiPhasePulse+0x34>
    Pulses--;                 /* next pulse */
    PulseData++;
  }

  return(Counter);
}
    4e5e:	8d 2f       	mov	r24, r29
    4e60:	cd b7       	in	r28, 0x3d	; 61
    4e62:	de b7       	in	r29, 0x3e	; 62
    4e64:	ec e0       	ldi	r30, 0x0C	; 12
    4e66:	0c 94 8e 2d 	jmp	0x5b1c	; 0x5b1c <__epilogue_restores__+0xc>

  Mixed = Normal + Special;        /* mixed pulse */

  while (Pulses > 0)
  {
    Time = *PulseData;        /* get duration */
    4e6a:	f7 01       	movw	r30, r14
    4e6c:	c0 80       	ld	r12, Z

    if (Cycles <= Offset)     /* offset not reached yet */
    4e6e:	bc 16       	cp	r11, r28
    4e70:	50 f0       	brcs	.+20     	; 0x4e86 <SpecialBiPhasePulse+0x50>
    {
      if (PulseCheck(Time, Normal, IR_STD_TOLER))      /* normal pulse */
    4e72:	40 e0       	ldi	r20, 0x00	; 0
    4e74:	61 2f       	mov	r22, r17
    4e76:	8c 2d       	mov	r24, r12
    4e78:	0e 94 2d 26 	call	0x4c5a	; 0x4c5a <PulseCheck>
    4e7c:	88 23       	and	r24, r24
    4e7e:	a9 f0       	breq	.+42     	; 0x4eaa <SpecialBiPhasePulse+0x74>
      {
        Cycles++;
    4e80:	cf 5f       	subi	r28, 0xFF	; 255
      {
        Cycles += 2;
      }
    }

    if (Cycles > Offset)      /* reached offset */
    4e82:	bc 16       	cp	r11, r28
    4e84:	68 f4       	brcc	.+26     	; 0x4ea0 <SpecialBiPhasePulse+0x6a>
    {
      if (PulseCheck(Time, Special, IR_STD_TOLER))     /* special pulse */
    4e86:	40 e0       	ldi	r20, 0x00	; 0
    4e88:	6a 2d       	mov	r22, r10
    4e8a:	8c 2d       	mov	r24, r12
    4e8c:	0e 94 2d 26 	call	0x4c5a	; 0x4c5a <PulseCheck>
    4e90:	88 23       	and	r24, r24
    4e92:	69 f0       	breq	.+26     	; 0x4eae <SpecialBiPhasePulse+0x78>
      {
        *PulseData = Normal;            /* adjust to normal */
    4e94:	f7 01       	movw	r30, r14
    4e96:	10 83       	st	Z, r17

      }
      else if (PulseCheck(Time, Mixed, IR_STD_TOLER))  /* mixed pulse */
      {
        *PulseData = 2 * Normal;        /* adjust to normal double pulse */
        Counter++;                      /* increase counter */
    4e98:	df 5f       	subi	r29, 0xFF	; 255
      }

      n++;                         /* increase counter */
      if (n == 2) break;           /* exit loop for pulse pair */
    4e9a:	01 30       	cpi	r16, 0x01	; 1
    4e9c:	01 f3       	breq	.-64     	; 0x4e5e <SpecialBiPhasePulse+0x28>
    4e9e:	01 e0       	ldi	r16, 0x01	; 1
    }

    Pulses--;                 /* next pulse */
    4ea0:	da 94       	dec	r13
    PulseData++;
    4ea2:	ff ef       	ldi	r31, 0xFF	; 255
    4ea4:	ef 1a       	sub	r14, r31
    4ea6:	ff 0a       	sbc	r15, r31
    4ea8:	d8 cf       	rjmp	.-80     	; 0x4e5a <SpecialBiPhasePulse+0x24>
      {
        Cycles++;
      }
      else                              /* double or mixed pulse */
      {
        Cycles += 2;
    4eaa:	ce 5f       	subi	r28, 0xFE	; 254
    4eac:	ea cf       	rjmp	.-44     	; 0x4e82 <SpecialBiPhasePulse+0x4c>
      {
        *PulseData = Normal;            /* adjust to normal */
        Counter++;                      /* increase counter */

      }
      else if (PulseCheck(Time, Mixed, IR_STD_TOLER))  /* mixed pulse */
    4eae:	40 e0       	ldi	r20, 0x00	; 0
    4eb0:	68 2d       	mov	r22, r8
    4eb2:	8c 2d       	mov	r24, r12
    4eb4:	0e 94 2d 26 	call	0x4c5a	; 0x4c5a <PulseCheck>
    4eb8:	88 23       	and	r24, r24
    4eba:	79 f3       	breq	.-34     	; 0x4e9a <SpecialBiPhasePulse+0x64>
      {
        *PulseData = 2 * Normal;        /* adjust to normal double pulse */
    4ebc:	f7 01       	movw	r30, r14
    4ebe:	90 82       	st	Z, r9
    4ec0:	eb cf       	rjmp	.-42     	; 0x4e98 <SpecialBiPhasePulse+0x62>

00004ec2 <GetBits>:
   *  MSB: bit #7 of IR_Code goes to bit #7 of Data
   *       bit #0 of IR_Code goes to bit #0 of Data
   */

  /* determine start position in IR_Code */
  StartBit--;                      /* align */
    4ec2:	81 50       	subi	r24, 0x01	; 1
  Temp = StartBit / 8;             /* start byte (0-) */
    4ec4:	e8 2f       	mov	r30, r24
    4ec6:	e6 95       	lsr	r30
    4ec8:	e6 95       	lsr	r30
    4eca:	e6 95       	lsr	r30
  Counter = StartBit % 8;          /* start bit in byte (0-) */
    4ecc:	87 70       	andi	r24, 0x07	; 7
  Code = &IR_Code[Temp];           /* get start address */
    4ece:	f0 e0       	ldi	r31, 0x00	; 0
    4ed0:	ec 56       	subi	r30, 0x6C	; 108
    4ed2:	fe 4f       	sbci	r31, 0xFE	; 254
  Temp = *Code;                    /* copy code byte */
    4ed4:	90 81       	ld	r25, Z

  /* shift start bit to bit #7 */
  n = Counter;                /* number of positions to shift */
    4ed6:	28 2f       	mov	r18, r24
  while (n > 0)
    4ed8:	21 11       	cpse	r18, r1
    4eda:	0b c0       	rjmp	.+22     	; 0x4ef2 <GetBits+0x30>
    Temp <<= 1;               /* shift left */
    n--;                      /* next bit */
  }

  /* get bits */
  Counter = 8 - Counter;      /* remaining bits in first byte */
    4edc:	38 e0       	ldi	r19, 0x08	; 8
    4ede:	38 1b       	sub	r19, r24
 *  - code byte
 */

uint8_t GetBits(uint8_t StartBit, uint8_t Bits, uint8_t Mode)
{
  uint8_t           Data = 0;      /* return value */
    4ee0:	80 e0       	ldi	r24, 0x00	; 0
    n--;                      /* next bit */
  }

  /* get bits */
  Counter = 8 - Counter;      /* remaining bits in first byte */
  n = 1;
    4ee2:	21 e0       	ldi	r18, 0x01	; 1
  while (n <= Bits)
    4ee4:	62 17       	cp	r22, r18
    4ee6:	40 f4       	brcc	.+16     	; 0x4ef8 <GetBits+0x36>

    n++;                      /* next bit */
  }

  /* post processing */
  if (Mode == IR_LSB)         /* LSB mode */
    4ee8:	41 30       	cpi	r20, 0x01	; 1
    4eea:	b9 f4       	brne	.+46     	; 0x4f1a <GetBits+0x58>
    4eec:	98 2f       	mov	r25, r24
  {
    /* reverse bit sequence */
    Temp = Data;                   /* Temp becomes source */
    Data = 0;                      /* Data becomes destination */
    4eee:	80 e0       	ldi	r24, 0x00	; 0
    4ef0:	12 c0       	rjmp	.+36     	; 0x4f16 <GetBits+0x54>

  /* shift start bit to bit #7 */
  n = Counter;                /* number of positions to shift */
  while (n > 0)
  {
    Temp <<= 1;               /* shift left */
    4ef2:	99 0f       	add	r25, r25
    n--;                      /* next bit */
    4ef4:	21 50       	subi	r18, 0x01	; 1
    4ef6:	f0 cf       	rjmp	.-32     	; 0x4ed8 <GetBits+0x16>
  /* get bits */
  Counter = 8 - Counter;      /* remaining bits in first byte */
  n = 1;
  while (n <= Bits)
  {
    Data <<= 1;               /* shift destination left */
    4ef8:	88 0f       	add	r24, r24

    if (Temp & 0b10000000)    /* bit set */
    4efa:	97 fd       	sbrc	r25, 7
    {
      Data |= 0b00000001;     /* set bit */
    4efc:	81 60       	ori	r24, 0x01	; 1
    }

    Temp <<= 1;               /* shift source left */
    4efe:	99 0f       	add	r25, r25

    if (n == Counter)         /* byte overflow */
    4f00:	23 13       	cpse	r18, r19
    4f02:	02 c0       	rjmp	.+4      	; 0x4f08 <GetBits+0x46>
    {
      Code++;                 /* next byte */
      Temp = *Code;           /* copy code byte */
    4f04:	91 81       	ldd	r25, Z+1	; 0x01

    Temp <<= 1;               /* shift source left */

    if (n == Counter)         /* byte overflow */
    {
      Code++;                 /* next byte */
    4f06:	31 96       	adiw	r30, 0x01	; 1
      Temp = *Code;           /* copy code byte */
    }

    n++;                      /* next bit */
    4f08:	2f 5f       	subi	r18, 0xFF	; 255
    4f0a:	ec cf       	rjmp	.-40     	; 0x4ee4 <GetBits+0x22>
    Data = 0;                      /* Data becomes destination */
    n = Bits;                      /* number of bits to process */

    while (n > 0)
    {
      Data <<= 1;                  /* shift destination left */
    4f0c:	88 0f       	add	r24, r24

      if (Temp & 0b00000001)       /* if bit in source is set */
    4f0e:	90 fd       	sbrc	r25, 0
      {
        Data |= 0b00000001;        /* set it in destination too */
    4f10:	81 60       	ori	r24, 0x01	; 1
      }

      Temp >>= 1;                  /* shift source right */
    4f12:	96 95       	lsr	r25
      n--;                         /* next bit */
    4f14:	61 50       	subi	r22, 0x01	; 1
    /* reverse bit sequence */
    Temp = Data;                   /* Temp becomes source */
    Data = 0;                      /* Data becomes destination */
    n = Bits;                      /* number of bits to process */

    while (n > 0)
    4f16:	61 11       	cpse	r22, r1
    4f18:	f9 cf       	rjmp	.-14     	; 0x4f0c <GetBits+0x4a>
      n--;                         /* next bit */
    }
  } 

  return Data;
}
    4f1a:	08 95       	ret

00004f1c <IR_Decode>:
 *  - pointer to array of pulse/pause duration data
 *  - number of pulses/pauses
 */

void IR_Decode(uint8_t *PulseData, uint8_t Pulses)
{
    4f1c:	b0 e0       	ldi	r27, 0x00	; 0
    4f1e:	a0 e0       	ldi	r26, 0x00	; 0
    4f20:	e4 e9       	ldi	r30, 0x94	; 148
    4f22:	f7 e2       	ldi	r31, 0x27	; 39
    4f24:	0c 94 72 2d 	jmp	0x5ae4	; 0x5ae4 <__prologue_saves__+0xc>
  #define PROTO_DETECTED      1    /* protocol detected */
  #define PACKET_OK           2    /* valid packet */
  #define PACKET_DISPLAY      3    /* valid packet & display standard values */
  #define PACKET_MULTI        4    /* multi packet (more to follow) */

  if (Pulses < 2) return;     /* not enough pulses */
    4f28:	62 30       	cpi	r22, 0x02	; 2
    4f2a:	08 f4       	brcc	.+2      	; 0x4f2e <IR_Decode+0x12>
    4f2c:	7c c1       	rjmp	.+760    	; 0x5226 <IR_Decode+0x30a>
    4f2e:	16 2f       	mov	r17, r22
    4f30:	5c 01       	movw	r10, r24
   *  number of pulses/pauses and other features
   */

  /* get first pulse-pause pair */
  Pulse = PulseData;          /* first pulse */
  Time1 = *Pulse;             /* duration of first pulse */
    4f32:	fc 01       	movw	r30, r24
    4f34:	d0 81       	ld	r29, Z
  Pulse++;                    /* first pause */
  Time2 = *Pulse;             /* duration of first pause */
    4f36:	c1 81       	ldd	r28, Z+1	; 0x01
  Pulse++;                    /* second pulse (skip start pair) */
    4f38:	6c 01       	movw	r12, r24
    4f3a:	f2 e0       	ldi	r31, 0x02	; 2
    4f3c:	cf 0e       	add	r12, r31
    4f3e:	d1 1c       	adc	r13, r1
  PulsesLeft = Pulses - 2;    /* start pair done */
    4f40:	9e ef       	ldi	r25, 0xFE	; 254
    4f42:	f9 2e       	mov	r15, r25
    4f44:	f6 0e       	add	r15, r22
   *    <start><stop>
   *  - repeat delay is 108ms (start to start) or 23.6ms (end to start)
   *  - carrier 38kHz (455kHz/12), duty cycle 1/3
   */

  if (PulseCheck(Time1, 179, IR_RELAX_LONG))      /* pulse 9ms */
    4f46:	42 e0       	ldi	r20, 0x02	; 2
    4f48:	63 eb       	ldi	r22, 0xB3	; 179
    4f4a:	8d 2f       	mov	r24, r29
    4f4c:	0e 94 2d 26 	call	0x4c5a	; 0x4c5a <PulseCheck>
    4f50:	88 23       	and	r24, r24
    4f52:	09 f4       	brne	.+2      	; 0x4f56 <IR_Decode+0x3a>
    4f54:	4e c0       	rjmp	.+156    	; 0x4ff2 <IR_Decode+0xd6>
  {
    if (PulseCheck(Time2, 89, IR_RELAX_LONG))     /* pause 4.5ms */
    4f56:	42 e0       	ldi	r20, 0x02	; 2
    4f58:	69 e5       	ldi	r22, 0x59	; 89
    4f5a:	8c 2f       	mov	r24, r28
    4f5c:	0e 94 2d 26 	call	0x4c5a	; 0x4c5a <PulseCheck>
    4f60:	88 23       	and	r24, r24
    4f62:	71 f1       	breq	.+92     	; 0x4fc0 <IR_Decode+0xa4>
    {
      /* try to demodulate NEC */
      Bits = PxM_Demod(Pulse, PulsesLeft, 11, 11, 33, IR_STD_TOLER);
    4f64:	e1 2c       	mov	r14, r1
    4f66:	01 e2       	ldi	r16, 0x21	; 33
    4f68:	2b e0       	ldi	r18, 0x0B	; 11
    4f6a:	4b e0       	ldi	r20, 0x0B	; 11
    4f6c:	6f 2d       	mov	r22, r15
    4f6e:	c6 01       	movw	r24, r12
    4f70:	0e 94 c9 26 	call	0x4d92	; 0x4d92 <PxM_Demod>

      if (Bits == 32)              /* we expect 32 bits for NEC */
    4f74:	80 32       	cpi	r24, 0x20	; 32
    4f76:	e9 f5       	brne	.+122    	; 0x4ff2 <IR_Decode+0xd6>
      {
        Display_NL_EEString_Space(IR_NEC_str);    /* display protocol */
    4f78:	85 e2       	ldi	r24, 0x25	; 37
    4f7a:	91 e0       	ldi	r25, 0x01	; 1
    4f7c:	0e 94 43 11 	call	0x2286	; 0x2286 <Display_NL_EEString_Space>

        Address = GetBits(1, 8, IR_LSB);     /* get address */
    4f80:	41 e0       	ldi	r20, 0x01	; 1
    4f82:	68 e0       	ldi	r22, 0x08	; 8
    4f84:	81 e0       	ldi	r24, 0x01	; 1
    4f86:	0e 94 61 27 	call	0x4ec2	; 0x4ec2 <GetBits>
    4f8a:	98 2e       	mov	r9, r24
        Extras = GetBits(9, 8, IR_LSB);      /* get inverted address */
    4f8c:	41 e0       	ldi	r20, 0x01	; 1
    4f8e:	68 e0       	ldi	r22, 0x08	; 8
    4f90:	89 e0       	ldi	r24, 0x09	; 9
    4f92:	0e 94 61 27 	call	0x4ec2	; 0x4ec2 <GetBits>
    4f96:	c8 2f       	mov	r28, r24
        Command = GetBits(17, 8, IR_LSB);    /* get command */
    4f98:	41 e0       	ldi	r20, 0x01	; 1
    4f9a:	68 e0       	ldi	r22, 0x08	; 8
    4f9c:	81 e1       	ldi	r24, 0x11	; 17
    4f9e:	0e 94 61 27 	call	0x4ec2	; 0x4ec2 <GetBits>
    4fa2:	88 2e       	mov	r8, r24

        /* determine protocol version */
        Temp = ~Extras;                 /* invert */
    4fa4:	8c 2f       	mov	r24, r28
    4fa6:	80 95       	com	r24
        if (Address != Temp)            /* address is not inverted */
    4fa8:	98 16       	cp	r9, r24
    4faa:	19 f0       	breq	.+6      	; 0x4fb2 <IR_Decode+0x96>
        {
          /* extended format with 16 bit address */
          Display_HexByte(Extras);      /* display high address */
    4fac:	8c 2f       	mov	r24, r28
    4fae:	0e 94 68 11 	call	0x22d0	; 0x22d0 <Display_HexByte>
    Display_Char('?');             /* display: ? */
  }

  if (Flag == PACKET_DISPLAY)      /* known protocol & standard output */
  {
    Display_HexByte(Address);      /* display address */
    4fb2:	89 2d       	mov	r24, r9
    4fb4:	0e 94 68 11 	call	0x22d0	; 0x22d0 <Display_HexByte>
    Display_Colon();               /* display: : */
    4fb8:	0e 94 2f 11 	call	0x225e	; 0x225e <Display_Colon>
    Display_HexByte(Command);      /* display command */
    4fbc:	88 2d       	mov	r24, r8
    4fbe:	02 c1       	rjmp	.+516    	; 0x51c4 <IR_Decode+0x2a8>
        Flag = PACKET_DISPLAY;          /* packet ok & default output */
        goto result;                    /* skip other checks */
      }
      #endif
    }
    else if (PulseCheck(Time2, 45, IR_STD_TOLER))      /* pause 2.25ms */
    4fc0:	40 e0       	ldi	r20, 0x00	; 0
    4fc2:	6d e2       	ldi	r22, 0x2D	; 45
    4fc4:	8c 2f       	mov	r24, r28
    4fc6:	0e 94 2d 26 	call	0x4c5a	; 0x4c5a <PulseCheck>
    4fca:	88 23       	and	r24, r24
    4fcc:	91 f0       	breq	.+36     	; 0x4ff2 <IR_Decode+0xd6>
    {
      /* check for NEC repeat sequence */
      if (Pulses == 3)                       /* just 3 pulses */
    4fce:	13 30       	cpi	r17, 0x03	; 3
    4fd0:	81 f4       	brne	.+32     	; 0x4ff2 <IR_Decode+0xd6>
      {
        if (PulseCheck(*Pulse, 11, IR_STD_TOLER))      /* pulse 560Ás */
    4fd2:	40 e0       	ldi	r20, 0x00	; 0
    4fd4:	6b e0       	ldi	r22, 0x0B	; 11
    4fd6:	f5 01       	movw	r30, r10
    4fd8:	82 81       	ldd	r24, Z+2	; 0x02
    4fda:	0e 94 2d 26 	call	0x4c5a	; 0x4c5a <PulseCheck>
    4fde:	88 23       	and	r24, r24
    4fe0:	41 f0       	breq	.+16     	; 0x4ff2 <IR_Decode+0xd6>
        {
          Display_NL_EEString_Space(IR_NEC_str);       /* display protocol */
    4fe2:	85 e2       	ldi	r24, 0x25	; 37
    4fe4:	91 e0       	ldi	r25, 0x01	; 1
    4fe6:	0e 94 43 11 	call	0x2286	; 0x2286 <Display_NL_EEString_Space>
          Display_Char('R');                 /* display: R (for repeat) */
    4fea:	82 e5       	ldi	r24, 0x52	; 82
    #endif
  }

  if (Flag == PROTO_DETECTED)      /* bad packet */
  {
    Display_Char('?');             /* display: ? */
    4fec:	0e 94 fe 2a 	call	0x55fc	; 0x55fc <LCD_Char>
    4ff0:	21 c1       	rjmp	.+578    	; 0x5234 <IR_Decode+0x318>
   *  - stop: pulse 500Ás
   *  - format: <start><address:8><stop><sync><command:8><stop>
   *  - code repeat delay is 60ms (start to start)
   */

  if (PulseCheck(Time1, 162, IR_RELAX_LONG))      /* pulse 8ms */
    4ff2:	42 e0       	ldi	r20, 0x02	; 2
    4ff4:	62 ea       	ldi	r22, 0xA2	; 162
    4ff6:	8d 2f       	mov	r24, r29
    4ff8:	0e 94 2d 26 	call	0x4c5a	; 0x4c5a <PulseCheck>
    4ffc:	88 23       	and	r24, r24
    4ffe:	b1 f0       	breq	.+44     	; 0x502c <IR_Decode+0x110>
  {
    if (PulseCheck(Time2, 80, IR_STD_TOLER))      /* pause 4ms */
    5000:	40 e0       	ldi	r20, 0x00	; 0
    5002:	60 e5       	ldi	r22, 0x50	; 80
    5004:	8c 2f       	mov	r24, r28
    5006:	0e 94 2d 26 	call	0x4c5a	; 0x4c5a <PulseCheck>
    500a:	88 23       	and	r24, r24
    500c:	79 f0       	breq	.+30     	; 0x502c <IR_Decode+0x110>
    {
      if (PulsesLeft == 35)        /* correct number of pulses/pauses */
    500e:	f3 e2       	ldi	r31, 0x23	; 35
    5010:	ff 12       	cpse	r15, r31
    5012:	0c c0       	rjmp	.+24     	; 0x502c <IR_Decode+0x110>
      {
        /* check if we got the sync pause */
        Pulse += 17;          /* 16 pulses for first part + terminating pulse */
        if (PulseCheck(*Pulse, 80, IR_STD_TOLER))    /* pause 4ms */
    5014:	40 e0       	ldi	r20, 0x00	; 0
    5016:	60 e5       	ldi	r22, 0x50	; 80
    5018:	f5 01       	movw	r30, r10
    501a:	83 89       	ldd	r24, Z+19	; 0x13
    501c:	0e 94 2d 26 	call	0x4c5a	; 0x4c5a <PulseCheck>
    5020:	81 11       	cpse	r24, r1
    5022:	31 c0       	rjmp	.+98     	; 0x5086 <IR_Decode+0x16a>
    if (PulseCheck(Time2, 80, IR_STD_TOLER))      /* pause 4ms */
    {
      if (PulsesLeft == 35)        /* correct number of pulses/pauses */
      {
        /* check if we got the sync pause */
        Pulse += 17;          /* 16 pulses for first part + terminating pulse */
    5024:	65 01       	movw	r12, r10
    5026:	f3 e1       	ldi	r31, 0x13	; 19
    5028:	cf 0e       	add	r12, r31
    502a:	d1 1c       	adc	r13, r1
   *      PDM: pulse 560Ás, pause 0:600Ás 1:1620Ás 
   *    - start: pulse 9ms, pause 4.2ms (180/84)
   *      PDM: pulse 550Ás, pause 0:550Ás 1:1580Ás
   */

  if ((PulseCheck(Time1, 168, IR_STD_TOLER)) ||   /* pulse 8.44ms */
    502c:	40 e0       	ldi	r20, 0x00	; 0
    502e:	68 ea       	ldi	r22, 0xA8	; 168
    5030:	8d 2f       	mov	r24, r29
    5032:	0e 94 2d 26 	call	0x4c5a	; 0x4c5a <PulseCheck>
    5036:	81 11       	cpse	r24, r1
    5038:	07 c0       	rjmp	.+14     	; 0x5048 <IR_Decode+0x12c>
      (PulseCheck(Time1, 184, IR_RELAX_LONG)))    /* 9 - 9.5ms */
    503a:	42 e0       	ldi	r20, 0x02	; 2
    503c:	68 eb       	ldi	r22, 0xB8	; 184
    503e:	8d 2f       	mov	r24, r29
    5040:	0e 94 2d 26 	call	0x4c5a	; 0x4c5a <PulseCheck>
   *      PDM: pulse 560Ás, pause 0:600Ás 1:1620Ás 
   *    - start: pulse 9ms, pause 4.2ms (180/84)
   *      PDM: pulse 550Ás, pause 0:550Ás 1:1580Ás
   */

  if ((PulseCheck(Time1, 168, IR_STD_TOLER)) ||   /* pulse 8.44ms */
    5044:	88 23       	and	r24, r24
    5046:	f1 f1       	breq	.+124    	; 0x50c4 <IR_Decode+0x1a8>
      (PulseCheck(Time1, 184, IR_RELAX_LONG)))    /* 9 - 9.5ms */
  {
    if (PulseCheck(Time2, 84, IR_STD_TOLER))      /* pause 4.22ms */
    5048:	40 e0       	ldi	r20, 0x00	; 0
    504a:	64 e5       	ldi	r22, 0x54	; 84
    504c:	8c 2f       	mov	r24, r28
    504e:	0e 94 2d 26 	call	0x4c5a	; 0x4c5a <PulseCheck>
    5052:	88 23       	and	r24, r24
    5054:	b9 f1       	breq	.+110    	; 0x50c4 <IR_Decode+0x1a8>
    {
      /* try to demodulate JVC */
      Bits = PxM_Demod(Pulse, PulsesLeft, 11, 11, 32, IR_STD_TOLER);
    5056:	e1 2c       	mov	r14, r1
    5058:	00 e2       	ldi	r16, 0x20	; 32
    505a:	2b e0       	ldi	r18, 0x0B	; 11
    505c:	4b e0       	ldi	r20, 0x0B	; 11
    505e:	6f 2d       	mov	r22, r15
    5060:	c6 01       	movw	r24, r12
    5062:	0e 94 c9 26 	call	0x4d92	; 0x4d92 <PxM_Demod>

      if (Bits == 16)              /* we expect 16 bits */
    5066:	80 31       	cpi	r24, 0x10	; 16
    5068:	69 f5       	brne	.+90     	; 0x50c4 <IR_Decode+0x1a8>
      {
        Display_NL_EEString_Space(IR_JVC_str);    /* display protocol */
    506a:	8c e1       	ldi	r24, 0x1C	; 28
    506c:	91 e0       	ldi	r25, 0x01	; 1
    506e:	0e 94 43 11 	call	0x2286	; 0x2286 <Display_NL_EEString_Space>

        Address = GetBits(1, 8, IR_LSB);     /* get address */
    5072:	41 e0       	ldi	r20, 0x01	; 1
    5074:	68 e0       	ldi	r22, 0x08	; 8
    5076:	81 e0       	ldi	r24, 0x01	; 1
    5078:	0e 94 61 27 	call	0x4ec2	; 0x4ec2 <GetBits>
    507c:	98 2e       	mov	r9, r24
        Command = GetBits(9, 8, IR_LSB);     /* get command */
    507e:	41 e0       	ldi	r20, 0x01	; 1
    5080:	68 e0       	ldi	r22, 0x08	; 8
      Bits = BiPhase_Demod(PulseData, Pulses, IR_IEEE | IR_PRE_PAUSE, 17, IR_STD_TOLER);

      if (Bits == 14)              /* we expect 14 bits */
      {
        Address = GetBits(4, 5, IR_MSB);     /* get address */
        Command = GetBits(9, 6, IR_MSB);     /* get command */
    5082:	89 e0       	ldi	r24, 0x09	; 9
    5084:	1b c0       	rjmp	.+54     	; 0x50bc <IR_Decode+0x1a0>
      {
        /* check if we got the sync pause */
        Pulse += 17;          /* 16 pulses for first part + terminating pulse */
        if (PulseCheck(*Pulse, 80, IR_STD_TOLER))    /* pause 4ms */
        {
          *Pulse = 11;                  /* change sync into "0" */
    5086:	8b e0       	ldi	r24, 0x0B	; 11
    5088:	f5 01       	movw	r30, r10
    508a:	83 8b       	std	Z+19, r24	; 0x13
          Pulse -= 17;                  /* back to second pulse */

          Display_NL_EEString_Space(IR_Proton_str);    /* display protocol */
    508c:	8b e0       	ldi	r24, 0x0B	; 11
    508e:	91 e0       	ldi	r25, 0x01	; 1
    5090:	0e 94 43 11 	call	0x2286	; 0x2286 <Display_NL_EEString_Space>
          Flag = PROTO_DETECTED;                  /* detected protocol */

          Bits = PxM_Demod(Pulse, PulsesLeft, 11, 11, 30, IR_STD_TOLER);
    5094:	e1 2c       	mov	r14, r1
    5096:	0e e1       	ldi	r16, 0x1E	; 30
    5098:	2b e0       	ldi	r18, 0x0B	; 11
    509a:	4b e0       	ldi	r20, 0x0B	; 11
    509c:	63 e2       	ldi	r22, 0x23	; 35
    509e:	c6 01       	movw	r24, r12
    50a0:	0e 94 c9 26 	call	0x4d92	; 0x4d92 <PxM_Demod>
          if (Bits == 17)               /* we expect 8 + 1 + 8 bits */
    50a4:	81 31       	cpi	r24, 0x11	; 17
    50a6:	09 f0       	breq	.+2      	; 0x50aa <IR_Decode+0x18e>
    50a8:	45 c0       	rjmp	.+138    	; 0x5134 <IR_Decode+0x218>
          {
            Address = GetBits(1, 8, IR_LSB);      /* get address */
    50aa:	41 e0       	ldi	r20, 0x01	; 1
    50ac:	68 e0       	ldi	r22, 0x08	; 8
    50ae:	81 e0       	ldi	r24, 0x01	; 1
    50b0:	0e 94 61 27 	call	0x4ec2	; 0x4ec2 <GetBits>
    50b4:	98 2e       	mov	r9, r24
            Command = GetBits(10, 8, IR_LSB);     /* get command */
    50b6:	41 e0       	ldi	r20, 0x01	; 1
    50b8:	68 e0       	ldi	r22, 0x08	; 8
    50ba:	8a e0       	ldi	r24, 0x0A	; 10
        Bits = BiPhase_Demod(Pulse, PulsesLeft, IR_THOMAS, 8, IR_RELAX_SHORT);

        if (Bits == 21)       /* we expect 21 bits */
        {
          Address = GetBits(6, 8, IR_MSB);   /* get address */
          Command = GetBits(14, 8, IR_MSB);  /* get command */
    50bc:	0e 94 61 27 	call	0x4ec2	; 0x4ec2 <GetBits>
    50c0:	88 2e       	mov	r8, r24
    50c2:	77 cf       	rjmp	.-274    	; 0x4fb2 <IR_Decode+0x96>
   *    code delay is 74.62ms (end to start)
   *  - repeat sequence format: <pulse 3456Ás><pause 3456Ás><pulse 432Ás>
   *  - repeat delay is 42.2ms (end to start)
   */

  if (PulseCheck(Time1, 70, IR_STD_TOLER))        /* pulse 3.5ms */
    50c4:	40 e0       	ldi	r20, 0x00	; 0
    50c6:	66 e4       	ldi	r22, 0x46	; 70
    50c8:	8d 2f       	mov	r24, r29
    50ca:	0e 94 2d 26 	call	0x4c5a	; 0x4c5a <PulseCheck>
    50ce:	88 23       	and	r24, r24
    50d0:	09 f4       	brne	.+2      	; 0x50d4 <IR_Decode+0x1b8>
    50d2:	7b c0       	rjmp	.+246    	; 0x51ca <IR_Decode+0x2ae>
  {
    /* Matsushita (Panasonic) */ 
    if (PulseCheck(Time2, 70, IR_STD_TOLER))      /* pause 3.5ms */
    50d4:	40 e0       	ldi	r20, 0x00	; 0
    50d6:	66 e4       	ldi	r22, 0x46	; 70
    50d8:	8c 2f       	mov	r24, r28
    50da:	0e 94 2d 26 	call	0x4c5a	; 0x4c5a <PulseCheck>
    50de:	88 23       	and	r24, r24
    50e0:	59 f1       	breq	.+86     	; 0x5138 <IR_Decode+0x21c>
    {
      Display_NextLine();                         /* new line */
    50e2:	0e 94 ed 10 	call	0x21da	; 0x21da <Display_NextLine>
      Display_EEString(IR_Matsushita_str);        /* display protocol */
    50e6:	84 e1       	ldi	r24, 0x14	; 20
    50e8:	91 e0       	ldi	r25, 0x01	; 1
    50ea:	0e 94 0f 11 	call	0x221e	; 0x221e <Display_EEString>
      Flag = PROTO_DETECTED;                      /* detected protocol */

      /* try to demodulate Matsushita */
      Bits = PxM_Demod(Pulse, PulsesLeft, 17, 17, 52, IR_RELAX_LONG);
    50ee:	82 e0       	ldi	r24, 0x02	; 2
    50f0:	e8 2e       	mov	r14, r24
    50f2:	04 e3       	ldi	r16, 0x34	; 52
    50f4:	21 e1       	ldi	r18, 0x11	; 17
    50f6:	41 e1       	ldi	r20, 0x11	; 17
    50f8:	6f 2d       	mov	r22, r15
    50fa:	c6 01       	movw	r24, r12
    50fc:	0e 94 c9 26 	call	0x4d92	; 0x4d92 <PxM_Demod>
    /* Matsushita (Panasonic) */ 
    if (PulseCheck(Time2, 70, IR_STD_TOLER))      /* pause 3.5ms */
    {
      Display_NextLine();                         /* new line */
      Display_EEString(IR_Matsushita_str);        /* display protocol */
      Flag = PROTO_DETECTED;                      /* detected protocol */
    5100:	c1 e0       	ldi	r28, 0x01	; 1

      /* try to demodulate Matsushita */
      Bits = PxM_Demod(Pulse, PulsesLeft, 17, 17, 52, IR_RELAX_LONG);
      Temp = 0;

      if (Bits == 24)              /* we expect 24 bits for C6D6 */
    5102:	88 31       	cpi	r24, 0x18	; 24
    5104:	91 f4       	brne	.+36     	; 0x512a <IR_Decode+0x20e>
      {
        Temp = '6';                /* char 6 */

        Address = GetBits(1, 6, IR_LSB);     /* get address */
    5106:	41 e0       	ldi	r20, 0x01	; 1
    5108:	66 e0       	ldi	r22, 0x06	; 6
    510a:	81 e0       	ldi	r24, 0x01	; 1
    510c:	0e 94 61 27 	call	0x4ec2	; 0x4ec2 <GetBits>
    5110:	98 2e       	mov	r9, r24
        Command = GetBits(7, 6, IR_LSB);     /* get command */
    5112:	41 e0       	ldi	r20, 0x01	; 1
    5114:	66 e0       	ldi	r22, 0x06	; 6
    5116:	87 e0       	ldi	r24, 0x07	; 7
    5118:	0e 94 61 27 	call	0x4ec2	; 0x4ec2 <GetBits>
    511c:	88 2e       	mov	r8, r24
      }
      #endif

      if (Temp > 0)                /* display version */
      {
        Display_Minus();           /* display: - */
    511e:	0e 94 2b 11 	call	0x2256	; 0x2256 <Display_Minus>
        Display_Char(Temp);        /* display: 5 or 6 */
    5122:	86 e3       	ldi	r24, 0x36	; 54
    5124:	0e 94 fe 2a 	call	0x55fc	; 0x55fc <LCD_Char>

        Address = GetBits(1, 6, IR_LSB);     /* get address */
        Command = GetBits(7, 6, IR_LSB);     /* get command */
        /* todo: check inverted address and command */

        Flag = PACKET_DISPLAY;     /* packet ok & default output */
    5128:	c3 e0       	ldi	r28, 0x03	; 3
      {
        Display_Minus();           /* display: - */
        Display_Char(Temp);        /* display: 5 or 6 */
      }

      Display_Space();             /* display space */
    512a:	0e 94 27 11 	call	0x224e	; 0x224e <Display_Space>
    Pulse++;
    Display_Value2(*Pulse);
    #endif
  }

  if (Flag == PROTO_DETECTED)      /* bad packet */
    512e:	c1 30       	cpi	r28, 0x01	; 1
    5130:	09 f0       	breq	.+2      	; 0x5134 <IR_Decode+0x218>
    5132:	a9 c1       	rjmp	.+850    	; 0x5486 <IR_Decode+0x56a>
  {
    Display_Char('?');             /* display: ? */
    5134:	8f e3       	ldi	r24, 0x3F	; 63
    5136:	5a cf       	rjmp	.-332    	; 0x4fec <IR_Decode+0xd0>
      Display_Space();             /* display space */
      goto result;                 /* skip other checks */
    }

    /* Kaseikyo */
    if (PulseCheck(Time2, 34, IR_STD_TOLER))      /* pause 1728Ás */
    5138:	40 e0       	ldi	r20, 0x00	; 0
    513a:	62 e2       	ldi	r22, 0x22	; 34
    513c:	8c 2f       	mov	r24, r28
    513e:	0e 94 2d 26 	call	0x4c5a	; 0x4c5a <PulseCheck>
    5142:	88 23       	and	r24, r24
    5144:	09 f4       	brne	.+2      	; 0x5148 <IR_Decode+0x22c>
    5146:	41 c0       	rjmp	.+130    	; 0x51ca <IR_Decode+0x2ae>
    {
      Display_NL_EEString_Space(IR_Kaseikyo_str);      /* display protocol */
    5148:	88 e1       	ldi	r24, 0x18	; 24
    514a:	91 e0       	ldi	r25, 0x01	; 1
    514c:	0e 94 43 11 	call	0x2286	; 0x2286 <Display_NL_EEString_Space>
      Flag = PROTO_DETECTED;                      /* detected protocol */

      /* try to demodulate Kaseikyo */
      Bits = PxM_Demod(Pulse, PulsesLeft, 8, 8, 26, IR_RELAX_SHORT);
    5150:	ee 24       	eor	r14, r14
    5152:	e3 94       	inc	r14
    5154:	0a e1       	ldi	r16, 0x1A	; 26
    5156:	28 e0       	ldi	r18, 0x08	; 8
    5158:	48 e0       	ldi	r20, 0x08	; 8
    515a:	6f 2d       	mov	r22, r15
    515c:	c6 01       	movw	r24, r12
    515e:	0e 94 c9 26 	call	0x4d92	; 0x4d92 <PxM_Demod>

      if (Bits == 48)              /* we expect 48 bits */
    5162:	80 33       	cpi	r24, 0x30	; 48
    5164:	39 f7       	brne	.-50     	; 0x5134 <IR_Decode+0x218>
      {
        Address = GetBits(1, 8, IR_LSB);     /* get manufacturer LSB */
    5166:	41 e0       	ldi	r20, 0x01	; 1
    5168:	68 e0       	ldi	r22, 0x08	; 8
    516a:	81 e0       	ldi	r24, 0x01	; 1
    516c:	0e 94 61 27 	call	0x4ec2	; 0x4ec2 <GetBits>
    5170:	c8 2f       	mov	r28, r24
        Extras = GetBits(9, 8, IR_LSB);      /* get manufacturer MSB */
    5172:	41 e0       	ldi	r20, 0x01	; 1
    5174:	68 e0       	ldi	r22, 0x08	; 8
    5176:	89 e0       	ldi	r24, 0x09	; 9
    5178:	0e 94 61 27 	call	0x4ec2	; 0x4ec2 <GetBits>

        Display_HexByte(Extras);        /* display manufacturer MSB */
    517c:	0e 94 68 11 	call	0x22d0	; 0x22d0 <Display_HexByte>
        Display_HexByte(Address);       /* display manufacturer LSB */
    5180:	8c 2f       	mov	r24, r28
    5182:	0e 94 68 11 	call	0x22d0	; 0x22d0 <Display_HexByte>
        Display_Colon();                /* display: : */
    5186:	0e 94 2f 11 	call	0x225e	; 0x225e <Display_Colon>

        Extras = GetBits(21, 4, IR_LSB);     /* get system */
    518a:	41 e0       	ldi	r20, 0x01	; 1
    518c:	64 e0       	ldi	r22, 0x04	; 4
    518e:	85 e1       	ldi	r24, 0x15	; 21
    5190:	0e 94 61 27 	call	0x4ec2	; 0x4ec2 <GetBits>
    5194:	18 2f       	mov	r17, r24
        Address = GetBits(25, 8, IR_LSB);    /* get product (address) */
    5196:	41 e0       	ldi	r20, 0x01	; 1
    5198:	68 e0       	ldi	r22, 0x08	; 8
    519a:	89 e1       	ldi	r24, 0x19	; 25
    519c:	0e 94 61 27 	call	0x4ec2	; 0x4ec2 <GetBits>
    51a0:	d8 2f       	mov	r29, r24
        Command = GetBits(33, 8, IR_LSB);    /* get function (command) */      
    51a2:	41 e0       	ldi	r20, 0x01	; 1
    51a4:	68 e0       	ldi	r22, 0x08	; 8
    51a6:	81 e2       	ldi	r24, 0x21	; 33
    51a8:	0e 94 61 27 	call	0x4ec2	; 0x4ec2 <GetBits>
    51ac:	c8 2f       	mov	r28, r24

        Display_HexDigit(Extras);  /* display system */
    51ae:	81 2f       	mov	r24, r17
    51b0:	0e 94 60 11 	call	0x22c0	; 0x22c0 <Display_HexDigit>
        Display_Minus();           /* display: - */
    51b4:	0e 94 2b 11 	call	0x2256	; 0x2256 <Display_Minus>
        Display_HexByte(Address);  /* display product */
    51b8:	8d 2f       	mov	r24, r29
    51ba:	0e 94 68 11 	call	0x22d0	; 0x22d0 <Display_HexByte>
        Display_Colon();           /* display: : */
    51be:	0e 94 2f 11 	call	0x225e	; 0x225e <Display_Colon>
        Display_HexByte(Command);  /* display function */
    51c2:	8c 2f       	mov	r24, r28

  if (Flag == PACKET_DISPLAY)      /* known protocol & standard output */
  {
    Display_HexByte(Address);      /* display address */
    Display_Colon();               /* display: : */
    Display_HexByte(Command);      /* display command */
    51c4:	0e 94 68 11 	call	0x22d0	; 0x22d0 <Display_HexByte>
    51c8:	35 c0       	rjmp	.+106    	; 0x5234 <IR_Decode+0x318>
   *  - start/end packet format: <start><start "1":1><command "62":6>
   *  - command packet format: <start><start "1":1><command:6>
   *  - carrier 31kHz, duty cycle 1/4
   */

  if (PulseCheck(Time1, 11, IR_STD_TOLER))        /* pulse 512Ás */
    51ca:	40 e0       	ldi	r20, 0x00	; 0
    51cc:	6b e0       	ldi	r22, 0x0B	; 11
    51ce:	8d 2f       	mov	r24, r29
    51d0:	0e 94 2d 26 	call	0x4c5a	; 0x4c5a <PulseCheck>
    51d4:	88 23       	and	r24, r24
    51d6:	09 f4       	brne	.+2      	; 0x51da <IR_Decode+0x2be>
    51d8:	42 c0       	rjmp	.+132    	; 0x525e <IR_Decode+0x342>
  {
    if (PulseCheck(Time2, 52, IR_STD_TOLER))      /* pause 2560Ás */
    51da:	40 e0       	ldi	r20, 0x00	; 0
    51dc:	64 e3       	ldi	r22, 0x34	; 52
    51de:	8c 2f       	mov	r24, r28
    51e0:	0e 94 2d 26 	call	0x4c5a	; 0x4c5a <PulseCheck>
    51e4:	88 23       	and	r24, r24
    51e6:	d9 f1       	breq	.+118    	; 0x525e <IR_Decode+0x342>
    {
      /* try to demodulate Motorola or IR60 */
      Bits = BiPhase_Demod(Pulse, PulsesLeft, IR_THOMAS, 11, IR_STD_TOLER);
    51e8:	00 e0       	ldi	r16, 0x00	; 0
    51ea:	2b e0       	ldi	r18, 0x0B	; 11
    51ec:	42 e0       	ldi	r20, 0x02	; 2
    51ee:	6f 2d       	mov	r22, r15
    51f0:	c6 01       	movw	r24, r12
    51f2:	0e 94 45 26 	call	0x4c8a	; 0x4c8a <BiPhase_Demod>

      if (Bits == 10)              /* we expect 10 bits for Motorola */
    51f6:	8a 30       	cpi	r24, 0x0A	; 10
    51f8:	91 f5       	brne	.+100    	; 0x525e <IR_Decode+0x342>
      {
        /* todo: check start bit? */
        Command = GetBits(2, 8, IR_LSB);     /* get command LSB */
    51fa:	41 e0       	ldi	r20, 0x01	; 1
    51fc:	68 e0       	ldi	r22, 0x08	; 8
    51fe:	82 e0       	ldi	r24, 0x02	; 2
    5200:	0e 94 61 27 	call	0x4ec2	; 0x4ec2 <GetBits>
    5204:	d8 2f       	mov	r29, r24
        Extras = GetBits(10, 1, IR_LSB);     /* get command MSB */
    5206:	41 e0       	ldi	r20, 0x01	; 1
    5208:	61 e0       	ldi	r22, 0x01	; 1
    520a:	8a e0       	ldi	r24, 0x0A	; 10
    520c:	0e 94 61 27 	call	0x4ec2	; 0x4ec2 <GetBits>
    5210:	c8 2f       	mov	r28, r24
         */

        Flag = PACKET_MULTI;       /* multi packet protocol */

        /* check for packet type */
        if ((Command == 0b11111111) && (Extras == 0b00000001))
    5212:	df 3f       	cpi	r29, 0xFF	; 255
    5214:	b1 f4       	brne	.+44     	; 0x5242 <IR_Decode+0x326>
    5216:	81 30       	cpi	r24, 0x01	; 1
    5218:	a1 f4       	brne	.+40     	; 0x5242 <IR_Decode+0x326>
        {
          /* start or end packet: all 1s */
          if (IR_State == 0)            /* no packet yet */
    521a:	80 91 00 01 	lds	r24, 0x0100	; 0x800100 <__DATA_REGION_ORIGIN__>
    521e:	81 11       	cpse	r24, r1
    5220:	07 c0       	rjmp	.+14     	; 0x5230 <IR_Decode+0x314>
          {
            IR_State = 1;               /* we have a start packet */
    5222:	c0 93 00 01 	sts	0x0100, r28	; 0x800100 <__DATA_REGION_ORIGIN__>
  #undef PROTO_UNKNOWN
  #undef PROTO_DETECTED
  #undef PACKET_OK
  #undef PACKET_DISPLAY
  #undef PACKET_MULTI
} 
    5226:	cd b7       	in	r28, 0x3d	; 61
    5228:	de b7       	in	r29, 0x3e	; 62
    522a:	ec e0       	ldi	r30, 0x0C	; 12
    522c:	0c 94 8e 2d 	jmp	0x5b1c	; 0x5b1c <__epilogue_restores__+0xc>
          /* start or end packet: all 1s */
          if (IR_State == 0)            /* no packet yet */
          {
            IR_State = 1;               /* we have a start packet */
          }
          else if (IR_State == 2)       /* command packet */
    5230:	82 30       	cpi	r24, 0x02	; 2
    5232:	c9 f7       	brne	.-14     	; 0x5226 <IR_Decode+0x30a>
    Display_HexByte(Command);      /* display command */
  }

  if (Flag < PACKET_MULTI)         /* no packets to follow (protocol done) */
  {
    IR_State = 0;                  /* reset multi packet state */
    5234:	10 92 00 01 	sts	0x0100, r1	; 0x800100 <__DATA_REGION_ORIGIN__>
      #endif
    }
    #endif

    /* slow down display updates and try to skip early repeats */
    MilliSleep(200);               /* don't proceed too soon */
    5238:	88 ec       	ldi	r24, 0xC8	; 200
    523a:	90 e0       	ldi	r25, 0x00	; 0
    523c:	0e 94 0b 09 	call	0x1216	; 0x1216 <MilliSleep>
    5240:	f2 cf       	rjmp	.-28     	; 0x5226 <IR_Decode+0x30a>
          /* else: packet missing/broken */
        }
        else                            /* command packet */
        {
          /* command packet */
          Display_NL_EEString_Space(IR_Motorola_str);  /* display protocol */
    5242:	80 e1       	ldi	r24, 0x10	; 16
    5244:	91 e0       	ldi	r25, 0x01	; 1
    5246:	0e 94 43 11 	call	0x2286	; 0x2286 <Display_NL_EEString_Space>
          Display_HexDigit(Extras);     /* display command MSB */
    524a:	8c 2f       	mov	r24, r28
    524c:	0e 94 60 11 	call	0x22c0	; 0x22c0 <Display_HexDigit>
          Display_HexByte(Command);     /* display command LSB */
    5250:	8d 2f       	mov	r24, r29
    5252:	0e 94 68 11 	call	0x22d0	; 0x22d0 <Display_HexByte>

          IR_State = 2;                 /* we have a command packet */
    5256:	82 e0       	ldi	r24, 0x02	; 2
          Display_NL_EEString_Space(IR_Sharp_str);  /* display protocol */
          Display_HexByte(Address);                 /* display address */
          Display_Colon();                          /* display: : */
          Display_HexByte(Command);                 /* display command */

          IR_State = 1;                 /* got packet #1 */
    5258:	80 93 00 01 	sts	0x0100, r24	; 0x800100 <__DATA_REGION_ORIGIN__>
    525c:	e4 cf       	rjmp	.-56     	; 0x5226 <IR_Decode+0x30a>
   *  - repeat sequence format:
   *    <start><inverted bit #0 of custom><stop>
   *  - repeat delay is 108ms (start to start)
   */

  if (PulseCheck(Time1, 89, IR_STD_TOLER))        /* pulse 4.5ms */
    525e:	40 e0       	ldi	r20, 0x00	; 0
    5260:	69 e5       	ldi	r22, 0x59	; 89
    5262:	8d 2f       	mov	r24, r29
    5264:	0e 94 2d 26 	call	0x4c5a	; 0x4c5a <PulseCheck>
    5268:	88 23       	and	r24, r24
    526a:	01 f1       	breq	.+64     	; 0x52ac <IR_Decode+0x390>
  {
    if (PulseCheck(Time2, 89, IR_STD_TOLER))      /* pause 4.5ms */
    526c:	40 e0       	ldi	r20, 0x00	; 0
    526e:	69 e5       	ldi	r22, 0x59	; 89
    5270:	8c 2f       	mov	r24, r28
    5272:	0e 94 2d 26 	call	0x4c5a	; 0x4c5a <PulseCheck>
    5276:	88 23       	and	r24, r24
    5278:	c9 f0       	breq	.+50     	; 0x52ac <IR_Decode+0x390>
    {
      Display_NL_EEString_Space(IR_Samsung_str);  /* display protocol */
    527a:	8c ef       	ldi	r24, 0xFC	; 252
    527c:	90 e0       	ldi	r25, 0x00	; 0
    527e:	0e 94 43 11 	call	0x2286	; 0x2286 <Display_NL_EEString_Space>
      Flag = PROTO_DETECTED;                      /* detected protocol */

      /* try to demodulate Samsung */
      Bits = PxM_Demod(Pulse, PulsesLeft, 11, 11, 34, IR_STD_TOLER);
    5282:	e1 2c       	mov	r14, r1
    5284:	02 e2       	ldi	r16, 0x22	; 34
    5286:	2b e0       	ldi	r18, 0x0B	; 11
    5288:	4b e0       	ldi	r20, 0x0B	; 11
    528a:	6f 2d       	mov	r22, r15
    528c:	c6 01       	movw	r24, r12
    528e:	0e 94 c9 26 	call	0x4d92	; 0x4d92 <PxM_Demod>

      if (Bits == 32)              /* we expect 32 bits */
    5292:	80 32       	cpi	r24, 0x20	; 32
    5294:	09 f0       	breq	.+2      	; 0x5298 <IR_Decode+0x37c>
    5296:	4e cf       	rjmp	.-356    	; 0x5134 <IR_Decode+0x218>
      {
        Address = GetBits(1, 8, IR_LSB);     /* get address */
    5298:	41 e0       	ldi	r20, 0x01	; 1
    529a:	68 e0       	ldi	r22, 0x08	; 8
    529c:	81 e0       	ldi	r24, 0x01	; 1
    529e:	0e 94 61 27 	call	0x4ec2	; 0x4ec2 <GetBits>
    52a2:	98 2e       	mov	r9, r24
        Command = GetBits(17, 8, IR_LSB);    /* get command */
    52a4:	41 e0       	ldi	r20, 0x01	; 1
    52a6:	68 e0       	ldi	r22, 0x08	; 8
    52a8:	81 e1       	ldi	r24, 0x11	; 17
    52aa:	08 cf       	rjmp	.-496    	; 0x50bc <IR_Decode+0x1a0>
   *  - 20 bit format: <start><command:7><address:5><extended:8>
   *  - code becomes valid after receiving it 3 times at least
   *    code delay is 45ms (start to start)
   */

  if (PulseCheck(Time1, 48, IR_STD_TOLER))        /* pulse 2.4ms */
    52ac:	40 e0       	ldi	r20, 0x00	; 0
    52ae:	60 e3       	ldi	r22, 0x30	; 48
    52b0:	8d 2f       	mov	r24, r29
    52b2:	0e 94 2d 26 	call	0x4c5a	; 0x4c5a <PulseCheck>
    52b6:	88 23       	and	r24, r24
    52b8:	09 f4       	brne	.+2      	; 0x52bc <IR_Decode+0x3a0>
    52ba:	52 c0       	rjmp	.+164    	; 0x5360 <IR_Decode+0x444>
  {
    if (PulseCheck(Time2, 12, IR_STD_TOLER))      /* pause 600Ás */
    52bc:	40 e0       	ldi	r20, 0x00	; 0
    52be:	6c e0       	ldi	r22, 0x0C	; 12
    52c0:	8c 2f       	mov	r24, r28
    52c2:	0e 94 2d 26 	call	0x4c5a	; 0x4c5a <PulseCheck>
    52c6:	88 23       	and	r24, r24
    52c8:	09 f4       	brne	.+2      	; 0x52cc <IR_Decode+0x3b0>
    52ca:	4a c0       	rjmp	.+148    	; 0x5360 <IR_Decode+0x444>
    {
      Display_NextLine();               /* new line */
    52cc:	0e 94 ed 10 	call	0x21da	; 0x21da <Display_NextLine>
      Display_EEString(IR_SIRC_str);    /* display protocol */
    52d0:	80 e2       	ldi	r24, 0x20	; 32
    52d2:	91 e0       	ldi	r25, 0x01	; 1
    52d4:	0e 94 0f 11 	call	0x221e	; 0x221e <Display_EEString>
      Flag = PROTO_DETECTED;            /* detected protocol */

      /* try to demodulate SIRC */
      Pulse--;                          /* back to first pause */
      PulsesLeft++;                     /* undo first pause */
    52d8:	6f ef       	ldi	r22, 0xFF	; 255
    52da:	61 0f       	add	r22, r17
      Bits = PxM_Demod(Pulse, PulsesLeft, 12, 12, 24, IR_STD_TOLER);
    52dc:	e1 2c       	mov	r14, r1
    52de:	08 e1       	ldi	r16, 0x18	; 24
    52e0:	2c e0       	ldi	r18, 0x0C	; 12
    52e2:	4c e0       	ldi	r20, 0x0C	; 12
    52e4:	c6 01       	movw	r24, r12
    52e6:	01 97       	sbiw	r24, 0x01	; 1
    52e8:	0e 94 c9 26 	call	0x4d92	; 0x4d92 <PxM_Demod>
    52ec:	c8 2f       	mov	r28, r24

      /* 12, 15 or 20 bit format */
      Temp = 5;                    /* 5 bit address */
      if (Bits == 12)              /* SIRC-12 */
    52ee:	8c 30       	cpi	r24, 0x0C	; 12
    52f0:	99 f1       	breq	.+102    	; 0x5358 <IR_Decode+0x43c>
      {
        Flag = PACKET_OK;          /* packet ok */
      }
      else if (Bits == 15)         /* SIRC-15 */
    52f2:	8f 30       	cpi	r24, 0x0F	; 15
    52f4:	99 f1       	breq	.+102    	; 0x535c <IR_Decode+0x440>
      Pulse--;                          /* back to first pause */
      PulsesLeft++;                     /* undo first pause */
      Bits = PxM_Demod(Pulse, PulsesLeft, 12, 12, 24, IR_STD_TOLER);

      /* 12, 15 or 20 bit format */
      Temp = 5;                    /* 5 bit address */
    52f6:	15 e0       	ldi	r17, 0x05	; 5
  {
    if (PulseCheck(Time2, 12, IR_STD_TOLER))      /* pause 600Ás */
    {
      Display_NextLine();               /* new line */
      Display_EEString(IR_SIRC_str);    /* display protocol */
      Flag = PROTO_DETECTED;            /* detected protocol */
    52f8:	d1 e0       	ldi	r29, 0x01	; 1
      else if (Bits == 15)         /* SIRC-15 */
      {
        Flag = PACKET_OK;          /* packet ok */
        Temp = 8;                  /* 8 bit address */
      }
      else if (Bits == 20)         /* SIRC-20 */
    52fa:	84 31       	cpi	r24, 0x14	; 20
    52fc:	09 f4       	brne	.+2      	; 0x5300 <IR_Decode+0x3e4>
      {
        Flag = PACKET_OK;          /* packet ok */
      }
      else if (Bits == 15)         /* SIRC-15 */
      {
        Flag = PACKET_OK;          /* packet ok */
    52fe:	d2 e0       	ldi	r29, 0x02	; 2
      else if (Bits == 20)         /* SIRC-20 */
      {
        Flag = PACKET_OK;          /* packet ok */
      }

      Command = GetBits(1, 7, IR_LSB);       /* get command */
    5300:	41 e0       	ldi	r20, 0x01	; 1
    5302:	67 e0       	ldi	r22, 0x07	; 7
    5304:	81 e0       	ldi	r24, 0x01	; 1
    5306:	0e 94 61 27 	call	0x4ec2	; 0x4ec2 <GetBits>
    530a:	f8 2e       	mov	r15, r24
      Address = GetBits(8, Temp, IR_LSB);    /* get address */
    530c:	41 e0       	ldi	r20, 0x01	; 1
    530e:	61 2f       	mov	r22, r17
    5310:	88 e0       	ldi	r24, 0x08	; 8
    5312:	0e 94 61 27 	call	0x4ec2	; 0x4ec2 <GetBits>
    5316:	18 2f       	mov	r17, r24

      /* display format */
      if (Flag == PACKET_OK)       /* valid packet */
    5318:	d2 30       	cpi	r29, 0x02	; 2
    531a:	31 f4       	brne	.+12     	; 0x5328 <IR_Decode+0x40c>
      {
        Display_Value2(Bits);      /* display number of bits */
    531c:	6c 2f       	mov	r22, r28
    531e:	70 e0       	ldi	r23, 0x00	; 0
    5320:	90 e0       	ldi	r25, 0x00	; 0
    5322:	80 e0       	ldi	r24, 0x00	; 0
    5324:	0e 94 00 12 	call	0x2400	; 0x2400 <Display_Value2>
      }

      /* we accept the first code and don't wait for another 2 repeats */

      Display_Space();             /* display space */
    5328:	0e 94 27 11 	call	0x224e	; 0x224e <Display_Space>

      /* display data */
      if (Flag == PACKET_OK)       /* valid packet */
    532c:	d2 30       	cpi	r29, 0x02	; 2
    532e:	09 f0       	breq	.+2      	; 0x5332 <IR_Decode+0x416>
    5330:	01 cf       	rjmp	.-510    	; 0x5134 <IR_Decode+0x218>
      {
        Display_HexByte(Command);  /* display command */
    5332:	8f 2d       	mov	r24, r15
    5334:	0e 94 68 11 	call	0x22d0	; 0x22d0 <Display_HexByte>
        Display_Colon();           /* display: : */
    5338:	0e 94 2f 11 	call	0x225e	; 0x225e <Display_Colon>
        Display_HexByte(Address);  /* display address */
    533c:	81 2f       	mov	r24, r17
    533e:	0e 94 68 11 	call	0x22d0	; 0x22d0 <Display_HexByte>

        if (Bits == 20)            /* 20 bit format */
    5342:	c4 31       	cpi	r28, 0x14	; 20
    5344:	09 f0       	breq	.+2      	; 0x5348 <IR_Decode+0x42c>
    5346:	76 cf       	rjmp	.-276    	; 0x5234 <IR_Decode+0x318>
        {
          Display_Colon();                   /* display: : */
    5348:	0e 94 2f 11 	call	0x225e	; 0x225e <Display_Colon>
          Extras = GetBits(13, 8, IR_LSB);   /* get extended */
    534c:	41 e0       	ldi	r20, 0x01	; 1
    534e:	68 e0       	ldi	r22, 0x08	; 8
    5350:	8d e0       	ldi	r24, 0x0D	; 13
    5352:	0e 94 61 27 	call	0x4ec2	; 0x4ec2 <GetBits>
    5356:	36 cf       	rjmp	.-404    	; 0x51c4 <IR_Decode+0x2a8>
      Pulse--;                          /* back to first pause */
      PulsesLeft++;                     /* undo first pause */
      Bits = PxM_Demod(Pulse, PulsesLeft, 12, 12, 24, IR_STD_TOLER);

      /* 12, 15 or 20 bit format */
      Temp = 5;                    /* 5 bit address */
    5358:	15 e0       	ldi	r17, 0x05	; 5
    535a:	d1 cf       	rjmp	.-94     	; 0x52fe <IR_Decode+0x3e2>
        Flag = PACKET_OK;          /* packet ok */
      }
      else if (Bits == 15)         /* SIRC-15 */
      {
        Flag = PACKET_OK;          /* packet ok */
        Temp = 8;                  /* 8 bit address */
    535c:	18 e0       	ldi	r17, 0x08	; 8
    535e:	cf cf       	rjmp	.-98     	; 0x52fe <IR_Decode+0x3e2>
   *    40ms (end to start) could work too
   *  - alternative timing:
   *    - pulse 320Ás, pause 0=680Ás 1=1680Ás
   */

  if (PulseCheck(Time1, 6, IR_STD_TOLER))    /* pulse 320Ás */
    5360:	40 e0       	ldi	r20, 0x00	; 0
    5362:	66 e0       	ldi	r22, 0x06	; 6
    5364:	8d 2f       	mov	r24, r29
    5366:	0e 94 2d 26 	call	0x4c5a	; 0x4c5a <PulseCheck>
    536a:	88 23       	and	r24, r24
    536c:	b9 f1       	breq	.+110    	; 0x53dc <IR_Decode+0x4c0>
  {
    /* pause 680Ás or 1680Ás */
    if ((PulseCheck(Time2, 14, IR_STD_TOLER)) ||
    536e:	40 e0       	ldi	r20, 0x00	; 0
    5370:	6e e0       	ldi	r22, 0x0E	; 14
    5372:	8c 2f       	mov	r24, r28
    5374:	0e 94 2d 26 	call	0x4c5a	; 0x4c5a <PulseCheck>
    5378:	81 11       	cpse	r24, r1
    537a:	07 c0       	rjmp	.+14     	; 0x538a <IR_Decode+0x46e>
        (PulseCheck(Time2, 35, IR_STD_TOLER)))
    537c:	40 e0       	ldi	r20, 0x00	; 0
    537e:	63 e2       	ldi	r22, 0x23	; 35
    5380:	8c 2f       	mov	r24, r28
    5382:	0e 94 2d 26 	call	0x4c5a	; 0x4c5a <PulseCheck>
   */

  if (PulseCheck(Time1, 6, IR_STD_TOLER))    /* pulse 320Ás */
  {
    /* pause 680Ás or 1680Ás */
    if ((PulseCheck(Time2, 14, IR_STD_TOLER)) ||
    5386:	88 23       	and	r24, r24
    5388:	49 f1       	breq	.+82     	; 0x53dc <IR_Decode+0x4c0>
        (PulseCheck(Time2, 35, IR_STD_TOLER)))
    {
      Flag = PROTO_DETECTED;       /* detected protocol */

      /* try to demodulate Sharp */
      Bits = PxM_Demod(PulseData, Pulses, 6, 14, 35, IR_STD_TOLER);
    538a:	e1 2c       	mov	r14, r1
    538c:	03 e2       	ldi	r16, 0x23	; 35
    538e:	2e e0       	ldi	r18, 0x0E	; 14
    5390:	46 e0       	ldi	r20, 0x06	; 6
    5392:	61 2f       	mov	r22, r17
    5394:	c5 01       	movw	r24, r10
    5396:	0e 94 c9 26 	call	0x4d92	; 0x4d92 <PxM_Demod>

      if (Bits == 15)              /* we expect 15 bits */
    539a:	8f 30       	cpi	r24, 0x0F	; 15
    539c:	09 f0       	breq	.+2      	; 0x53a0 <IR_Decode+0x484>
    539e:	ca ce       	rjmp	.-620    	; 0x5134 <IR_Decode+0x218>
      {
        if (IR_State == 0)         /* packet #1 */
    53a0:	80 91 00 01 	lds	r24, 0x0100	; 0x800100 <__DATA_REGION_ORIGIN__>
    53a4:	81 11       	cpse	r24, r1
    53a6:	46 cf       	rjmp	.-372    	; 0x5234 <IR_Decode+0x318>
        {
          Address = GetBits(1, 5, IR_LSB);     /* get address */
    53a8:	41 e0       	ldi	r20, 0x01	; 1
    53aa:	65 e0       	ldi	r22, 0x05	; 5
    53ac:	81 e0       	ldi	r24, 0x01	; 1
    53ae:	0e 94 61 27 	call	0x4ec2	; 0x4ec2 <GetBits>
    53b2:	d8 2f       	mov	r29, r24
          Command = GetBits(6, 8, IR_LSB);     /* get command */
    53b4:	41 e0       	ldi	r20, 0x01	; 1
    53b6:	68 e0       	ldi	r22, 0x08	; 8
    53b8:	86 e0       	ldi	r24, 0x06	; 6
    53ba:	0e 94 61 27 	call	0x4ec2	; 0x4ec2 <GetBits>
    53be:	c8 2f       	mov	r28, r24
          /* todo: mask & type bits */

          Display_NL_EEString_Space(IR_Sharp_str);  /* display protocol */
    53c0:	86 ef       	ldi	r24, 0xF6	; 246
    53c2:	90 e0       	ldi	r25, 0x00	; 0
    53c4:	0e 94 43 11 	call	0x2286	; 0x2286 <Display_NL_EEString_Space>
          Display_HexByte(Address);                 /* display address */
    53c8:	8d 2f       	mov	r24, r29
    53ca:	0e 94 68 11 	call	0x22d0	; 0x22d0 <Display_HexByte>
          Display_Colon();                          /* display: : */
    53ce:	0e 94 2f 11 	call	0x225e	; 0x225e <Display_Colon>
          Display_HexByte(Command);                 /* display command */
    53d2:	8c 2f       	mov	r24, r28
    53d4:	0e 94 68 11 	call	0x22d0	; 0x22d0 <Display_HexByte>

          IR_State = 1;                 /* got packet #1 */
    53d8:	81 e0       	ldi	r24, 0x01	; 1
    53da:	3e cf       	rjmp	.-388    	; 0x5258 <IR_Decode+0x33c>
   *  - toggle: inverted each time a key is pressed
   *            stays the same when key is still pressed
   *  - repeat delay is 114ms (start to start) or 89ms (end to start)
   */

  if (PulseCheck(Time1, 17, IR_STD_TOLER))        /* pulse 889Ás */
    53dc:	40 e0       	ldi	r20, 0x00	; 0
    53de:	61 e1       	ldi	r22, 0x11	; 17
    53e0:	8d 2f       	mov	r24, r29
    53e2:	0e 94 2d 26 	call	0x4c5a	; 0x4c5a <PulseCheck>
    53e6:	88 23       	and	r24, r24
    53e8:	f1 f0       	breq	.+60     	; 0x5426 <IR_Decode+0x50a>
  {
    if (PulseCheck(Time2, 17, IR_STD_TOLER))      /* pause 889Ás */
    53ea:	40 e0       	ldi	r20, 0x00	; 0
    53ec:	61 e1       	ldi	r22, 0x11	; 17
    53ee:	8c 2f       	mov	r24, r28
    53f0:	0e 94 2d 26 	call	0x4c5a	; 0x4c5a <PulseCheck>
    53f4:	88 23       	and	r24, r24
    53f6:	b9 f0       	breq	.+46     	; 0x5426 <IR_Decode+0x50a>
    {
      Display_NL_EEString_Space(IR_RC5_str);      /* display protocol */
    53f8:	86 e0       	ldi	r24, 0x06	; 6
    53fa:	91 e0       	ldi	r25, 0x01	; 1
    53fc:	0e 94 43 11 	call	0x2286	; 0x2286 <Display_NL_EEString_Space>
      Flag = PROTO_DETECTED;                 /* detected protocol */

      /* try to demodulate RC-5 */
      Bits = BiPhase_Demod(PulseData, Pulses, IR_IEEE | IR_PRE_PAUSE, 17, IR_STD_TOLER);
    5400:	00 e0       	ldi	r16, 0x00	; 0
    5402:	21 e1       	ldi	r18, 0x11	; 17
    5404:	45 e0       	ldi	r20, 0x05	; 5
    5406:	61 2f       	mov	r22, r17
    5408:	c5 01       	movw	r24, r10
    540a:	0e 94 45 26 	call	0x4c8a	; 0x4c8a <BiPhase_Demod>

      if (Bits == 14)              /* we expect 14 bits */
    540e:	8e 30       	cpi	r24, 0x0E	; 14
    5410:	09 f0       	breq	.+2      	; 0x5414 <IR_Decode+0x4f8>
    5412:	90 ce       	rjmp	.-736    	; 0x5134 <IR_Decode+0x218>
      {
        Address = GetBits(4, 5, IR_MSB);     /* get address */
    5414:	42 e0       	ldi	r20, 0x02	; 2
    5416:	65 e0       	ldi	r22, 0x05	; 5
    5418:	84 e0       	ldi	r24, 0x04	; 4
    541a:	0e 94 61 27 	call	0x4ec2	; 0x4ec2 <GetBits>
    541e:	98 2e       	mov	r9, r24
        Command = GetBits(9, 6, IR_MSB);     /* get command */
    5420:	42 e0       	ldi	r20, 0x02	; 2
    5422:	66 e0       	ldi	r22, 0x06	; 6
    5424:	2e ce       	rjmp	.-932    	; 0x5082 <IR_Decode+0x166>
   *  - toggle: inverted each time a key is pressed
   *            stays the same when key is still pressed
   *  - delay between codes is 2.666ms (end to start)
   */

  if (PulseCheck(Time1, 53, IR_STD_TOLER))        /* pulse 2664Ás */
    5426:	40 e0       	ldi	r20, 0x00	; 0
    5428:	65 e3       	ldi	r22, 0x35	; 53
    542a:	8d 2f       	mov	r24, r29
    542c:	0e 94 2d 26 	call	0x4c5a	; 0x4c5a <PulseCheck>
    5430:	88 23       	and	r24, r24
    5432:	69 f1       	breq	.+90     	; 0x548e <IR_Decode+0x572>
  {
    if (PulseCheck(Time2, 17, IR_STD_TOLER))      /* pause 888Ás */
    5434:	40 e0       	ldi	r20, 0x00	; 0
    5436:	61 e1       	ldi	r22, 0x11	; 17
    5438:	8c 2f       	mov	r24, r28
    543a:	0e 94 2d 26 	call	0x4c5a	; 0x4c5a <PulseCheck>
    543e:	88 23       	and	r24, r24
    5440:	31 f1       	breq	.+76     	; 0x548e <IR_Decode+0x572>
    {
      Display_NL_EEString_Space(IR_RC6_str);      /* display protocol */
    5442:	81 e0       	ldi	r24, 0x01	; 1
    5444:	91 e0       	ldi	r25, 0x01	; 1
    5446:	0e 94 43 11 	call	0x2286	; 0x2286 <Display_NL_EEString_Space>
      Flag = PROTO_DETECTED;                 /* detected protocol */

      /* convert toggle bit to standard timing */
      Temp = SpecialBiPhasePulse(Pulse, PulsesLeft, 8, 8, 17);
    544a:	01 e1       	ldi	r16, 0x11	; 17
    544c:	28 e0       	ldi	r18, 0x08	; 8
    544e:	48 e0       	ldi	r20, 0x08	; 8
    5450:	6f 2d       	mov	r22, r15
    5452:	c6 01       	movw	r24, r12
    5454:	0e 94 1b 27 	call	0x4e36	; 0x4e36 <SpecialBiPhasePulse>

      if (Temp == 2)               /* we expect 1 special bit (= 2 pulses) */
    5458:	82 30       	cpi	r24, 0x02	; 2
    545a:	09 f0       	breq	.+2      	; 0x545e <IR_Decode+0x542>
    545c:	6b ce       	rjmp	.-810    	; 0x5134 <IR_Decode+0x218>
      {
        /* try to demodulate */
        Bits = BiPhase_Demod(Pulse, PulsesLeft, IR_THOMAS, 8, IR_RELAX_SHORT);
    545e:	01 e0       	ldi	r16, 0x01	; 1
    5460:	28 e0       	ldi	r18, 0x08	; 8
    5462:	42 e0       	ldi	r20, 0x02	; 2
    5464:	6f 2d       	mov	r22, r15
    5466:	c6 01       	movw	r24, r12
    5468:	0e 94 45 26 	call	0x4c8a	; 0x4c8a <BiPhase_Demod>

        if (Bits == 21)       /* we expect 21 bits */
    546c:	85 31       	cpi	r24, 0x15	; 21
    546e:	09 f0       	breq	.+2      	; 0x5472 <IR_Decode+0x556>
    5470:	61 ce       	rjmp	.-830    	; 0x5134 <IR_Decode+0x218>
        {
          Address = GetBits(6, 8, IR_MSB);   /* get address */
    5472:	42 e0       	ldi	r20, 0x02	; 2
    5474:	68 e0       	ldi	r22, 0x08	; 8
    5476:	86 e0       	ldi	r24, 0x06	; 6
    5478:	0e 94 61 27 	call	0x4ec2	; 0x4ec2 <GetBits>
    547c:	98 2e       	mov	r9, r24
          Command = GetBits(14, 8, IR_MSB);  /* get command */
    547e:	42 e0       	ldi	r20, 0x02	; 2
    5480:	68 e0       	ldi	r22, 0x08	; 8
    5482:	8e e0       	ldi	r24, 0x0E	; 14
    5484:	1b ce       	rjmp	.-970    	; 0x50bc <IR_Decode+0x1a0>
  if (Flag == PROTO_DETECTED)      /* bad packet */
  {
    Display_Char('?');             /* display: ? */
  }

  if (Flag == PACKET_DISPLAY)      /* known protocol & standard output */
    5486:	c3 30       	cpi	r28, 0x03	; 3
    5488:	09 f0       	breq	.+2      	; 0x548c <IR_Decode+0x570>
    548a:	d4 ce       	rjmp	.-600    	; 0x5234 <IR_Decode+0x318>
    548c:	92 cd       	rjmp	.-1244   	; 0x4fb2 <IR_Decode+0x96>

result:

  if (Flag == PROTO_UNKNOWN)       /* unknown protocol */
  {
    Display_NextLine();            /* new line */
    548e:	0e 94 ed 10 	call	0x21da	; 0x21da <Display_NextLine>
    Display_Value2(Pulses);        /* display number of pulses */
    5492:	61 2f       	mov	r22, r17
    5494:	70 e0       	ldi	r23, 0x00	; 0
    5496:	90 e0       	ldi	r25, 0x00	; 0
    5498:	80 e0       	ldi	r24, 0x00	; 0
    549a:	0e 94 00 12 	call	0x2400	; 0x2400 <Display_Value2>
    Display_Colon();               /* display: : */
    549e:	0e 94 2f 11 	call	0x225e	; 0x225e <Display_Colon>
    Display_Value2(Time1);         /* display time units of first pulse */
    54a2:	6d 2f       	mov	r22, r29
    54a4:	70 e0       	ldi	r23, 0x00	; 0
    54a6:	90 e0       	ldi	r25, 0x00	; 0
    54a8:	80 e0       	ldi	r24, 0x00	; 0
    54aa:	0e 94 00 12 	call	0x2400	; 0x2400 <Display_Value2>
    Display_Minus();               /* display: - */
    54ae:	0e 94 2b 11 	call	0x2256	; 0x2256 <Display_Minus>
    Display_Value2(Time2);         /* display time units of first pause */
    54b2:	6c 2f       	mov	r22, r28
    54b4:	70 e0       	ldi	r23, 0x00	; 0
    54b6:	90 e0       	ldi	r25, 0x00	; 0
    54b8:	80 e0       	ldi	r24, 0x00	; 0
    54ba:	0e 94 00 12 	call	0x2400	; 0x2400 <Display_Value2>
    54be:	ba ce       	rjmp	.-652    	; 0x5234 <IR_Decode+0x318>

000054c0 <IR_Detector>:
 *    probe #2  Vs/+5V (limit current by Rl)
 *    probe #3  Out/Data (inverted)
 */

void IR_Detector(void)
{
    54c0:	af 92       	push	r10
    54c2:	bf 92       	push	r11
    54c4:	df 92       	push	r13
    54c6:	ef 92       	push	r14
    54c8:	ff 92       	push	r15
    54ca:	0f 93       	push	r16
    54cc:	1f 93       	push	r17
    54ce:	cf 93       	push	r28
    54d0:	df 93       	push	r29
    54d2:	cd b7       	in	r28, 0x3d	; 61
    54d4:	de b7       	in	r29, 0x3e	; 62
    54d6:	c4 56       	subi	r28, 0x64	; 100
    54d8:	d1 09       	sbc	r29, r1
    54da:	0f b6       	in	r0, 0x3f	; 63
    54dc:	f8 94       	cli
    54de:	de bf       	out	0x3e, r29	; 62
    54e0:	0f be       	out	0x3f, r0	; 63
    54e2:	cd bf       	out	0x3d, r28	; 61
  uint8_t           Pulses = 0;         /* pulse counter */
  uint8_t           Period = 0;         /* pulse duration */
  uint8_t           *Pulse = NULL;      /* pointer to pulse data */
  uint8_t           PulseData[MAX_PULSES];  /* pulse duration data */     

  ShortCircuit(0);                      /* make sure probes are not shorted */
    54e4:	80 e0       	ldi	r24, 0x00	; 0
    54e6:	0e 94 4b 07 	call	0xe96	; 0xe96 <ShortCircuit>

  /* inform user */
  LCD_Clear();
    54ea:	0e 94 16 2b 	call	0x562c	; 0x562c <LCD_Clear>
  #ifdef UI_COLORED_TITLES
    /* display: IR detector */
    Display_ColoredEEString(IR_Detector_str, COLOR_TITLE);
  #else
    Display_EEString(IR_Detector_str);  /* display: IR detector */
    54ee:	8e ee       	ldi	r24, 0xEE	; 238
    54f0:	91 e0       	ldi	r25, 0x01	; 1
    54f2:	0e 94 0f 11 	call	0x221e	; 0x221e <Display_EEString>
  #endif
  UI.LineMode = LINE_KEEP;              /* next-line mode: keep first line */
    54f6:	82 e0       	ldi	r24, 0x02	; 2
    54f8:	80 93 1f 01 	sts	0x011F, r24	; 0x80011f <UI>

  #ifdef SW_IR_RECEIVER
    /* IR receiver connected to probes */
    /* display module pinout */
    Display_NextLine();
    54fc:	0e 94 ed 10 	call	0x21da	; 0x21da <Display_NextLine>
    #if defined (SW_IR_RX_PINOUT_G_V_D)
      /* pinout variant: 1 - Gnd / 2 - Vcc / 3 - Data */
      Show_SimplePinout('-', '+', 'd');
    5500:	44 e6       	ldi	r20, 0x64	; 100
    5502:	6b e2       	ldi	r22, 0x2B	; 43
    5504:	8d e2       	ldi	r24, 0x2D	; 45
    5506:	0e 94 95 00 	call	0x12a	; 0x12a <Show_SimplePinout>
    #else
      /* safe mode with current limiting resistor for Vs */
      #if defined (SW_IR_RX_PINOUT_G_V_D)
        /* pinout variant: 1 - Gnd / 2 - Vcc / 3 - Data */
        /* set probes: probe-1 -- Gnd / probe-2 -- Rl -- Vcc / probe-3 (HiZ) -- Rh -- Gnd */
        ADC_PORT = 0;                             /* pull down directly: */
    550a:	18 b8       	out	0x08, r1	; 8
        ADC_DDR = (1 << TP1);                     /* probe-1 */
    550c:	81 e0       	ldi	r24, 0x01	; 1
    550e:	87 b9       	out	0x07, r24	; 7
        /* pull up probe-2 via Rl, pull down probe-3 via Rh */
        R_DDR = (1 << R_RL_2) | (1 << R_RH_3);    /* enable resistors */
    5510:	80 e9       	ldi	r24, 0x90	; 144
    5512:	8a b9       	out	0x0a, r24	; 10
        R_PORT = (1 << R_RL_2);                   /* pull up probe-2, pull down probe-3 */
    5514:	80 e1       	ldi	r24, 0x10	; 16
    5516:	8b b9       	out	0x0b, r24	; 11
    /* fixed IR receiver */
    /* set data pin to input mode */
    IR_DDR &= ~(1 << IR_DATA);          /* clear bit for data pin */
  #endif

  wait10ms();                           /* time to settle */
    5518:	0e 94 28 2b 	call	0x5650	; 0x5650 <wait10ms>
  {
    #ifdef SW_IR_RECEIVER
      /* IR receiver connected to probes */
      #if defined (SW_IR_RX_PINOUT_G_V_D)
        /* pinout variant: 1 - Gnd / 2 - Vcc / 3 - Data */
        if (ADC_PIN & (1 << TP3))       /* check for high level */
    551c:	32 9b       	sbis	0x06, 2	; 6
    551e:	1f c0       	rjmp	.+62     	; 0x555e <IR_Detector+0x9e>
    5520:	11 e0       	ldi	r17, 0x01	; 1
        n = 0;                          /* end this loop */
      }
    }
  }

  LCD_ClearLine2();                /* clear line #2 */
    5522:	0e 94 50 11 	call	0x22a0	; 0x22a0 <LCD_ClearLine2>
  LCD_CharPos(1, 1);               /* move to first line */
    5526:	61 e0       	ldi	r22, 0x01	; 1
    5528:	81 e0       	ldi	r24, 0x01	; 1
    552a:	0e 94 17 2b 	call	0x562e	; 0x562e <LCD_CharPos>
  uint8_t           OldFlag = 0;        /* former IR signal */
  uint8_t           Cycles;             /* delay loop */
  uint8_t           n;                  /* counter */
  uint8_t           Pulses = 0;         /* pulse counter */
  uint8_t           Period = 0;         /* pulse duration */
  uint8_t           *Pulse = NULL;      /* pointer to pulse data */
    552e:	b1 2c       	mov	r11, r1
    5530:	a1 2c       	mov	r10, r1
  uint8_t           Flag;               /* IR signal */
  uint8_t           OldFlag = 0;        /* former IR signal */
  uint8_t           Cycles;             /* delay loop */
  uint8_t           n;                  /* counter */
  uint8_t           Pulses = 0;         /* pulse counter */
  uint8_t           Period = 0;         /* pulse duration */
    5532:	00 e0       	ldi	r16, 0x00	; 0
  uint8_t           Run = MODE_WAIT;    /* loop control */
  uint8_t           Flag;               /* IR signal */
  uint8_t           OldFlag = 0;        /* former IR signal */
  uint8_t           Cycles;             /* delay loop */
  uint8_t           n;                  /* counter */
  uint8_t           Pulses = 0;         /* pulse counter */
    5534:	e1 2c       	mov	r14, r1
  #define MODE_DECODE         3         /* decode packet */
  #define MODE_KEY            4         /* check test button */

  uint8_t           Run = MODE_WAIT;    /* loop control */
  uint8_t           Flag;               /* IR signal */
  uint8_t           OldFlag = 0;        /* former IR signal */
    5536:	d1 2c       	mov	r13, r1
   *  we sample IR data every 50Ás and log how long each pulse or pause
   *  lasts. A pulse/pause exceeding 12ms triggers a timeout and won't
   *  be logged.
   */

  while (Run > 0)             /* processing loop */
    5538:	11 11       	cpse	r17, r1
    553a:	1a c0       	rjmp	.+52     	; 0x5570 <IR_Detector+0xb0>

  #undef MODE_WAIT
  #undef MODE_SAMPLE
  #undef MODE_DECODE
  #undef MODE_KEY
}
    553c:	cc 59       	subi	r28, 0x9C	; 156
    553e:	df 4f       	sbci	r29, 0xFF	; 255
    5540:	0f b6       	in	r0, 0x3f	; 63
    5542:	f8 94       	cli
    5544:	de bf       	out	0x3e, r29	; 62
    5546:	0f be       	out	0x3f, r0	; 63
    5548:	cd bf       	out	0x3d, r28	; 61
    554a:	df 91       	pop	r29
    554c:	cf 91       	pop	r28
    554e:	1f 91       	pop	r17
    5550:	0f 91       	pop	r16
    5552:	ff 90       	pop	r15
    5554:	ef 90       	pop	r14
    5556:	df 90       	pop	r13
    5558:	bf 90       	pop	r11
    555a:	af 90       	pop	r10
    555c:	08 95       	ret
      n = 0;                            /* end this loop */
    }
    else                           /* check test key */
    {
      /* wait 100ms for key press */
      Flag = TestKey(100, CHECK_BAT);
    555e:	60 e1       	ldi	r22, 0x10	; 16
    5560:	84 e6       	ldi	r24, 0x64	; 100
    5562:	90 e0       	ldi	r25, 0x00	; 0
    5564:	0e 94 0f 2b 	call	0x561e	; 0x561e <brutzelboy_get_key>
      /* also delay for next loop run */

      if (Flag)                         /* key pressed */
    5568:	88 23       	and	r24, r24
    556a:	c1 f2       	breq	.-80     	; 0x551c <IR_Detector+0x5c>
      {
        Run = 0;                        /* skip decoder loop */
    556c:	10 e0       	ldi	r17, 0x00	; 0
    556e:	d9 cf       	rjmp	.-78     	; 0x5522 <IR_Detector+0x62>
   
    #ifdef SW_IR_RECEIVER
      /* IR receiver connected to probes */
      #if defined (SW_IR_RX_PINOUT_G_V_D)
        /* pinout variant: 1 - Gnd / 2 - Vcc / 3 - Data */
        Flag = ADC_PIN & (1 << TP3);         /* poll data pin */
    5570:	86 b1       	in	r24, 0x06	; 6
    5572:	84 70       	andi	r24, 0x04	; 4
    5574:	f8 2e       	mov	r15, r24
    /*
     *  control logic for sampling
     *  - wait for new packet and sample
     */

    if (Run == MODE_WAIT)     /* wait for IR data */
    5576:	11 30       	cpi	r17, 0x01	; 1
    5578:	21 f4       	brne	.+8      	; 0x5582 <IR_Detector+0xc2>
    {
      if (!Flag)              /* got IR signal */
    557a:	88 23       	and	r24, r24
    557c:	21 f1       	breq	.+72     	; 0x55c6 <IR_Detector+0x106>
     *  manage tasks
     */

    if (Run == MODE_SAMPLE)             /* sampling mode */
    {
      wait40us();             /* wait sampling period */
    557e:	11 e0       	ldi	r17, 0x01	; 1
    5580:	30 c0       	rjmp	.+96     	; 0x55e2 <IR_Detector+0x122>
        Run = MODE_KEY;            /* check for test key */
      }
    }
    else                      /* sample IR data */
    {
      if (Flag == OldFlag)    /* same pause/pulse */
    5582:	d8 12       	cpse	r13, r24
    5584:	0c c0       	rjmp	.+24     	; 0x559e <IR_Detector+0xde>
      {
        Period++;             /* increase period */
    5586:	0f 5f       	subi	r16, 0xFF	; 255

        if (Period > 240)     /* 12ms timeout */
    5588:	01 3f       	cpi	r16, 0xF1	; 241
    558a:	88 f0       	brcs	.+34     	; 0x55ae <IR_Detector+0xee>
        {
          Run = MODE_DECODE;       /* switch to decoding mode */

          if (!Flag)               /* removed receiver module */
    558c:	dd 20       	and	r13, r13
    558e:	b9 f3       	breq	.-18     	; 0x557e <IR_Detector+0xbe>
        asm volatile("nop\n\t"::);
      }
    }
    else if (Run == MODE_DECODE)        /* decoding mode */
    {
      IR_Decode(&PulseData[0], Pulses);    /* try to decode */
    5590:	6e 2d       	mov	r22, r14
    5592:	ce 01       	movw	r24, r28
    5594:	01 96       	adiw	r24, 0x01	; 1
    5596:	0e 94 8e 27 	call	0x4f1c	; 0x4f1c <IR_Decode>
      Run = MODE_WAIT;                     /* switch back to waiting mode */
    559a:	11 e0       	ldi	r17, 0x01	; 1
    559c:	11 c0       	rjmp	.+34     	; 0x55c0 <IR_Detector+0x100>
      }
      else                    /* new pause/pulse */
      {
        OldFlag = Flag;       /* update flag */

        if (Pulses < MAX_PULSES)   /* prevent buffer overflow */
    559e:	83 e6       	ldi	r24, 0x63	; 99
    55a0:	8e 15       	cp	r24, r14
    55a2:	b0 f3       	brcs	.-20     	; 0x5590 <IR_Detector+0xd0>
        {
          Pulses++;                /* got another one */
    55a4:	e3 94       	inc	r14
          *Pulse = Period;         /* save duration */
    55a6:	f5 01       	movw	r30, r10
    55a8:	01 93       	st	Z+, r16
    55aa:	5f 01       	movw	r10, r30
          Pulse++;                 /* next one */
          Period = 0;              /* reset duration */
    55ac:	00 e0       	ldi	r16, 0x00	; 0

    /*
     *  manage tasks
     */

    if (Run == MODE_SAMPLE)             /* sampling mode */
    55ae:	12 30       	cpi	r17, 0x02	; 2
    55b0:	81 f4       	brne	.+32     	; 0x55d2 <IR_Detector+0x112>
    {
      wait40us();             /* wait sampling period */
    55b2:	0e 94 34 2b 	call	0x5668	; 0x5668 <wait40us>
    55b6:	8e e0       	ldi	r24, 0x0E	; 14

      n = Cycles;             /* number loop runs */
      while (n > 0)           /* waiting loop */
      {
        n--;
        asm volatile("nop\n\t"::);
    55b8:	00 00       	nop
    55ba:	81 50       	subi	r24, 0x01	; 1
       *  - a loop run needs 4 cycles, the last loop run just 3
       *  - time delay: 10Ás - 1 MCU cycle
       */

      n = Cycles;             /* number loop runs */
      while (n > 0)           /* waiting loop */
    55bc:	e9 f7       	brne	.-6      	; 0x55b8 <IR_Detector+0xf8>
    55be:	12 e0       	ldi	r17, 0x02	; 2
        MilliSleep(50);            /* take a nap */
        Run = 0;                   /* end loop */
      }
    }

    wdt_reset();                   /* reset watchdog */
    55c0:	a8 95       	wdr
    55c2:	df 2c       	mov	r13, r15
    55c4:	b9 cf       	rjmp	.-142    	; 0x5538 <IR_Detector+0x78>
      if (!Flag)              /* got IR signal */
      {
        Run = MODE_SAMPLE;         /* start sampling */
        OldFlag = Flag;            /* first one is always a pulse */
        Pulses = 0;                /* reset pulse counter */
        Period = 0;                /* reset duration */
    55c6:	00 e0       	ldi	r16, 0x00	; 0
    {
      if (!Flag)              /* got IR signal */
      {
        Run = MODE_SAMPLE;         /* start sampling */
        OldFlag = Flag;            /* first one is always a pulse */
        Pulses = 0;                /* reset pulse counter */
    55c8:	e1 2c       	mov	r14, r1
        Period = 0;                /* reset duration */
        Pulse = &PulseData[0];     /* set start address */
    55ca:	ce 01       	movw	r24, r28
    55cc:	01 96       	adiw	r24, 0x01	; 1
    55ce:	5c 01       	movw	r10, r24
    55d0:	f0 cf       	rjmp	.-32     	; 0x55b2 <IR_Detector+0xf2>
      {
        n--;
        asm volatile("nop\n\t"::);
      }
    }
    else if (Run == MODE_DECODE)        /* decoding mode */
    55d2:	13 30       	cpi	r17, 0x03	; 3
    55d4:	a9 f7       	brne	.-22     	; 0x55c0 <IR_Detector+0x100>
    55d6:	dc cf       	rjmp	.-72     	; 0x5590 <IR_Detector+0xd0>
      Run = MODE_WAIT;                     /* switch back to waiting mode */

      /* check test button */
      while (!(BUTTON_PIN & (1 << TEST_BUTTON)))  /* key pressed */
      {
        MilliSleep(50);            /* take a nap */
    55d8:	82 e3       	ldi	r24, 0x32	; 50
    55da:	90 e0       	ldi	r25, 0x00	; 0
    55dc:	0e 94 0b 09 	call	0x1216	; 0x1216 <MilliSleep>
        Run = 0;                   /* end loop */
    55e0:	10 e0       	ldi	r17, 0x00	; 0
    else if (Run == MODE_KEY)           /* check for test key */
    {
      Run = MODE_WAIT;                     /* switch back to waiting mode */

      /* check test button */
      while (!(BUTTON_PIN & (1 << TEST_BUTTON)))  /* key pressed */
    55e2:	33 9b       	sbis	0x06, 3	; 6
    55e4:	f9 cf       	rjmp	.-14     	; 0x55d8 <IR_Detector+0x118>
    55e6:	fd 2c       	mov	r15, r13
    55e8:	eb cf       	rjmp	.-42     	; 0x55c0 <IR_Detector+0x100>

000055ea <LCD_Init>:
#include "config.h"

// Initialisierung der Ports f├╝r den Bus
void LCD_Init(void) {
    // Port B (Daten) als Ausgang
    DDRB = 0xFF;
    55ea:	8f ef       	ldi	r24, 0xFF	; 255
    55ec:	84 b9       	out	0x04, r24	; 4
    // Port E (ID) PE0-PE3 als Ausgang
    DDRE |= 0x0F;
    55ee:	8d b1       	in	r24, 0x0d	; 13
    55f0:	8f 60       	ori	r24, 0x0F	; 15
    55f2:	8d b9       	out	0x0d, r24	; 13
    // Port C: PC4 (WR) als Ausgang, PC5 (RD) als Eingang
    DDRC |= (1 << PC4);
    55f4:	3c 9a       	sbi	0x07, 4	; 7
    DDRC &= ~(1 << PC5);
    55f6:	3d 98       	cbi	0x07, 5	; 7
    // Initial-Pegel: WR auf High
    PORTC |= (1 << PC4);
    55f8:	44 9a       	sbi	0x08, 4	; 8
}
    55fa:	08 95       	ret

000055fc <LCD_Char>:

// Die zentrale Sendefunktion
void LCD_Char(unsigned char data) {
    // ID 0 = Text/Daten (Beispiel)
    PORTE = (PORTE & 0xF0) | 0x00;
    55fc:	9e b1       	in	r25, 0x0e	; 14
    55fe:	90 7f       	andi	r25, 0xF0	; 240
    5600:	9e b9       	out	0x0e, r25	; 14
    PORTB = data;
    5602:	85 b9       	out	0x05, r24	; 5

    // Handshake
    PORTC &= ~(1 << PC4);           // WR Low
    5604:	44 98       	cbi	0x08, 4	; 8
    while (PINC & (1 << PC5));      // Warten auf ACK vom ESP32 (RD Low)
    5606:	35 99       	sbic	0x06, 5	; 6
    5608:	fe cf       	rjmp	.-4      	; 0x5606 <LCD_Char+0xa>
    PORTC |= (1 << PC4);            // WR High
    560a:	44 9a       	sbi	0x08, 4	; 8
    while (!(PINC & (1 << PC5)));   // Warten auf Freigabe (RD High)
    560c:	35 9b       	sbis	0x06, 5	; 6
    560e:	fe cf       	rjmp	.-4      	; 0x560c <LCD_Char+0x10>
}
    5610:	08 95       	ret

00005612 <LCD_test_command>:

// Dummy f├╝r Befehle
void LCD_test_command(unsigned char cmd) {
    // Gleiche Logik wie Char, nur mit ID 1 (Befehl)
    PORTE = (PORTE & 0xF0) | 0x01;
    5612:	9e b1       	in	r25, 0x0e	; 14
    5614:	90 7f       	andi	r25, 0xF0	; 240
    5616:	91 60       	ori	r25, 0x01	; 1
    5618:	9e b9       	out	0x0e, r25	; 14
    PORTB = cmd;
    561a:	85 b9       	out	0x05, r24	; 5
    // ... Handshake wie oben ...
}
    561c:	08 95       	ret

0000561e <brutzelboy_get_key>:

// Deine "Fernsteuerung" vom ESP32
unsigned char brutzelboy_get_key(uint16_t Timeout, uint8_t Mode) {
    // Wenn RD (PC5) vom ESP32 auf LOW gezogen wird (au├ƒerhalb eines Sendevorgangs)
    // interpretiert der ATmega das als Tastendruck
    if (!(PINC & (1 << PC5))) {
    561e:	35 99       	sbic	0x06, 5	; 6
    5620:	02 c0       	rjmp	.+4      	; 0x5626 <brutzelboy_get_key+0x8>
        return PINB; // Das Zeichen vom Datenbus lesen
    5622:	83 b1       	in	r24, 0x03	; 3
    5624:	08 95       	ret
    }
    return 0;
    5626:	80 e0       	ldi	r24, 0x00	; 0
}
    5628:	08 95       	ret

0000562a <LCD_BusSetup>:

void LCD_BusSetup(void) {
    /* Hier kommt dein Code rein, um die Pins f├╝r das Display zu initialisieren */
}
    562a:	08 95       	ret

0000562c <LCD_Clear>:
    562c:	08 95       	ret

0000562e <LCD_CharPos>:
    562e:	08 95       	ret

00005630 <LCD_ClearLine>:
    5630:	08 95       	ret

00005632 <wait5s>:
/*
 *  20Ás and up (clock rate independent)
 */

wait5s:
 rcall wait1s		;1s	12+x return addresses
    5632:	03 d0       	rcall	.+6      	; 0x563a <wait1000ms>

00005634 <wait4s>:
;proceed with wait4s	;+4s

wait4s:
 rcall wait1s		;1s	12+x return addresses
    5634:	02 d0       	rcall	.+4      	; 0x563a <wait1000ms>

00005636 <wait3s>:
;proceed with wait3s	;+3s

wait3s:
 rcall wait1s		;1s	12+x return addresses
    5636:	01 d0       	rcall	.+2      	; 0x563a <wait1000ms>

00005638 <wait2s>:
;proceed with wait2s	;+2s

wait2s:
 rcall wait1s		;1s     12+x return addresses
    5638:	00 d0       	rcall	.+0      	; 0x563a <wait1000ms>

0000563a <wait1000ms>:
;proceed with wait1s	;+1s

wait1s:
wait1000ms:	
 rcall wait500ms	;500ms	11+x return addresses
    563a:	00 d0       	rcall	.+0      	; 0x563c <wait500ms>

0000563c <wait500ms>:
;proceed with wait500ms	;+500ms	

wait500ms:
 rcall wait100ms	;100ms	10+x return addresses
    563c:	03 d0       	rcall	.+6      	; 0x5644 <wait100ms>

0000563e <wait400ms>:
;proceed with wait400ms	;+400ms

wait400ms:
 rcall wait100ms	;100ms	10+x return addresses
    563e:	02 d0       	rcall	.+4      	; 0x5644 <wait100ms>

00005640 <wait300ms>:
;proceed with wait300ms	;+300ms

wait300ms:
 rcall wait100ms        ;100ms	10+x return addresses
    5640:	01 d0       	rcall	.+2      	; 0x5644 <wait100ms>

00005642 <wait200ms>:
;proceed with wait200ms	;+200ms

wait200ms:
 rcall wait100ms	;100ms	10+x return addresses
    5642:	00 d0       	rcall	.+0      	; 0x5644 <wait100ms>

00005644 <wait100ms>:
;proceed with wait100ms ;+100ms

wait100ms:
 wdr			;reset watchdog every 100ms!
    5644:	a8 95       	wdr
 rcall wait50ms	    	;50ms	9+x return addresses
    5646:	00 d0       	rcall	.+0      	; 0x5648 <wait50ms>

00005648 <wait50ms>:
;proceed with wait50ms 	;+50ms

wait50ms:
 rcall wait10ms	    	;10ms	8+x return addresses 
    5648:	03 d0       	rcall	.+6      	; 0x5650 <wait10ms>

0000564a <wait40ms>:
;proceed with wait40ms	;+40ms

wait40ms:
 rcall wait10ms	    	;10ms	8+x return addresses
    564a:	02 d0       	rcall	.+4      	; 0x5650 <wait10ms>

0000564c <wait30ms>:
;proceed with wait30us 	;+30ms

wait30ms:
 rcall wait10ms	    	;10ms	8+x return addresses
    564c:	01 d0       	rcall	.+2      	; 0x5650 <wait10ms>

0000564e <wait20ms>:
;proceed with wait20us 	;+20ms

wait20ms:
 rcall wait10ms	    	;10ms	8+x return addresses
    564e:	00 d0       	rcall	.+0      	; 0x5650 <wait10ms>

00005650 <wait10ms>:
;proceed with wait10ms	;+10ms

wait10ms:
 rcall wait5ms	   	;5ms	7+x return addresses
    5650:	00 d0       	rcall	.+0      	; 0x5652 <wait5ms>

00005652 <wait5ms>:
;proceed with wait5ms	;+5ms

wait5ms:
 rcall wait1ms	   	;1ms	6+x return addresses
    5652:	03 d0       	rcall	.+6      	; 0x565a <wait1ms>

00005654 <wait4ms>:
;proceed with wait4ms	;+4ms

wait4ms:
 rcall wait1ms	   	;1ms	6+x return addresses
    5654:	02 d0       	rcall	.+4      	; 0x565a <wait1ms>

00005656 <wait3ms>:
;proceed with wait3ms	;+3ms	

wait3ms:
 rcall wait1ms	   	;1ms	6+x return addresses
    5656:	01 d0       	rcall	.+2      	; 0x565a <wait1ms>

00005658 <wait2ms>:
;proceed with wait2ms	;+2ms

wait2ms:
 rcall wait1ms	   	;1ms	6+x return addresses
    5658:	00 d0       	rcall	.+0      	; 0x565a <wait1ms>

0000565a <wait1ms>:
;proceed with wait1ms	;+1ms

wait1ms:
 rcall wait500us    	;500Ás	5+x return addresses
    565a:	00 d0       	rcall	.+0      	; 0x565c <wait500us>

0000565c <wait500us>:
;laeuft in wait500us	;+500Ás

wait500us:
 rcall wait100us    	;100Ás	4+x return addresses
    565c:	03 d0       	rcall	.+6      	; 0x5664 <wait100us>

0000565e <wait400us>:
;proceed with wait400us	;+400Ás

wait400us:
 rcall wait100us    	;100Ás	4+x return addresses
    565e:	02 d0       	rcall	.+4      	; 0x5664 <wait100us>

00005660 <wait300us>:
;proceed with wait300us	;+300Ás

wait300us:
 rcall wait100us    	;100Ás	4+x return addresses
    5660:	01 d0       	rcall	.+2      	; 0x5664 <wait100us>

00005662 <wait200us>:
;proceed with wait200us	;+200Ás

wait200us:
 rcall wait100us    	;100Ás	4+x return addresses
    5662:	00 d0       	rcall	.+0      	; 0x5664 <wait100us>

00005664 <wait100us>:
;proceed with wait100us	;+100Ás	

wait100us:
 rcall wait50us	    	;50Ás	3+x return addresses
    5664:	00 d0       	rcall	.+0      	; 0x5666 <wait50us>

00005666 <wait50us>:
;proceed with wait50us	;+50Ás	

wait50us:
 rcall wait10us     	;10Ás	2+x return addresses
    5666:	03 d0       	rcall	.+6      	; 0x566e <wait10us>

00005668 <wait40us>:
;proceed with wait40us	;+40Ás

wait40us:
 rcall wait10us     	;10Ás	2+x return addresses
    5668:	02 d0       	rcall	.+4      	; 0x566e <wait10us>

0000566a <wait30us>:
;proceed with wait30us	;+30Ás

wait30us:
 rcall wait10us     	;10Ás	2+x return addresses
    566a:	01 d0       	rcall	.+2      	; 0x566e <wait10us>

0000566c <wait20us>:
;proceed with wait20us	;+20Ás

wait20us:
 rcall wait10us		;10Ás	2+x return addresses
    566c:	00 d0       	rcall	.+0      	; 0x566e <wait10us>

0000566e <wait10us>:
.global wait3us		;wait 3Ás
.global wait2us		;wait 2Ás
.global wait1us		;wait 1Ás

;wait10us
 rcall wait5us		;5Ás
    566e:	00 d0       	rcall	.+0      	; 0x5670 <wait5us>

00005670 <wait5us>:
;proceed with wait5us	;+5Ás

wait5us:
 rcall wait1us		;1Ás
    5670:	03 d0       	rcall	.+6      	; 0x5678 <wait1us>

00005672 <wait4us>:
;proceed with wait4us	;+4Ás

wait4us:
 rcall wait1us		;1Ás
    5672:	02 d0       	rcall	.+4      	; 0x5678 <wait1us>

00005674 <wait3us>:
;proceed with wait3us	;+3us

wait3us:
 rcall wait1us		;1Ás
    5674:	01 d0       	rcall	.+2      	; 0x5678 <wait1us>

00005676 <wait2us>:
;proceed with wait2us	;+2Ás

wait2us:
 rcall wait1us		;1Ás
    5676:	00 d0       	rcall	.+0      	; 0x5678 <wait1us>

00005678 <wait1us>:
;proceed with wait1us	;+1Ás

wait1us:
 nop			;1Ás
    5678:	00 00       	nop
 nop
 nop                    ;500ns
#endif


 ret
    567a:	08 95       	ret

0000567c <main>:
/*
 *  main function
 */

int main(void)
{
    567c:	1f 93       	push	r17
    567e:	cf 93       	push	r28
    5680:	df 93       	push	r29
      POWER_PORT = (1 << POWER_CTRL);       /* set pin high to drive power management transistor */
    #endif
  #endif

  /* set up MCU */
  MCUCR = (1 << PUD);                   /* disable pull-up resistors globally */
    5682:	80 e1       	ldi	r24, 0x10	; 16
    5684:	85 bf       	out	0x35, r24	; 53
  ADCSRA = (1 << ADEN) | ADC_CLOCK_DIV; /* enable ADC and set clock divider */
    5686:	86 e8       	ldi	r24, 0x86	; 134
    5688:	80 93 7a 00 	sts	0x007A, r24	; 0x80007a <__TEXT_REGION_LENGTH__+0x7f807a>
                                        /* ADC_PORT should be 0 */
  ADC_DDR = (1 << TP_REF);              /* disable relay */
  #endif

  /* catch watchdog */  
  Test = (MCUSR & (1 << WDRF));         /* save watchdog flag */
    568c:	c4 b7       	in	r28, 0x34	; 52
    568e:	c8 70       	andi	r28, 0x08	; 8
  MCUSR &= ~(1 << WDRF);                /* reset watchdog flag */
    5690:	84 b7       	in	r24, 0x34	; 52
    5692:	87 7f       	andi	r24, 0xF7	; 247
    5694:	84 bf       	out	0x34, r24	; 52
    5696:	0f b6       	in	r0, 0x3f	; 63
    5698:	f8 94       	cli
    569a:	a8 95       	wdr
    569c:	80 91 60 00 	lds	r24, 0x0060	; 0x800060 <__TEXT_REGION_LENGTH__+0x7f8060>
    56a0:	88 61       	ori	r24, 0x18	; 24
    56a2:	80 93 60 00 	sts	0x0060, r24	; 0x800060 <__TEXT_REGION_LENGTH__+0x7f8060>
    56a6:	10 92 60 00 	sts	0x0060, r1	; 0x800060 <__TEXT_REGION_LENGTH__+0x7f8060>
    56aa:	0f be       	out	0x3f, r0	; 63
  #if defined (UI_AUTOHOLD) || defined (UI_SERIAL_COMMANDS)
    /* reset mode/state flags and set auto-hold mode */
    Cfg.OP_Mode = OP_AUTOHOLD;          /* set auto-hold */
  #else
    /* reset mode/state flags and set continuous mode */
    Cfg.OP_Mode = OP_NONE;              /* none = continuous */
    56ac:	10 92 86 01 	sts	0x0186, r1	; 0x800186 <Cfg>
  #endif
  Cfg.OP_Control = OP_OUT_LCD;          /* reset control/signal flags */
    56b0:	82 e0       	ldi	r24, 0x02	; 2
    56b2:	80 93 87 01 	sts	0x0187, r24	; 0x800187 <Cfg+0x1>
                                        /* enable output to display */
  #ifdef SAVE_POWER
  Cfg.SleepMode = SLEEP_MODE_PWR_SAVE;  /* sleep mode: power save */
    56b6:	86 e0       	ldi	r24, 0x06	; 6
    56b8:	80 93 88 01 	sts	0x0188, r24	; 0x800188 <Cfg+0x2>
  /* hardware or bitbang SPI */
  SPI_Setup();                          /* set up SPI bus */
  #endif

  /* display module */
  LCD_BusSetup();                       /* set up display bus */
    56bc:	0e 94 15 2b 	call	0x562a	; 0x562a <LCD_BusSetup>
   *  - Does only work if the capacitor at the base of the power management
   *    transistor is large enough to survive a MCU reset. Otherwise the
   *    tester simply loses power.
   */

  if (Test)
    56c0:	cc 23       	and	r28, r28
    56c2:	f9 f0       	breq	.+62     	; 0x5702 <main+0x86>
     *  inform user
     *  - Display was initialized before but some global variables in the
     *    driver might be zeroed. Drivers with line tracking won't clear screen.
     */

    LCD_Clear();                        /* clear display */
    56c4:	0e 94 16 2b 	call	0x562c	; 0x562c <LCD_Clear>
    #ifdef UI_CENTER_ALIGN
      Display_CenterLine(2);                 /* center block: 2 lines */
      Display_EEString_Center(Timeout_str);  /* display: timeout */
      Display_NL_EEString_Center(Error_str); /* display: error */
    #else
      Display_EEString(Timeout_str);    /* display: timeout */
    56c8:	8a ea       	ldi	r24, 0xAA	; 170
    56ca:	92 e0       	ldi	r25, 0x02	; 2
    56cc:	0e 94 0f 11 	call	0x221e	; 0x221e <Display_EEString>
      Display_NL_EEString(Error_str);   /* display: error */
    56d0:	8b e3       	ldi	r24, 0x3B	; 59
    56d2:	92 e0       	ldi	r25, 0x02	; 2
    56d4:	0e 94 38 11 	call	0x2270	; 0x2270 <Display_NL_EEString>
    #endif
    MilliSleep(2000);                   /* give user some time to read */
    56d8:	80 ed       	ldi	r24, 0xD0	; 208
    56da:	97 e0       	ldi	r25, 0x07	; 7
    56dc:	0e 94 0b 09 	call	0x1216	; 0x1216 <MilliSleep>
      POWER_DDR |= (1 << POWER_CTRL);        /* set pin to output mode */
      #endif
    #elif defined (POWER_SWITCH_MANUAL)
      /* enter sleep mode to prevent any further action */
      /* user should power off tester */
      set_sleep_mode(SLEEP_MODE_PWR_DOWN);   /* set sleep mode to "power down" */
    56e0:	83 b7       	in	r24, 0x33	; 51
    56e2:	81 7f       	andi	r24, 0xF1	; 241
    56e4:	84 60       	ori	r24, 0x04	; 4
    56e6:	83 bf       	out	0x33, r24	; 51
      sleep_mode();                          /* enter sleep mode */
    56e8:	83 b7       	in	r24, 0x33	; 51
    56ea:	81 60       	ori	r24, 0x01	; 1
    56ec:	83 bf       	out	0x33, r24	; 51
    56ee:	88 95       	sleep
    56f0:	83 b7       	in	r24, 0x33	; 51
    56f2:	8e 7f       	andi	r24, 0xFE	; 254
    56f4:	83 bf       	out	0x33, r24	; 51
  {
    goto cycle_start;              /* next round */
  }

  return 0;
}
    56f6:	90 e0       	ldi	r25, 0x00	; 0
    56f8:	80 e0       	ldi	r24, 0x00	; 0
    56fa:	df 91       	pop	r29
    56fc:	cf 91       	pop	r28
    56fe:	1f 91       	pop	r17
    5700:	08 95       	ret
   */

  Key = 0;                              /* reset key press type */

  /* catch key press */
  if (!(BUTTON_PIN & (1 << TEST_BUTTON)))    /* test button pressed */
    5702:	33 9b       	sbis	0x06, 3	; 6
    5704:	d5 c0       	rjmp	.+426    	; 0x58b0 <main+0x234>

  #ifdef SW_DISPLAY_ID
  Cfg.DisplayID = 0;                    /* reset display ID */
  #endif

  LCD_Init();                           /* initialize LCD */
    5706:	0e 94 f5 2a 	call	0x55ea	; 0x55ea <LCD_Init>

  UI.LineMode = LINE_STD;               /* reset next-line mode */
    570a:	10 92 1f 01 	sts	0x011F, r1	; 0x80011f <UI>

  /*
   *  load saved adjustment offsets and values
   */

  if (Key == KEY_DEFAULTS)         /* set defaults (key press >2s) */
    570e:	ca 36       	cpi	r28, 0x6A	; 106
    5710:	09 f0       	breq	.+2      	; 0x5714 <main+0x98>
    5712:	da c0       	rjmp	.+436    	; 0x58c8 <main+0x24c>
  {
    SetAdjustmentDefaults();            /* set default values */
    5714:	0e 94 69 09 	call	0x12d2	; 0x12d2 <SetAdjustmentDefaults>
  #ifdef UI_CENTER_ALIGN
    Display_CenterLine(2);                   /* center block: 2 lines */
    Display_EEString_Center(Tester_str);     /* display: Component Tester */
    Display_NL_EEString_Center(Version_str); /* display firmware version */
  #else
    Display_EEString(Tester_str);       /* display: Component Tester */
    5718:	8d eb       	ldi	r24, 0xBD	; 189
    571a:	92 e0       	ldi	r25, 0x02	; 2
    571c:	0e 94 0f 11 	call	0x221e	; 0x221e <Display_EEString>
    Display_NL_EEString(Version_str);   /* display firmware version */
    5720:	87 ec       	ldi	r24, 0xC7	; 199
    5722:	91 e0       	ldi	r25, 0x01	; 1
    5724:	0e 94 38 11 	call	0x2270	; 0x2270 <Display_NL_EEString>

  #ifdef LCD_COLOR
  UI.PenColor = COLOR_PEN;              /* set pen color */
  #endif

  MilliSleep(1500);                     /* let the user read the display */
    5728:	8c ed       	ldi	r24, 0xDC	; 220
    572a:	95 e0       	ldi	r25, 0x05	; 5
    572c:	0e 94 0b 09 	call	0x1216	; 0x1216 <MilliSleep>
   *  init variables
   */

  /* cycling */
  #if CYCLE_MAX < 255
  MissedParts = 0;                      /* reset counter */
    5730:	10 92 93 01 	sts	0x0193, r1	; 0x800193 <MissedParts>
  #endif
  Key = KEY_POWER_ON;                   /* just powered on */

  /* default offsets and values */
  Cfg.Samples = ADC_SAMPLES;            /* number of ADC samples */
    5734:	89 e1       	ldi	r24, 0x19	; 25
    5736:	80 93 89 01 	sts	0x0189, r24	; 0x800189 <Cfg+0x3>
  Cfg.AutoScale = 1;                    /* enable ADC auto scaling */
    573a:	81 e0       	ldi	r24, 0x01	; 1
    573c:	80 93 8a 01 	sts	0x018A, r24	; 0x80018a <Cfg+0x4>
  Cfg.Ref = 1;                          /* no ADC reference set yet */
    5740:	80 93 8b 01 	sts	0x018B, r24	; 0x80018b <Cfg+0x5>
  Cfg.Vcc = UREF_VCC;                   /* voltage of Vcc */
    5744:	89 e8       	ldi	r24, 0x89	; 137
    5746:	93 e1       	ldi	r25, 0x13	; 19
    5748:	90 93 8f 01 	sts	0x018F, r25	; 0x80018f <Cfg+0x9>
    574c:	80 93 8e 01 	sts	0x018E, r24	; 0x80018e <Cfg+0x8>
				: "r0"
		);
	}
	else
	{
		__asm__ __volatile__ (
    5750:	88 e1       	ldi	r24, 0x18	; 24
    5752:	9f e0       	ldi	r25, 0x0F	; 15
    5754:	0f b6       	in	r0, 0x3f	; 63
    5756:	f8 94       	cli
    5758:	a8 95       	wdr
    575a:	80 93 60 00 	sts	0x0060, r24	; 0x800060 <__TEXT_REGION_LENGTH__+0x7f8060>
    575e:	0f be       	out	0x3f, r0	; 63
    5760:	90 93 60 00 	sts	0x0060, r25	; 0x800060 <__TEXT_REGION_LENGTH__+0x7f8060>

  /*
   *  interrupts
   */

  sei();                           /* enable interrupts */
    5764:	78 94       	sei
     *  This also enables the discharge relay via the external reference
     *  and removes the short circuit.
     */
  #endif

  UI.LineMode = LINE_KEEP;              /* next-line mode: keep first line */
    5766:	c2 e0       	ldi	r28, 0x02	; 2
  if (Key == KEY_PROBE)            /* probing by command */
  {
    Test = LINE_KEEP;              /* don't wait for key/timeout */
  }
  #endif
  UI.LineMode = Test;              /* change mode */
    5768:	d3 e0       	ldi	r29, 0x03	; 3
   */

cycle_start:

  /* reset variables */
  Check.Found = COMP_NONE;         /* no component */
    576a:	10 92 01 01 	sts	0x0101, r1	; 0x800101 <Check>
  Check.Type = 0;                  /* reset type flags */
    576e:	10 92 02 01 	sts	0x0102, r1	; 0x800102 <Check+0x1>
  Check.Done = DONE_NONE;          /* no transistor */
    5772:	10 92 03 01 	sts	0x0103, r1	; 0x800103 <Check+0x2>
  Check.AltFound = COMP_NONE;      /* no alternative component */
    5776:	10 92 04 01 	sts	0x0104, r1	; 0x800104 <Check+0x3>
  Check.Diodes = 0;                /* reset diode counter */
    577a:	10 92 06 01 	sts	0x0106, r1	; 0x800106 <Check+0x5>
  Check.Resistors = 0;             /* reset resistor counter */
    577e:	10 92 05 01 	sts	0x0105, r1	; 0x800105 <Check+0x4>
  Semi.Flags = 0;                  /* reset flags */
    5782:	10 92 a0 01 	sts	0x01A0, r1	; 0x8001a0 <Semi+0x6>
  Semi.U_1 = 0;                    /* reset values */
    5786:	10 92 a2 01 	sts	0x01A2, r1	; 0x8001a2 <Semi+0x8>
    578a:	10 92 a1 01 	sts	0x01A1, r1	; 0x8001a1 <Semi+0x7>
  Semi.U_2 = 0;
    578e:	10 92 a4 01 	sts	0x01A4, r1	; 0x8001a4 <Semi+0xa>
    5792:	10 92 a3 01 	sts	0x01A3, r1	; 0x8001a3 <Semi+0x9>
  Semi.U_3 = 0;
    5796:	10 92 a6 01 	sts	0x01A6, r1	; 0x8001a6 <Semi+0xc>
    579a:	10 92 a5 01 	sts	0x01A5, r1	; 0x8001a5 <Semi+0xb>
  Semi.F_1 = 0;
    579e:	10 92 a7 01 	sts	0x01A7, r1	; 0x8001a7 <Semi+0xd>
    57a2:	10 92 a8 01 	sts	0x01A8, r1	; 0x8001a8 <Semi+0xe>
    57a6:	10 92 a9 01 	sts	0x01A9, r1	; 0x8001a9 <Semi+0xf>
    57aa:	10 92 aa 01 	sts	0x01AA, r1	; 0x8001aa <Semi+0x10>
  #ifdef SW_REVERSE_HFE
  Semi.F_2 = 0;
  #endif
  Semi.I_value = 0;
    57ae:	10 92 ab 01 	sts	0x01AB, r1	; 0x8001ab <Semi+0x11>
    57b2:	10 92 ac 01 	sts	0x01AC, r1	; 0x8001ac <Semi+0x12>
    57b6:	10 92 ad 01 	sts	0x01AD, r1	; 0x8001ad <Semi+0x13>
    57ba:	10 92 ae 01 	sts	0x01AE, r1	; 0x8001ae <Semi+0x14>
  AltSemi.U_1 = 0;
    57be:	10 92 29 01 	sts	0x0129, r1	; 0x800129 <AltSemi+0x4>
    57c2:	10 92 28 01 	sts	0x0128, r1	; 0x800128 <AltSemi+0x3>
  AltSemi.U_2 = 0;
    57c6:	10 92 2b 01 	sts	0x012B, r1	; 0x80012b <AltSemi+0x6>
    57ca:	10 92 2a 01 	sts	0x012A, r1	; 0x80012a <AltSemi+0x5>
  #ifdef SW_SYMBOLS
  UI.SymbolLine = 3;               /* default: line #3 */
  #endif

  /* reset hardware */
  ADC_DDR = 0;                     /* set all pins of ADC port as input */
    57ce:	17 b8       	out	0x07, r1	; 7
     *  This also enables the discharge relay via the external reference
     *  and removes the short circuit.
     */
  #endif

  UI.LineMode = LINE_KEEP;              /* next-line mode: keep first line */
    57d0:	c0 93 1f 01 	sts	0x011F, r28	; 0x80011f <UI>
  LCD_Clear();                          /* clear LCD */
    57d4:	0e 94 16 2b 	call	0x562c	; 0x562c <LCD_Clear>

  /*
   *  voltage references
   */

  CheckVoltageRefs();                   /* manage voltage references */
    57d8:	0e 94 ff 05 	call	0xbfe	; 0xbfe <CheckVoltageRefs>
  #if defined (BAT_NONE) || defined (UI_BATTERY_LASTLINE)
    /* no battery monitoring */
    Display_EEString(Tester_str);       /* display (line #1): Component Tester */
  #else
    /* battery monitoring */
    CheckBattery();                     /* check battery voltage */
    57dc:	0e 94 62 06 	call	0xcc4	; 0xcc4 <CheckBattery>
                                        /* will power off on low battery */
    ShowBattery();                      /* display (line #1) battery status */
    57e0:	0e 94 38 06 	call	0xc70	; 0xc70 <ShowBattery>
    /* move text left by one char for optional ' C' */
    UI.CharMax_X--;                          /* simulate shorter line */
    Display_EEString_Center(Probing_str);    /* display: probing... */
    UI.CharMax_X++;                          /* original line size */
  #else
    Display_NL_EEString(Probing_str);        /* display (line #2): probing... */
    57e4:	82 eb       	ldi	r24, 0xB2	; 178
    57e6:	92 e0       	ldi	r25, 0x02	; 2
    57e8:	0e 94 38 11 	call	0x2270	; 0x2270 <Display_NL_EEString>
  #endif

  /* try to discharge any connected component */
  DischargeProbes();
    57ec:	0e 94 d4 0e 	call	0x1da8	; 0x1da8 <DischargeProbes>
  if (Check.Found == COMP_ERROR)   /* discharge failed */
    57f0:	80 91 01 01 	lds	r24, 0x0101	; 0x800101 <Check>
    57f4:	81 30       	cpi	r24, 0x01	; 1
    57f6:	e1 f1       	breq	.+120    	; 0x5870 <main+0x1f4>
    goto cycle_action;             /* perform action */
  }
  #endif

  /* check all 6 combinations of the 3 probes */
  CheckProbes(PROBE_1, PROBE_2, PROBE_3);
    57f8:	42 e0       	ldi	r20, 0x02	; 2
    57fa:	61 e0       	ldi	r22, 0x01	; 1
    57fc:	80 e0       	ldi	r24, 0x00	; 0
    57fe:	0e 94 03 10 	call	0x2006	; 0x2006 <CheckProbes>
  CheckProbes(PROBE_2, PROBE_1, PROBE_3);
    5802:	42 e0       	ldi	r20, 0x02	; 2
    5804:	60 e0       	ldi	r22, 0x00	; 0
    5806:	81 e0       	ldi	r24, 0x01	; 1
    5808:	0e 94 03 10 	call	0x2006	; 0x2006 <CheckProbes>
  CheckProbes(PROBE_1, PROBE_3, PROBE_2);
    580c:	41 e0       	ldi	r20, 0x01	; 1
    580e:	62 e0       	ldi	r22, 0x02	; 2
    5810:	80 e0       	ldi	r24, 0x00	; 0
    5812:	0e 94 03 10 	call	0x2006	; 0x2006 <CheckProbes>
  CheckProbes(PROBE_3, PROBE_1, PROBE_2);
    5816:	41 e0       	ldi	r20, 0x01	; 1
    5818:	60 e0       	ldi	r22, 0x00	; 0
    581a:	82 e0       	ldi	r24, 0x02	; 2
    581c:	0e 94 03 10 	call	0x2006	; 0x2006 <CheckProbes>
  CheckProbes(PROBE_2, PROBE_3, PROBE_1);
    5820:	40 e0       	ldi	r20, 0x00	; 0
    5822:	62 e0       	ldi	r22, 0x02	; 2
    5824:	81 e0       	ldi	r24, 0x01	; 1
    5826:	0e 94 03 10 	call	0x2006	; 0x2006 <CheckProbes>
  CheckProbes(PROBE_3, PROBE_2, PROBE_1);
    582a:	40 e0       	ldi	r20, 0x00	; 0
    582c:	61 e0       	ldi	r22, 0x01	; 1
    582e:	82 e0       	ldi	r24, 0x02	; 2
    5830:	0e 94 03 10 	call	0x2006	; 0x2006 <CheckProbes>

  CheckAlternatives();             /* process alternatives */
    5834:	0e 94 d0 10 	call	0x21a0	; 0x21a0 <CheckAlternatives>
  SemiPinDesignators();            /* manage semi pin designators */
    5838:	0e 94 fd 19 	call	0x33fa	; 0x33fa <SemiPinDesignators>

  /* if component might be a capacitor */
  if ((Check.Found == COMP_NONE) ||
    583c:	80 91 01 01 	lds	r24, 0x0101	; 0x800101 <Check>
    5840:	88 23       	and	r24, r24
    5842:	11 f0       	breq	.+4      	; 0x5848 <main+0x1cc>
    5844:	8a 30       	cpi	r24, 0x0A	; 10
    5846:	a1 f4       	brne	.+40     	; 0x5870 <main+0x1f4>
      (Check.Found == COMP_RESISTOR))
  {
    /* check for capacitors */

    /* tell user to be patient with large caps :) */
    Display_Space();
    5848:	0e 94 27 11 	call	0x224e	; 0x224e <Display_Space>
    Display_Char('C');    
    584c:	83 e4       	ldi	r24, 0x43	; 67
    584e:	0e 94 fe 2a 	call	0x55fc	; 0x55fc <LCD_Char>

    /* check all possible combinations */
    MeasureCap(PROBE_3, PROBE_1, 0);
    5852:	40 e0       	ldi	r20, 0x00	; 0
    5854:	60 e0       	ldi	r22, 0x00	; 0
    5856:	82 e0       	ldi	r24, 0x02	; 2
    5858:	0e 94 59 19 	call	0x32b2	; 0x32b2 <MeasureCap>
    MeasureCap(PROBE_3, PROBE_2, 1);
    585c:	41 e0       	ldi	r20, 0x01	; 1
    585e:	61 e0       	ldi	r22, 0x01	; 1
    5860:	82 e0       	ldi	r24, 0x02	; 2
    5862:	0e 94 59 19 	call	0x32b2	; 0x32b2 <MeasureCap>
    MeasureCap(PROBE_2, PROBE_1, 2);
    5866:	42 e0       	ldi	r20, 0x02	; 2
    5868:	60 e0       	ldi	r22, 0x00	; 0
    586a:	81 e0       	ldi	r24, 0x01	; 1
    586c:	0e 94 59 19 	call	0x32b2	; 0x32b2 <MeasureCap>
   *  output test results
   */

show_component:

  LCD_Clear();                     /* clear LCD */
    5870:	0e 94 16 2b 	call	0x562c	; 0x562c <LCD_Clear>
  if (Key == KEY_PROBE)            /* probing by command */
  {
    Test = LINE_KEEP;              /* don't wait for key/timeout */
  }
  #endif
  UI.LineMode = Test;              /* change mode */
    5874:	d0 93 1f 01 	sts	0x011F, r29	; 0x80011f <UI>
    Cfg.OP_Mode |= OP_AUTOHOLD_TEMP | OP_AUTOHOLD;
  }
  #endif

  /* call output function based on component type */
  switch (Check.Found)
    5878:	80 91 01 01 	lds	r24, 0x0101	; 0x800101 <Check>
    587c:	8f 31       	cpi	r24, 0x1F	; 31
    587e:	09 f4       	brne	.+2      	; 0x5882 <main+0x206>
    5880:	59 c0       	rjmp	.+178    	; 0x5934 <main+0x2b8>
    5882:	70 f5       	brcc	.+92     	; 0x58e0 <main+0x264>
    5884:	8b 30       	cpi	r24, 0x0B	; 11
    5886:	09 f4       	brne	.+2      	; 0x588a <main+0x20e>
    5888:	61 c0       	rjmp	.+194    	; 0x594c <main+0x2d0>
    588a:	18 f5       	brcc	.+70     	; 0x58d2 <main+0x256>
    588c:	81 30       	cpi	r24, 0x01	; 1
    588e:	b1 f1       	breq	.+108    	; 0x58fc <main+0x280>
    5890:	8a 30       	cpi	r24, 0x0A	; 10
    5892:	09 f4       	brne	.+2      	; 0x5896 <main+0x21a>
    5894:	58 c0       	rjmp	.+176    	; 0x5946 <main+0x2ca>
      Show_Zener();
      break;
    #endif

    default:                  /* no component found */
      Show_Fail();
    5896:	0e 94 b8 00 	call	0x170	; 0x170 <Show_Fail>
      break;
    589a:	32 c0       	rjmp	.+100    	; 0x5900 <main+0x284>
    {
      MilliSleep(20);                        /* wait 20ms */

      if (!(BUTTON_PIN & (1 << TEST_BUTTON)))   /* button still pressed */
      {
        Test++;                                   /* increase counter */
    589c:	cf 5f       	subi	r28, 0xFF	; 255
        if (Test > 100) Key = KEY_DEFAULTS;       /* >2000ms: set defaults */
    589e:	c5 36       	cpi	r28, 0x65	; 101
    58a0:	39 f4       	brne	.+14     	; 0x58b0 <main+0x234>
    58a2:	ca e6       	ldi	r28, 0x6A	; 106
    #ifdef UI_AUTOHOLD
      /* change mode to continuous */
      Cfg.OP_Mode &= ~OP_AUTOHOLD;      /* clear auto-hold */
    #else
      /* change mode to auto-hold */
      Cfg.OP_Mode |= OP_AUTOHOLD;       /* set auto-hold */
    58a4:	80 91 86 01 	lds	r24, 0x0186	; 0x800186 <Cfg>
    58a8:	81 60       	ori	r24, 0x01	; 1
    58aa:	80 93 86 01 	sts	0x0186, r24	; 0x800186 <Cfg>
    58ae:	2b cf       	rjmp	.-426    	; 0x5706 <main+0x8a>
  {
    Test = 0;                      /* ticks counter */

    while (Key == 0)               /* loop until we got a type */
    {
      MilliSleep(20);                        /* wait 20ms */
    58b0:	84 e1       	ldi	r24, 0x14	; 20
    58b2:	90 e0       	ldi	r25, 0x00	; 0
    58b4:	0e 94 0b 09 	call	0x1216	; 0x1216 <MilliSleep>

      if (!(BUTTON_PIN & (1 << TEST_BUTTON)))   /* button still pressed */
    58b8:	33 9b       	sbis	0x06, 3	; 6
    58ba:	f0 cf       	rjmp	.-32     	; 0x589c <main+0x220>
        if (Test > 100) Key = KEY_DEFAULTS;       /* >2000ms: set defaults */
      }
      else                                      /* button released */
      {
        Key = KEY_SHORT;                          /* <300ms: short press */
        if (Test > 15) Key = KEY_LONG;            /* >300ms: long press */
    58bc:	c0 31       	cpi	r28, 0x10	; 16
    58be:	10 f4       	brcc	.+4      	; 0x58c4 <main+0x248>
        Test++;                                   /* increase counter */
        if (Test > 100) Key = KEY_DEFAULTS;       /* >2000ms: set defaults */
      }
      else                                      /* button released */
      {
        Key = KEY_SHORT;                          /* <300ms: short press */
    58c0:	c1 e0       	ldi	r28, 0x01	; 1
    58c2:	21 cf       	rjmp	.-446    	; 0x5706 <main+0x8a>
        if (Test > 15) Key = KEY_LONG;            /* >300ms: long press */
    58c4:	c2 e0       	ldi	r28, 0x02	; 2
    58c6:	ee cf       	rjmp	.-36     	; 0x58a4 <main+0x228>
    SetAdjustmentDefaults();            /* set default values */
  }
  else                             /* normal mode */
  {
    /* load adjustment values: profile #1 */
    ManageAdjustmentStorage(STORAGE_LOAD, 1);
    58c8:	61 e0       	ldi	r22, 0x01	; 1
    58ca:	81 e0       	ldi	r24, 0x01	; 1
    58cc:	0e 94 8a 09 	call	0x1314	; 0x1314 <ManageAdjustmentStorage>
    58d0:	23 cf       	rjmp	.-442    	; 0x5718 <main+0x9c>
    Cfg.OP_Mode |= OP_AUTOHOLD_TEMP | OP_AUTOHOLD;
  }
  #endif

  /* call output function based on component type */
  switch (Check.Found)
    58d2:	84 31       	cpi	r24, 0x14	; 20
    58d4:	61 f1       	breq	.+88     	; 0x592e <main+0x2b2>
    58d6:	8e 31       	cpi	r24, 0x1E	; 30
    58d8:	f1 f6       	brne	.-68     	; 0x5896 <main+0x21a>
    case COMP_DIODE:          /* diode */
      Show_Diode();
      break;

    case COMP_BJT:            /* BJT */
      Show_BJT();
    58da:	0e 94 e0 03 	call	0x7c0	; 0x7c0 <Show_BJT>
      break;
    58de:	10 c0       	rjmp	.+32     	; 0x5900 <main+0x284>
    Cfg.OP_Mode |= OP_AUTOHOLD_TEMP | OP_AUTOHOLD;
  }
  #endif

  /* call output function based on component type */
  switch (Check.Found)
    58e0:	83 32       	cpi	r24, 0x23	; 35
    58e2:	28 f4       	brcc	.+10     	; 0x58ee <main+0x272>
    58e4:	81 32       	cpi	r24, 0x21	; 33
    58e6:	48 f1       	brcs	.+82     	; 0x593a <main+0x2be>
    case COMP_IGBT:           /* IGBT */
      Show_IGBT();
      break;

    case COMP_THYRISTOR:      /* Thyristor/SCR */
      Show_ThyristorTriac();
    58e8:	0e 94 9d 05 	call	0xb3a	; 0xb3a <Show_ThyristorTriac>
      break;
    58ec:	09 c0       	rjmp	.+18     	; 0x5900 <main+0x284>
    Cfg.OP_Mode |= OP_AUTOHOLD_TEMP | OP_AUTOHOLD;
  }
  #endif

  /* call output function based on component type */
  switch (Check.Found)
    58ee:	83 32       	cpi	r24, 0x23	; 35
    58f0:	39 f1       	breq	.+78     	; 0x5940 <main+0x2c4>
    58f2:	84 32       	cpi	r24, 0x24	; 36
    58f4:	81 f6       	brne	.-96     	; 0x5896 <main+0x21a>
      Show_PUT();
      break;

    #ifdef SW_UJT
    case COMP_UJT:            /* UJT */
      Show_UJT();
    58f6:	0e 94 e8 05 	call	0xbd0	; 0xbd0 <Show_UJT>
      break;
    58fa:	02 c0       	rjmp	.+4      	; 0x5900 <main+0x284>

  /* call output function based on component type */
  switch (Check.Found)
  {
    case COMP_ERROR:          /* error */
      Show_Error();
    58fc:	0e 94 c6 00 	call	0x18c	; 0x18c <Show_Error>
  }
  #endif

  #if CYCLE_MAX < 255
  /* component was found */
  if (Check.Found >= COMP_RESISTOR)
    5900:	80 91 01 01 	lds	r24, 0x0101	; 0x800101 <Check>
    5904:	8a 30       	cpi	r24, 0x0A	; 10
    5906:	10 f0       	brcs	.+4      	; 0x590c <main+0x290>
  {
    MissedParts = 0;          /* reset counter */
    5908:	10 92 93 01 	sts	0x0193, r1	; 0x800193 <MissedParts>

  #ifdef SERIAL_RW
  Serial_Ctrl(SER_RX_RESUME);      /* enable TTL serial RX */
  #endif

  UI.LineMode = LINE_STD;          /* reset next-line mode */
    590c:	10 92 1f 01 	sts	0x011F, r1	; 0x80011f <UI>
  #ifdef UI_KEY_HINTS
    Display_LastLine();
    UI.KeyHint = (unsigned char *)Menu_or_Test_str;
    Key = TestKey((uint16_t)CYCLE_DELAY, CURSOR_BLINK | CURSOR_TEXT | CHECK_OP_MODE | CHECK_KEY_TWICE | CHECK_BAT);
  #else
    Key = TestKey((uint16_t)CYCLE_DELAY, CURSOR_BLINK | CHECK_OP_MODE | CHECK_KEY_TWICE | CHECK_BAT);
    5910:	6e e1       	ldi	r22, 0x1E	; 30
    5912:	88 eb       	ldi	r24, 0xB8	; 184
    5914:	9b e0       	ldi	r25, 0x0B	; 11
    5916:	0e 94 0f 2b 	call	0x561e	; 0x561e <brutzelboy_get_key>
  #endif

  if (Key == KEY_TIMEOUT)          /* timeout (no key press) */
    591a:	81 11       	cpse	r24, r1
    591c:	1a c0       	rjmp	.+52     	; 0x5952 <main+0x2d6>
  {
    /* implies continuous mode */

    #if CYCLE_MAX < 255
    /* check if we reached the maximum number of missed parts in a row */
    if (MissedParts >= CYCLE_MAX)
    591e:	80 91 93 01 	lds	r24, 0x0193	; 0x800193 <MissedParts>
    5922:	85 30       	cpi	r24, 0x05	; 5
    5924:	08 f4       	brcc	.+2      	; 0x5928 <main+0x2ac>
    5926:	21 cf       	rjmp	.-446    	; 0x576a <main+0xee>
    goto cycle_control;            /* re-run cycle control */
  }
  #endif
  else if (Key == KEY_POWER_OFF)   /* power off */
  {
    PowerOff();                    /* power off */
    5928:	0e 94 1a 06 	call	0xc34	; 0xc34 <PowerOff>
  else                             /* default action */
  {
    goto cycle_start;              /* next round */
  }

  return 0;
    592c:	e4 ce       	rjmp	.-568    	; 0x56f6 <main+0x7a>
    case COMP_ERROR:          /* error */
      Show_Error();
      break;

    case COMP_DIODE:          /* diode */
      Show_Diode();
    592e:	0e 94 7d 02 	call	0x4fa	; 0x4fa <Show_Diode>
      break;
    5932:	e6 cf       	rjmp	.-52     	; 0x5900 <main+0x284>
    case COMP_BJT:            /* BJT */
      Show_BJT();
      break;

    case COMP_FET:            /* FET */
      Show_FET();
    5934:	0e 94 52 05 	call	0xaa4	; 0xaa4 <Show_FET>
      break;
    5938:	e3 cf       	rjmp	.-58     	; 0x5900 <main+0x284>

    case COMP_IGBT:           /* IGBT */
      Show_IGBT();
    593a:	0e 94 8e 05 	call	0xb1c	; 0xb1c <Show_IGBT>
      break;
    593e:	e0 cf       	rjmp	.-64     	; 0x5900 <main+0x284>
    case COMP_TRIAC:          /* TRIAC */
      Show_ThyristorTriac();
      break;

    case COMP_PUT:            /* PUT */
      Show_PUT();
    5940:	0e 94 c1 05 	call	0xb82	; 0xb82 <Show_PUT>
      break;
    5944:	dd cf       	rjmp	.-70     	; 0x5900 <main+0x284>
      Show_UJT();
      break;
    #endif

    case COMP_RESISTOR:       /* resistor(s) */
      Show_Resistor();
    5946:	0e 94 01 01 	call	0x202	; 0x202 <Show_Resistor>
      break;
    594a:	da cf       	rjmp	.-76     	; 0x5900 <main+0x284>

    case COMP_CAPACITOR:      /* capacitor(s) */
      Show_Capacitor();
    594c:	0e 94 c0 01 	call	0x380	; 0x380 <Show_Capacitor>
      break;
    5950:	d7 cf       	rjmp	.-82     	; 0x5900 <main+0x284>
    {
      Key = KEY_POWER_OFF;         /* signal power off */
    }
    #endif
  }
  else if (Key == KEY_TWICE)       /* two short key presses */
    5952:	83 30       	cpi	r24, 0x03	; 3
    5954:	21 f0       	breq	.+8      	; 0x595e <main+0x2e2>
  {
    Key = KEY_MAINMENU;            /* signal main menu */
  }
  else if (Key == KEY_LONG)        /* long key press */
    5956:	82 30       	cpi	r24, 0x02	; 2
    5958:	39 f3       	breq	.-50     	; 0x5928 <main+0x2ac>
    Cfg.OP_Mode &= ~(OP_AUTOHOLD_TEMP | OP_AUTOHOLD);
  }
  #endif


  if (Key == KEY_MAINMENU)         /* run main menu */
    595a:	85 36       	cpi	r24, 0x65	; 101
    595c:	59 f4       	brne	.+22     	; 0x5974 <main+0x2f8>
  {
    #ifdef SAVE_POWER
    /* change sleep mode the Idle to keep timers & other stuff running */
    Test = Cfg.SleepMode;               /* get current mode */
    595e:	10 91 88 01 	lds	r17, 0x0188	; 0x800188 <Cfg+0x2>
    Cfg.SleepMode = SLEEP_MODE_IDLE;    /* change sleep mode to Idle */
    5962:	10 92 88 01 	sts	0x0188, r1	; 0x800188 <Cfg+0x2>
    #ifdef UI_MAINMENU_AUTOEXIT
      /* run main menu once and return to probe cycle */
      MainMenu();                  /* enter main menu */
    #else
      /* run main menu until explicit exit */
      while (MainMenu() != KEY_EXIT)
    5966:	0e 94 ac 08 	call	0x1158	; 0x1158 <MainMenu>
    596a:	89 36       	cpi	r24, 0x69	; 105
    596c:	e1 f7       	brne	.-8      	; 0x5966 <main+0x2ea>
      }
    #endif

    #ifdef SAVE_POWER
    /* change sleep mode back */
    Cfg.SleepMode = Test;          /* change sleep mode back */
    596e:	10 93 88 01 	sts	0x0188, r17	; 0x800188 <Cfg+0x2>
    #endif

    goto cycle_control;            /* re-run cycle control */
    5972:	cc cf       	rjmp	.-104    	; 0x590c <main+0x290>
    Monitor_RCL();                 /* run RCL monitor */
    ToolDone();                    /* UI feedback */
    goto cycle_control;            /* re-run cycle control */
  }
  #endif
  else if (Key == KEY_POWER_OFF)   /* power off */
    5974:	87 36       	cpi	r24, 0x67	; 103
    5976:	09 f0       	breq	.+2      	; 0x597a <main+0x2fe>
    5978:	f8 ce       	rjmp	.-528    	; 0x576a <main+0xee>
    597a:	d6 cf       	rjmp	.-84     	; 0x5928 <main+0x2ac>

0000597c <__mulsi3>:
    597c:	db 01       	movw	r26, r22
    597e:	8f 93       	push	r24
    5980:	9f 93       	push	r25
    5982:	0e 94 61 2d 	call	0x5ac2	; 0x5ac2 <__muluhisi3>
    5986:	bf 91       	pop	r27
    5988:	af 91       	pop	r26
    598a:	a2 9f       	mul	r26, r18
    598c:	80 0d       	add	r24, r0
    598e:	91 1d       	adc	r25, r1
    5990:	a3 9f       	mul	r26, r19
    5992:	90 0d       	add	r25, r0
    5994:	b2 9f       	mul	r27, r18
    5996:	90 0d       	add	r25, r0
    5998:	11 24       	eor	r1, r1
    599a:	08 95       	ret

0000599c <__divmodqi4>:
    599c:	87 fb       	bst	r24, 7
    599e:	08 2e       	mov	r0, r24
    59a0:	06 26       	eor	r0, r22
    59a2:	87 fd       	sbrc	r24, 7
    59a4:	81 95       	neg	r24
    59a6:	67 fd       	sbrc	r22, 7
    59a8:	61 95       	neg	r22
    59aa:	0e 94 a3 2d 	call	0x5b46	; 0x5b46 <__udivmodqi4>
    59ae:	0e f4       	brtc	.+2      	; 0x59b2 <__divmodqi4_1>
    59b0:	91 95       	neg	r25

000059b2 <__divmodqi4_1>:
    59b2:	07 fc       	sbrc	r0, 7
    59b4:	81 95       	neg	r24

000059b6 <__divmodqi4_exit>:
    59b6:	08 95       	ret

000059b8 <__udivmodhi4>:
    59b8:	aa 1b       	sub	r26, r26
    59ba:	bb 1b       	sub	r27, r27
    59bc:	51 e1       	ldi	r21, 0x11	; 17
    59be:	07 c0       	rjmp	.+14     	; 0x59ce <__udivmodhi4_ep>

000059c0 <__udivmodhi4_loop>:
    59c0:	aa 1f       	adc	r26, r26
    59c2:	bb 1f       	adc	r27, r27
    59c4:	a6 17       	cp	r26, r22
    59c6:	b7 07       	cpc	r27, r23
    59c8:	10 f0       	brcs	.+4      	; 0x59ce <__udivmodhi4_ep>
    59ca:	a6 1b       	sub	r26, r22
    59cc:	b7 0b       	sbc	r27, r23

000059ce <__udivmodhi4_ep>:
    59ce:	88 1f       	adc	r24, r24
    59d0:	99 1f       	adc	r25, r25
    59d2:	5a 95       	dec	r21
    59d4:	a9 f7       	brne	.-22     	; 0x59c0 <__udivmodhi4_loop>
    59d6:	80 95       	com	r24
    59d8:	90 95       	com	r25
    59da:	bc 01       	movw	r22, r24
    59dc:	cd 01       	movw	r24, r26
    59de:	08 95       	ret

000059e0 <__divmodhi4>:
    59e0:	97 fb       	bst	r25, 7
    59e2:	07 2e       	mov	r0, r23
    59e4:	16 f4       	brtc	.+4      	; 0x59ea <__divmodhi4+0xa>
    59e6:	00 94       	com	r0
    59e8:	07 d0       	rcall	.+14     	; 0x59f8 <__divmodhi4_neg1>
    59ea:	77 fd       	sbrc	r23, 7
    59ec:	09 d0       	rcall	.+18     	; 0x5a00 <__divmodhi4_neg2>
    59ee:	0e 94 dc 2c 	call	0x59b8	; 0x59b8 <__udivmodhi4>
    59f2:	07 fc       	sbrc	r0, 7
    59f4:	05 d0       	rcall	.+10     	; 0x5a00 <__divmodhi4_neg2>
    59f6:	3e f4       	brtc	.+14     	; 0x5a06 <__divmodhi4_exit>

000059f8 <__divmodhi4_neg1>:
    59f8:	90 95       	com	r25
    59fa:	81 95       	neg	r24
    59fc:	9f 4f       	sbci	r25, 0xFF	; 255
    59fe:	08 95       	ret

00005a00 <__divmodhi4_neg2>:
    5a00:	70 95       	com	r23
    5a02:	61 95       	neg	r22
    5a04:	7f 4f       	sbci	r23, 0xFF	; 255

00005a06 <__divmodhi4_exit>:
    5a06:	08 95       	ret

00005a08 <__udivmodsi4>:
    5a08:	a1 e2       	ldi	r26, 0x21	; 33
    5a0a:	1a 2e       	mov	r1, r26
    5a0c:	aa 1b       	sub	r26, r26
    5a0e:	bb 1b       	sub	r27, r27
    5a10:	fd 01       	movw	r30, r26
    5a12:	0d c0       	rjmp	.+26     	; 0x5a2e <__udivmodsi4_ep>

00005a14 <__udivmodsi4_loop>:
    5a14:	aa 1f       	adc	r26, r26
    5a16:	bb 1f       	adc	r27, r27
    5a18:	ee 1f       	adc	r30, r30
    5a1a:	ff 1f       	adc	r31, r31
    5a1c:	a2 17       	cp	r26, r18
    5a1e:	b3 07       	cpc	r27, r19
    5a20:	e4 07       	cpc	r30, r20
    5a22:	f5 07       	cpc	r31, r21
    5a24:	20 f0       	brcs	.+8      	; 0x5a2e <__udivmodsi4_ep>
    5a26:	a2 1b       	sub	r26, r18
    5a28:	b3 0b       	sbc	r27, r19
    5a2a:	e4 0b       	sbc	r30, r20
    5a2c:	f5 0b       	sbc	r31, r21

00005a2e <__udivmodsi4_ep>:
    5a2e:	66 1f       	adc	r22, r22
    5a30:	77 1f       	adc	r23, r23
    5a32:	88 1f       	adc	r24, r24
    5a34:	99 1f       	adc	r25, r25
    5a36:	1a 94       	dec	r1
    5a38:	69 f7       	brne	.-38     	; 0x5a14 <__udivmodsi4_loop>
    5a3a:	60 95       	com	r22
    5a3c:	70 95       	com	r23
    5a3e:	80 95       	com	r24
    5a40:	90 95       	com	r25
    5a42:	9b 01       	movw	r18, r22
    5a44:	ac 01       	movw	r20, r24
    5a46:	bd 01       	movw	r22, r26
    5a48:	cf 01       	movw	r24, r30
    5a4a:	08 95       	ret

00005a4c <__divmodsi4>:
    5a4c:	05 2e       	mov	r0, r21
    5a4e:	97 fb       	bst	r25, 7
    5a50:	1e f4       	brtc	.+6      	; 0x5a58 <__divmodsi4+0xc>
    5a52:	00 94       	com	r0
    5a54:	0e 94 3d 2d 	call	0x5a7a	; 0x5a7a <__negsi2>
    5a58:	57 fd       	sbrc	r21, 7
    5a5a:	07 d0       	rcall	.+14     	; 0x5a6a <__divmodsi4_neg2>
    5a5c:	0e 94 04 2d 	call	0x5a08	; 0x5a08 <__udivmodsi4>
    5a60:	07 fc       	sbrc	r0, 7
    5a62:	03 d0       	rcall	.+6      	; 0x5a6a <__divmodsi4_neg2>
    5a64:	4e f4       	brtc	.+18     	; 0x5a78 <__divmodsi4_exit>
    5a66:	0c 94 3d 2d 	jmp	0x5a7a	; 0x5a7a <__negsi2>

00005a6a <__divmodsi4_neg2>:
    5a6a:	50 95       	com	r21
    5a6c:	40 95       	com	r20
    5a6e:	30 95       	com	r19
    5a70:	21 95       	neg	r18
    5a72:	3f 4f       	sbci	r19, 0xFF	; 255
    5a74:	4f 4f       	sbci	r20, 0xFF	; 255
    5a76:	5f 4f       	sbci	r21, 0xFF	; 255

00005a78 <__divmodsi4_exit>:
    5a78:	08 95       	ret

00005a7a <__negsi2>:
    5a7a:	90 95       	com	r25
    5a7c:	80 95       	com	r24
    5a7e:	70 95       	com	r23
    5a80:	61 95       	neg	r22
    5a82:	7f 4f       	sbci	r23, 0xFF	; 255
    5a84:	8f 4f       	sbci	r24, 0xFF	; 255
    5a86:	9f 4f       	sbci	r25, 0xFF	; 255
    5a88:	08 95       	ret

00005a8a <__tablejump2__>:
    5a8a:	ee 0f       	add	r30, r30
    5a8c:	ff 1f       	adc	r31, r31
    5a8e:	05 90       	lpm	r0, Z+
    5a90:	f4 91       	lpm	r31, Z
    5a92:	e0 2d       	mov	r30, r0
    5a94:	09 94       	ijmp

00005a96 <__umulhisi3>:
    5a96:	a2 9f       	mul	r26, r18
    5a98:	b0 01       	movw	r22, r0
    5a9a:	b3 9f       	mul	r27, r19
    5a9c:	c0 01       	movw	r24, r0
    5a9e:	a3 9f       	mul	r26, r19
    5aa0:	70 0d       	add	r23, r0
    5aa2:	81 1d       	adc	r24, r1
    5aa4:	11 24       	eor	r1, r1
    5aa6:	91 1d       	adc	r25, r1
    5aa8:	b2 9f       	mul	r27, r18
    5aaa:	70 0d       	add	r23, r0
    5aac:	81 1d       	adc	r24, r1
    5aae:	11 24       	eor	r1, r1
    5ab0:	91 1d       	adc	r25, r1
    5ab2:	08 95       	ret

00005ab4 <__usmulhisi3>:
    5ab4:	0e 94 4b 2d 	call	0x5a96	; 0x5a96 <__umulhisi3>

00005ab8 <__usmulhisi3_tail>:
    5ab8:	b7 ff       	sbrs	r27, 7
    5aba:	08 95       	ret
    5abc:	82 1b       	sub	r24, r18
    5abe:	93 0b       	sbc	r25, r19
    5ac0:	08 95       	ret

00005ac2 <__muluhisi3>:
    5ac2:	0e 94 4b 2d 	call	0x5a96	; 0x5a96 <__umulhisi3>
    5ac6:	a5 9f       	mul	r26, r21
    5ac8:	90 0d       	add	r25, r0
    5aca:	b4 9f       	mul	r27, r20
    5acc:	90 0d       	add	r25, r0
    5ace:	a4 9f       	mul	r26, r20
    5ad0:	80 0d       	add	r24, r0
    5ad2:	91 1d       	adc	r25, r1
    5ad4:	11 24       	eor	r1, r1
    5ad6:	08 95       	ret

00005ad8 <__prologue_saves__>:
    5ad8:	2f 92       	push	r2
    5ada:	3f 92       	push	r3
    5adc:	4f 92       	push	r4
    5ade:	5f 92       	push	r5
    5ae0:	6f 92       	push	r6
    5ae2:	7f 92       	push	r7
    5ae4:	8f 92       	push	r8
    5ae6:	9f 92       	push	r9
    5ae8:	af 92       	push	r10
    5aea:	bf 92       	push	r11
    5aec:	cf 92       	push	r12
    5aee:	df 92       	push	r13
    5af0:	ef 92       	push	r14
    5af2:	ff 92       	push	r15
    5af4:	0f 93       	push	r16
    5af6:	1f 93       	push	r17
    5af8:	cf 93       	push	r28
    5afa:	df 93       	push	r29
    5afc:	cd b7       	in	r28, 0x3d	; 61
    5afe:	de b7       	in	r29, 0x3e	; 62
    5b00:	ca 1b       	sub	r28, r26
    5b02:	db 0b       	sbc	r29, r27
    5b04:	0f b6       	in	r0, 0x3f	; 63
    5b06:	f8 94       	cli
    5b08:	de bf       	out	0x3e, r29	; 62
    5b0a:	0f be       	out	0x3f, r0	; 63
    5b0c:	cd bf       	out	0x3d, r28	; 61
    5b0e:	09 94       	ijmp

00005b10 <__epilogue_restores__>:
    5b10:	2a 88       	ldd	r2, Y+18	; 0x12
    5b12:	39 88       	ldd	r3, Y+17	; 0x11
    5b14:	48 88       	ldd	r4, Y+16	; 0x10
    5b16:	5f 84       	ldd	r5, Y+15	; 0x0f
    5b18:	6e 84       	ldd	r6, Y+14	; 0x0e
    5b1a:	7d 84       	ldd	r7, Y+13	; 0x0d
    5b1c:	8c 84       	ldd	r8, Y+12	; 0x0c
    5b1e:	9b 84       	ldd	r9, Y+11	; 0x0b
    5b20:	aa 84       	ldd	r10, Y+10	; 0x0a
    5b22:	b9 84       	ldd	r11, Y+9	; 0x09
    5b24:	c8 84       	ldd	r12, Y+8	; 0x08
    5b26:	df 80       	ldd	r13, Y+7	; 0x07
    5b28:	ee 80       	ldd	r14, Y+6	; 0x06
    5b2a:	fd 80       	ldd	r15, Y+5	; 0x05
    5b2c:	0c 81       	ldd	r16, Y+4	; 0x04
    5b2e:	1b 81       	ldd	r17, Y+3	; 0x03
    5b30:	aa 81       	ldd	r26, Y+2	; 0x02
    5b32:	b9 81       	ldd	r27, Y+1	; 0x01
    5b34:	ce 0f       	add	r28, r30
    5b36:	d1 1d       	adc	r29, r1
    5b38:	0f b6       	in	r0, 0x3f	; 63
    5b3a:	f8 94       	cli
    5b3c:	de bf       	out	0x3e, r29	; 62
    5b3e:	0f be       	out	0x3f, r0	; 63
    5b40:	cd bf       	out	0x3d, r28	; 61
    5b42:	ed 01       	movw	r28, r26
    5b44:	08 95       	ret

00005b46 <__udivmodqi4>:
    5b46:	99 1b       	sub	r25, r25
    5b48:	79 e0       	ldi	r23, 0x09	; 9
    5b4a:	04 c0       	rjmp	.+8      	; 0x5b54 <__udivmodqi4_ep>

00005b4c <__udivmodqi4_loop>:
    5b4c:	99 1f       	adc	r25, r25
    5b4e:	96 17       	cp	r25, r22
    5b50:	08 f0       	brcs	.+2      	; 0x5b54 <__udivmodqi4_ep>
    5b52:	96 1b       	sub	r25, r22

00005b54 <__udivmodqi4_ep>:
    5b54:	88 1f       	adc	r24, r24
    5b56:	7a 95       	dec	r23
    5b58:	c9 f7       	brne	.-14     	; 0x5b4c <__udivmodqi4_loop>
    5b5a:	80 95       	com	r24
    5b5c:	08 95       	ret

00005b5e <__utoa_ncheck>:
    5b5e:	bb 27       	eor	r27, r27

00005b60 <__utoa_common>:
    5b60:	fb 01       	movw	r30, r22
    5b62:	55 27       	eor	r21, r21
    5b64:	aa 27       	eor	r26, r26
    5b66:	88 0f       	add	r24, r24
    5b68:	99 1f       	adc	r25, r25
    5b6a:	aa 1f       	adc	r26, r26
    5b6c:	a4 17       	cp	r26, r20
    5b6e:	10 f0       	brcs	.+4      	; 0x5b74 <__utoa_common+0x14>
    5b70:	a4 1b       	sub	r26, r20
    5b72:	83 95       	inc	r24
    5b74:	50 51       	subi	r21, 0x10	; 16
    5b76:	b9 f7       	brne	.-18     	; 0x5b66 <__utoa_common+0x6>
    5b78:	a0 5d       	subi	r26, 0xD0	; 208
    5b7a:	aa 33       	cpi	r26, 0x3A	; 58
    5b7c:	08 f0       	brcs	.+2      	; 0x5b80 <__utoa_common+0x20>
    5b7e:	a9 5d       	subi	r26, 0xD9	; 217
    5b80:	a1 93       	st	Z+, r26
    5b82:	00 97       	sbiw	r24, 0x00	; 0
    5b84:	79 f7       	brne	.-34     	; 0x5b64 <__utoa_common+0x4>
    5b86:	b1 11       	cpse	r27, r1
    5b88:	b1 93       	st	Z+, r27
    5b8a:	11 92       	st	Z+, r1
    5b8c:	cb 01       	movw	r24, r22
    5b8e:	0c 94 c9 2d 	jmp	0x5b92	; 0x5b92 <strrev>

00005b92 <strrev>:
    5b92:	dc 01       	movw	r26, r24
    5b94:	fc 01       	movw	r30, r24
    5b96:	67 2f       	mov	r22, r23
    5b98:	71 91       	ld	r23, Z+
    5b9a:	77 23       	and	r23, r23
    5b9c:	e1 f7       	brne	.-8      	; 0x5b96 <strrev+0x4>
    5b9e:	32 97       	sbiw	r30, 0x02	; 2
    5ba0:	04 c0       	rjmp	.+8      	; 0x5baa <strrev+0x18>
    5ba2:	7c 91       	ld	r23, X
    5ba4:	6d 93       	st	X+, r22
    5ba6:	70 83       	st	Z, r23
    5ba8:	62 91       	ld	r22, -Z
    5baa:	ae 17       	cp	r26, r30
    5bac:	bf 07       	cpc	r27, r31
    5bae:	c8 f3       	brcs	.-14     	; 0x5ba2 <strrev+0x10>
    5bb0:	08 95       	ret

00005bb2 <eeprom_read_block>:
    5bb2:	dc 01       	movw	r26, r24
    5bb4:	cb 01       	movw	r24, r22

00005bb6 <eeprom_read_blraw>:
    5bb6:	fc 01       	movw	r30, r24
    5bb8:	f9 99       	sbic	0x1f, 1	; 31
    5bba:	fe cf       	rjmp	.-4      	; 0x5bb8 <eeprom_read_blraw+0x2>
    5bbc:	06 c0       	rjmp	.+12     	; 0x5bca <eeprom_read_blraw+0x14>
    5bbe:	f2 bd       	out	0x22, r31	; 34
    5bc0:	e1 bd       	out	0x21, r30	; 33
    5bc2:	f8 9a       	sbi	0x1f, 0	; 31
    5bc4:	31 96       	adiw	r30, 0x01	; 1
    5bc6:	00 b4       	in	r0, 0x20	; 32
    5bc8:	0d 92       	st	X+, r0
    5bca:	41 50       	subi	r20, 0x01	; 1
    5bcc:	50 40       	sbci	r21, 0x00	; 0
    5bce:	b8 f7       	brcc	.-18     	; 0x5bbe <eeprom_read_blraw+0x8>
    5bd0:	08 95       	ret

00005bd2 <eeprom_read_byte>:
    5bd2:	f9 99       	sbic	0x1f, 1	; 31
    5bd4:	fe cf       	rjmp	.-4      	; 0x5bd2 <eeprom_read_byte>
    5bd6:	92 bd       	out	0x22, r25	; 34
    5bd8:	81 bd       	out	0x21, r24	; 33
    5bda:	f8 9a       	sbi	0x1f, 0	; 31
    5bdc:	99 27       	eor	r25, r25
    5bde:	80 b5       	in	r24, 0x20	; 32
    5be0:	08 95       	ret

00005be2 <eeprom_read_word>:
    5be2:	a8 e1       	ldi	r26, 0x18	; 24
    5be4:	b0 e0       	ldi	r27, 0x00	; 0
    5be6:	42 e0       	ldi	r20, 0x02	; 2
    5be8:	50 e0       	ldi	r21, 0x00	; 0
    5bea:	0c 94 db 2d 	jmp	0x5bb6	; 0x5bb6 <eeprom_read_blraw>

00005bee <eeprom_write_block>:
    5bee:	dc 01       	movw	r26, r24
    5bf0:	cb 01       	movw	r24, r22
    5bf2:	03 c0       	rjmp	.+6      	; 0x5bfa <eeprom_write_block+0xc>
    5bf4:	2d 91       	ld	r18, X+
    5bf6:	0e 94 02 2e 	call	0x5c04	; 0x5c04 <eeprom_write_r18>
    5bfa:	41 50       	subi	r20, 0x01	; 1
    5bfc:	50 40       	sbci	r21, 0x00	; 0
    5bfe:	d0 f7       	brcc	.-12     	; 0x5bf4 <eeprom_write_block+0x6>
    5c00:	08 95       	ret

00005c02 <eeprom_write_byte>:
    5c02:	26 2f       	mov	r18, r22

00005c04 <eeprom_write_r18>:
    5c04:	f9 99       	sbic	0x1f, 1	; 31
    5c06:	fe cf       	rjmp	.-4      	; 0x5c04 <eeprom_write_r18>
    5c08:	1f ba       	out	0x1f, r1	; 31
    5c0a:	92 bd       	out	0x22, r25	; 34
    5c0c:	81 bd       	out	0x21, r24	; 33
    5c0e:	20 bd       	out	0x20, r18	; 32
    5c10:	0f b6       	in	r0, 0x3f	; 63
    5c12:	f8 94       	cli
    5c14:	fa 9a       	sbi	0x1f, 2	; 31
    5c16:	f9 9a       	sbi	0x1f, 1	; 31
    5c18:	0f be       	out	0x3f, r0	; 63
    5c1a:	01 96       	adiw	r24, 0x01	; 1
    5c1c:	08 95       	ret

00005c1e <_exit>:
    5c1e:	f8 94       	cli

00005c20 <__stop_program>:
    5c20:	ff cf       	rjmp	.-2      	; 0x5c20 <__stop_program>
